
./kernel/kernel:     file format elf64-littleriscv


Disassembly of section .text:

0000000080200000 <_entry>:
    80200000:	00150293          	addi	t0,a0,1
    80200004:	02ba                	slli	t0,t0,0xe
    80200006:	0020d117          	auipc	sp,0x20d
    8020000a:	ffa10113          	addi	sp,sp,-6 # 8040d000 <boot_stack>
    8020000e:	9116                	add	sp,sp,t0
    80200010:	1e1000ef          	jal	ra,802009f0 <main>

0000000080200014 <loop>:
    80200014:	a001                	j	80200014 <loop>

0000000080200016 <printint>:
    80200016:	7179                	addi	sp,sp,-48
    80200018:	f406                	sd	ra,40(sp)
    8020001a:	f022                	sd	s0,32(sp)
    8020001c:	ec26                	sd	s1,24(sp)
    8020001e:	e84a                	sd	s2,16(sp)
    80200020:	1800                	addi	s0,sp,48
    80200022:	c219                	beqz	a2,80200028 <printint+0x12>
    80200024:	08054663          	bltz	a0,802000b0 <printint+0x9a>
    80200028:	2501                	sext.w	a0,a0
    8020002a:	4881                	li	a7,0
    8020002c:	fd040693          	addi	a3,s0,-48
    80200030:	4701                	li	a4,0
    80200032:	2581                	sext.w	a1,a1
    80200034:	00009617          	auipc	a2,0x9
    80200038:	34c60613          	addi	a2,a2,844 # 80209380 <digits>
    8020003c:	883a                	mv	a6,a4
    8020003e:	2705                	addiw	a4,a4,1
    80200040:	02b577bb          	remuw	a5,a0,a1
    80200044:	1782                	slli	a5,a5,0x20
    80200046:	9381                	srli	a5,a5,0x20
    80200048:	97b2                	add	a5,a5,a2
    8020004a:	0007c783          	lbu	a5,0(a5)
    8020004e:	00f68023          	sb	a5,0(a3)
    80200052:	0005079b          	sext.w	a5,a0
    80200056:	02b5553b          	divuw	a0,a0,a1
    8020005a:	0685                	addi	a3,a3,1
    8020005c:	feb7f0e3          	bgeu	a5,a1,8020003c <printint+0x26>
    80200060:	00088b63          	beqz	a7,80200076 <printint+0x60>
    80200064:	fe040793          	addi	a5,s0,-32
    80200068:	973e                	add	a4,a4,a5
    8020006a:	02d00793          	li	a5,45
    8020006e:	fef70823          	sb	a5,-16(a4)
    80200072:	0028071b          	addiw	a4,a6,2
    80200076:	02e05763          	blez	a4,802000a4 <printint+0x8e>
    8020007a:	fd040793          	addi	a5,s0,-48
    8020007e:	00e784b3          	add	s1,a5,a4
    80200082:	fff78913          	addi	s2,a5,-1
    80200086:	993a                	add	s2,s2,a4
    80200088:	377d                	addiw	a4,a4,-1
    8020008a:	1702                	slli	a4,a4,0x20
    8020008c:	9301                	srli	a4,a4,0x20
    8020008e:	40e90933          	sub	s2,s2,a4
    80200092:	fff4c503          	lbu	a0,-1(s1)
    80200096:	00007097          	auipc	ra,0x7
    8020009a:	262080e7          	jalr	610(ra) # 802072f8 <consputc>
    8020009e:	14fd                	addi	s1,s1,-1
    802000a0:	ff2499e3          	bne	s1,s2,80200092 <printint+0x7c>
    802000a4:	70a2                	ld	ra,40(sp)
    802000a6:	7402                	ld	s0,32(sp)
    802000a8:	64e2                	ld	s1,24(sp)
    802000aa:	6942                	ld	s2,16(sp)
    802000ac:	6145                	addi	sp,sp,48
    802000ae:	8082                	ret
    802000b0:	40a0053b          	negw	a0,a0
    802000b4:	4885                	li	a7,1
    802000b6:	bf9d                	j	8020002c <printint+0x16>

00000000802000b8 <printstring>:
    802000b8:	1101                	addi	sp,sp,-32
    802000ba:	ec06                	sd	ra,24(sp)
    802000bc:	e822                	sd	s0,16(sp)
    802000be:	e426                	sd	s1,8(sp)
    802000c0:	1000                	addi	s0,sp,32
    802000c2:	84aa                	mv	s1,a0
    802000c4:	00054503          	lbu	a0,0(a0)
    802000c8:	c909                	beqz	a0,802000da <printstring+0x22>
    802000ca:	0485                	addi	s1,s1,1
    802000cc:	00007097          	auipc	ra,0x7
    802000d0:	22c080e7          	jalr	556(ra) # 802072f8 <consputc>
    802000d4:	0004c503          	lbu	a0,0(s1)
    802000d8:	f96d                	bnez	a0,802000ca <printstring+0x12>
    802000da:	60e2                	ld	ra,24(sp)
    802000dc:	6442                	ld	s0,16(sp)
    802000de:	64a2                	ld	s1,8(sp)
    802000e0:	6105                	addi	sp,sp,32
    802000e2:	8082                	ret

00000000802000e4 <backtrace>:
    802000e4:	7179                	addi	sp,sp,-48
    802000e6:	f406                	sd	ra,40(sp)
    802000e8:	f022                	sd	s0,32(sp)
    802000ea:	ec26                	sd	s1,24(sp)
    802000ec:	e84a                	sd	s2,16(sp)
    802000ee:	e44e                	sd	s3,8(sp)
    802000f0:	1800                	addi	s0,sp,48
    802000f2:	8922                	mv	s2,s0
    802000f4:	84ca                	mv	s1,s2
    802000f6:	6785                	lui	a5,0x1
    802000f8:	17fd                	addi	a5,a5,-1
    802000fa:	993e                	add	s2,s2,a5
    802000fc:	77fd                	lui	a5,0xfffff
    802000fe:	00f97933          	and	s2,s2,a5
    80200102:	00009517          	auipc	a0,0x9
    80200106:	efe50513          	addi	a0,a0,-258 # 80209000 <etext>
    8020010a:	00000097          	auipc	ra,0x0
    8020010e:	084080e7          	jalr	132(ra) # 8020018e <printf>
    80200112:	0324f263          	bgeu	s1,s2,80200136 <backtrace+0x52>
    80200116:	00009997          	auipc	s3,0x9
    8020011a:	4d298993          	addi	s3,s3,1234 # 802095e8 <digits+0x268>
    8020011e:	ff84b583          	ld	a1,-8(s1)
    80200122:	15f1                	addi	a1,a1,-4
    80200124:	854e                	mv	a0,s3
    80200126:	00000097          	auipc	ra,0x0
    8020012a:	068080e7          	jalr	104(ra) # 8020018e <printf>
    8020012e:	ff04b483          	ld	s1,-16(s1)
    80200132:	ff24e6e3          	bltu	s1,s2,8020011e <backtrace+0x3a>
    80200136:	70a2                	ld	ra,40(sp)
    80200138:	7402                	ld	s0,32(sp)
    8020013a:	64e2                	ld	s1,24(sp)
    8020013c:	6942                	ld	s2,16(sp)
    8020013e:	69a2                	ld	s3,8(sp)
    80200140:	6145                	addi	sp,sp,48
    80200142:	8082                	ret

0000000080200144 <panic>:
    80200144:	1101                	addi	sp,sp,-32
    80200146:	ec06                	sd	ra,24(sp)
    80200148:	e822                	sd	s0,16(sp)
    8020014a:	e426                	sd	s1,8(sp)
    8020014c:	1000                	addi	s0,sp,32
    8020014e:	84aa                	mv	s1,a0
    80200150:	00009517          	auipc	a0,0x9
    80200154:	ec050513          	addi	a0,a0,-320 # 80209010 <etext+0x10>
    80200158:	00000097          	auipc	ra,0x0
    8020015c:	036080e7          	jalr	54(ra) # 8020018e <printf>
    80200160:	8526                	mv	a0,s1
    80200162:	00000097          	auipc	ra,0x0
    80200166:	02c080e7          	jalr	44(ra) # 8020018e <printf>
    8020016a:	00009517          	auipc	a0,0x9
    8020016e:	f6e50513          	addi	a0,a0,-146 # 802090d8 <etext+0xd8>
    80200172:	00000097          	auipc	ra,0x0
    80200176:	01c080e7          	jalr	28(ra) # 8020018e <printf>
    8020017a:	00000097          	auipc	ra,0x0
    8020017e:	f6a080e7          	jalr	-150(ra) # 802000e4 <backtrace>
    80200182:	4785                	li	a5,1
    80200184:	0021d717          	auipc	a4,0x21d
    80200188:	e8f72e23          	sw	a5,-356(a4) # 8041d020 <panicked>
    8020018c:	a001                	j	8020018c <panic+0x48>

000000008020018e <printf>:
    8020018e:	7131                	addi	sp,sp,-192
    80200190:	fc86                	sd	ra,120(sp)
    80200192:	f8a2                	sd	s0,112(sp)
    80200194:	f4a6                	sd	s1,104(sp)
    80200196:	f0ca                	sd	s2,96(sp)
    80200198:	ecce                	sd	s3,88(sp)
    8020019a:	e8d2                	sd	s4,80(sp)
    8020019c:	e4d6                	sd	s5,72(sp)
    8020019e:	e0da                	sd	s6,64(sp)
    802001a0:	fc5e                	sd	s7,56(sp)
    802001a2:	f862                	sd	s8,48(sp)
    802001a4:	f466                	sd	s9,40(sp)
    802001a6:	f06a                	sd	s10,32(sp)
    802001a8:	ec6e                	sd	s11,24(sp)
    802001aa:	0100                	addi	s0,sp,128
    802001ac:	8a2a                	mv	s4,a0
    802001ae:	e40c                	sd	a1,8(s0)
    802001b0:	e810                	sd	a2,16(s0)
    802001b2:	ec14                	sd	a3,24(s0)
    802001b4:	f018                	sd	a4,32(s0)
    802001b6:	f41c                	sd	a5,40(s0)
    802001b8:	03043823          	sd	a6,48(s0)
    802001bc:	03143c23          	sd	a7,56(s0)
    802001c0:	0021dd97          	auipc	s11,0x21d
    802001c4:	e58dad83          	lw	s11,-424(s11) # 8041d018 <pr+0x18>
    802001c8:	020d9b63          	bnez	s11,802001fe <printf+0x70>
    802001cc:	040a0263          	beqz	s4,80200210 <printf+0x82>
    802001d0:	00840793          	addi	a5,s0,8
    802001d4:	f8f43423          	sd	a5,-120(s0)
    802001d8:	000a4503          	lbu	a0,0(s4)
    802001dc:	16050263          	beqz	a0,80200340 <printf+0x1b2>
    802001e0:	4481                	li	s1,0
    802001e2:	02500a93          	li	s5,37
    802001e6:	07000b13          	li	s6,112
    802001ea:	4d41                	li	s10,16
    802001ec:	00009b97          	auipc	s7,0x9
    802001f0:	194b8b93          	addi	s7,s7,404 # 80209380 <digits>
    802001f4:	07300c93          	li	s9,115
    802001f8:	06400c13          	li	s8,100
    802001fc:	a82d                	j	80200236 <printf+0xa8>
    802001fe:	0021d517          	auipc	a0,0x21d
    80200202:	e0250513          	addi	a0,a0,-510 # 8041d000 <pr>
    80200206:	00000097          	auipc	ra,0x0
    8020020a:	4c0080e7          	jalr	1216(ra) # 802006c6 <acquire>
    8020020e:	bf7d                	j	802001cc <printf+0x3e>
    80200210:	00009517          	auipc	a0,0x9
    80200214:	e1050513          	addi	a0,a0,-496 # 80209020 <etext+0x20>
    80200218:	00000097          	auipc	ra,0x0
    8020021c:	f2c080e7          	jalr	-212(ra) # 80200144 <panic>
    80200220:	00007097          	auipc	ra,0x7
    80200224:	0d8080e7          	jalr	216(ra) # 802072f8 <consputc>
    80200228:	2485                	addiw	s1,s1,1
    8020022a:	009a07b3          	add	a5,s4,s1
    8020022e:	0007c503          	lbu	a0,0(a5) # fffffffffffff000 <kernel_end+0xffffffff7fbcf000>
    80200232:	10050763          	beqz	a0,80200340 <printf+0x1b2>
    80200236:	ff5515e3          	bne	a0,s5,80200220 <printf+0x92>
    8020023a:	2485                	addiw	s1,s1,1
    8020023c:	009a07b3          	add	a5,s4,s1
    80200240:	0007c783          	lbu	a5,0(a5)
    80200244:	0007891b          	sext.w	s2,a5
    80200248:	cfe5                	beqz	a5,80200340 <printf+0x1b2>
    8020024a:	05678a63          	beq	a5,s6,8020029e <printf+0x110>
    8020024e:	02fb7663          	bgeu	s6,a5,8020027a <printf+0xec>
    80200252:	09978963          	beq	a5,s9,802002e4 <printf+0x156>
    80200256:	07800713          	li	a4,120
    8020025a:	0ce79863          	bne	a5,a4,8020032a <printf+0x19c>
    8020025e:	f8843783          	ld	a5,-120(s0)
    80200262:	00878713          	addi	a4,a5,8
    80200266:	f8e43423          	sd	a4,-120(s0)
    8020026a:	4605                	li	a2,1
    8020026c:	85ea                	mv	a1,s10
    8020026e:	4388                	lw	a0,0(a5)
    80200270:	00000097          	auipc	ra,0x0
    80200274:	da6080e7          	jalr	-602(ra) # 80200016 <printint>
    80200278:	bf45                	j	80200228 <printf+0x9a>
    8020027a:	0b578263          	beq	a5,s5,8020031e <printf+0x190>
    8020027e:	0b879663          	bne	a5,s8,8020032a <printf+0x19c>
    80200282:	f8843783          	ld	a5,-120(s0)
    80200286:	00878713          	addi	a4,a5,8
    8020028a:	f8e43423          	sd	a4,-120(s0)
    8020028e:	4605                	li	a2,1
    80200290:	45a9                	li	a1,10
    80200292:	4388                	lw	a0,0(a5)
    80200294:	00000097          	auipc	ra,0x0
    80200298:	d82080e7          	jalr	-638(ra) # 80200016 <printint>
    8020029c:	b771                	j	80200228 <printf+0x9a>
    8020029e:	f8843783          	ld	a5,-120(s0)
    802002a2:	00878713          	addi	a4,a5,8
    802002a6:	f8e43423          	sd	a4,-120(s0)
    802002aa:	0007b983          	ld	s3,0(a5)
    802002ae:	03000513          	li	a0,48
    802002b2:	00007097          	auipc	ra,0x7
    802002b6:	046080e7          	jalr	70(ra) # 802072f8 <consputc>
    802002ba:	07800513          	li	a0,120
    802002be:	00007097          	auipc	ra,0x7
    802002c2:	03a080e7          	jalr	58(ra) # 802072f8 <consputc>
    802002c6:	896a                	mv	s2,s10
    802002c8:	03c9d793          	srli	a5,s3,0x3c
    802002cc:	97de                	add	a5,a5,s7
    802002ce:	0007c503          	lbu	a0,0(a5)
    802002d2:	00007097          	auipc	ra,0x7
    802002d6:	026080e7          	jalr	38(ra) # 802072f8 <consputc>
    802002da:	0992                	slli	s3,s3,0x4
    802002dc:	397d                	addiw	s2,s2,-1
    802002de:	fe0915e3          	bnez	s2,802002c8 <printf+0x13a>
    802002e2:	b799                	j	80200228 <printf+0x9a>
    802002e4:	f8843783          	ld	a5,-120(s0)
    802002e8:	00878713          	addi	a4,a5,8
    802002ec:	f8e43423          	sd	a4,-120(s0)
    802002f0:	0007b903          	ld	s2,0(a5)
    802002f4:	00090e63          	beqz	s2,80200310 <printf+0x182>
    802002f8:	00094503          	lbu	a0,0(s2)
    802002fc:	d515                	beqz	a0,80200228 <printf+0x9a>
    802002fe:	00007097          	auipc	ra,0x7
    80200302:	ffa080e7          	jalr	-6(ra) # 802072f8 <consputc>
    80200306:	0905                	addi	s2,s2,1
    80200308:	00094503          	lbu	a0,0(s2)
    8020030c:	f96d                	bnez	a0,802002fe <printf+0x170>
    8020030e:	bf29                	j	80200228 <printf+0x9a>
    80200310:	00009917          	auipc	s2,0x9
    80200314:	d0890913          	addi	s2,s2,-760 # 80209018 <etext+0x18>
    80200318:	02800513          	li	a0,40
    8020031c:	b7cd                	j	802002fe <printf+0x170>
    8020031e:	8556                	mv	a0,s5
    80200320:	00007097          	auipc	ra,0x7
    80200324:	fd8080e7          	jalr	-40(ra) # 802072f8 <consputc>
    80200328:	b701                	j	80200228 <printf+0x9a>
    8020032a:	8556                	mv	a0,s5
    8020032c:	00007097          	auipc	ra,0x7
    80200330:	fcc080e7          	jalr	-52(ra) # 802072f8 <consputc>
    80200334:	854a                	mv	a0,s2
    80200336:	00007097          	auipc	ra,0x7
    8020033a:	fc2080e7          	jalr	-62(ra) # 802072f8 <consputc>
    8020033e:	b5ed                	j	80200228 <printf+0x9a>
    80200340:	020d9163          	bnez	s11,80200362 <printf+0x1d4>
    80200344:	70e6                	ld	ra,120(sp)
    80200346:	7446                	ld	s0,112(sp)
    80200348:	74a6                	ld	s1,104(sp)
    8020034a:	7906                	ld	s2,96(sp)
    8020034c:	69e6                	ld	s3,88(sp)
    8020034e:	6a46                	ld	s4,80(sp)
    80200350:	6aa6                	ld	s5,72(sp)
    80200352:	6b06                	ld	s6,64(sp)
    80200354:	7be2                	ld	s7,56(sp)
    80200356:	7c42                	ld	s8,48(sp)
    80200358:	7ca2                	ld	s9,40(sp)
    8020035a:	7d02                	ld	s10,32(sp)
    8020035c:	6de2                	ld	s11,24(sp)
    8020035e:	6129                	addi	sp,sp,192
    80200360:	8082                	ret
    80200362:	0021d517          	auipc	a0,0x21d
    80200366:	c9e50513          	addi	a0,a0,-866 # 8041d000 <pr>
    8020036a:	00000097          	auipc	ra,0x0
    8020036e:	3b0080e7          	jalr	944(ra) # 8020071a <release>
    80200372:	bfc9                	j	80200344 <printf+0x1b6>

0000000080200374 <printfinit>:
    80200374:	1101                	addi	sp,sp,-32
    80200376:	ec06                	sd	ra,24(sp)
    80200378:	e822                	sd	s0,16(sp)
    8020037a:	e426                	sd	s1,8(sp)
    8020037c:	1000                	addi	s0,sp,32
    8020037e:	0021d497          	auipc	s1,0x21d
    80200382:	c8248493          	addi	s1,s1,-894 # 8041d000 <pr>
    80200386:	00009597          	auipc	a1,0x9
    8020038a:	caa58593          	addi	a1,a1,-854 # 80209030 <etext+0x30>
    8020038e:	8526                	mv	a0,s1
    80200390:	00000097          	auipc	ra,0x0
    80200394:	2f2080e7          	jalr	754(ra) # 80200682 <initlock>
    80200398:	4785                	li	a5,1
    8020039a:	cc9c                	sw	a5,24(s1)
    8020039c:	60e2                	ld	ra,24(sp)
    8020039e:	6442                	ld	s0,16(sp)
    802003a0:	64a2                	ld	s1,8(sp)
    802003a2:	6105                	addi	sp,sp,32
    802003a4:	8082                	ret

00000000802003a6 <print_logo>:
    802003a6:	1141                	addi	sp,sp,-16
    802003a8:	e406                	sd	ra,8(sp)
    802003aa:	e022                	sd	s0,0(sp)
    802003ac:	0800                	addi	s0,sp,16
    802003ae:	00009517          	auipc	a0,0x9
    802003b2:	c8a50513          	addi	a0,a0,-886 # 80209038 <etext+0x38>
    802003b6:	00000097          	auipc	ra,0x0
    802003ba:	dd8080e7          	jalr	-552(ra) # 8020018e <printf>
    802003be:	00009517          	auipc	a0,0x9
    802003c2:	cca50513          	addi	a0,a0,-822 # 80209088 <etext+0x88>
    802003c6:	00000097          	auipc	ra,0x0
    802003ca:	dc8080e7          	jalr	-568(ra) # 8020018e <printf>
    802003ce:	00009517          	auipc	a0,0x9
    802003d2:	d1250513          	addi	a0,a0,-750 # 802090e0 <etext+0xe0>
    802003d6:	00000097          	auipc	ra,0x0
    802003da:	db8080e7          	jalr	-584(ra) # 8020018e <printf>
    802003de:	00009517          	auipc	a0,0x9
    802003e2:	d6250513          	addi	a0,a0,-670 # 80209140 <etext+0x140>
    802003e6:	00000097          	auipc	ra,0x0
    802003ea:	da8080e7          	jalr	-600(ra) # 8020018e <printf>
    802003ee:	00009517          	auipc	a0,0x9
    802003f2:	db250513          	addi	a0,a0,-590 # 802091a0 <etext+0x1a0>
    802003f6:	00000097          	auipc	ra,0x0
    802003fa:	d98080e7          	jalr	-616(ra) # 8020018e <printf>
    802003fe:	00009517          	auipc	a0,0x9
    80200402:	e0250513          	addi	a0,a0,-510 # 80209200 <etext+0x200>
    80200406:	00000097          	auipc	ra,0x0
    8020040a:	d88080e7          	jalr	-632(ra) # 8020018e <printf>
    8020040e:	00009517          	auipc	a0,0x9
    80200412:	e5250513          	addi	a0,a0,-430 # 80209260 <etext+0x260>
    80200416:	00000097          	auipc	ra,0x0
    8020041a:	d78080e7          	jalr	-648(ra) # 8020018e <printf>
    8020041e:	00009517          	auipc	a0,0x9
    80200422:	ea250513          	addi	a0,a0,-350 # 802092c0 <etext+0x2c0>
    80200426:	00000097          	auipc	ra,0x0
    8020042a:	d68080e7          	jalr	-664(ra) # 8020018e <printf>
    8020042e:	00009517          	auipc	a0,0x9
    80200432:	ef250513          	addi	a0,a0,-270 # 80209320 <etext+0x320>
    80200436:	00000097          	auipc	ra,0x0
    8020043a:	d58080e7          	jalr	-680(ra) # 8020018e <printf>
    8020043e:	60a2                	ld	ra,8(sp)
    80200440:	6402                	ld	s0,0(sp)
    80200442:	0141                	addi	sp,sp,16
    80200444:	8082                	ret

0000000080200446 <kfree>:
    80200446:	1101                	addi	sp,sp,-32
    80200448:	ec06                	sd	ra,24(sp)
    8020044a:	e822                	sd	s0,16(sp)
    8020044c:	e426                	sd	s1,8(sp)
    8020044e:	e04a                	sd	s2,0(sp)
    80200450:	1000                	addi	s0,sp,32
    80200452:	03451793          	slli	a5,a0,0x34
    80200456:	e3a5                	bnez	a5,802004b6 <kfree+0x70>
    80200458:	84aa                	mv	s1,a0
    8020045a:	00230797          	auipc	a5,0x230
    8020045e:	ba678793          	addi	a5,a5,-1114 # 80430000 <kernel_end>
    80200462:	04f56a63          	bltu	a0,a5,802004b6 <kfree+0x70>
    80200466:	47c5                	li	a5,17
    80200468:	07ee                	slli	a5,a5,0x1b
    8020046a:	04f57663          	bgeu	a0,a5,802004b6 <kfree+0x70>
    8020046e:	6605                	lui	a2,0x1
    80200470:	4585                	li	a1,1
    80200472:	00000097          	auipc	ra,0x0
    80200476:	2f0080e7          	jalr	752(ra) # 80200762 <memset>
    8020047a:	0021d917          	auipc	s2,0x21d
    8020047e:	bae90913          	addi	s2,s2,-1106 # 8041d028 <kmem>
    80200482:	854a                	mv	a0,s2
    80200484:	00000097          	auipc	ra,0x0
    80200488:	242080e7          	jalr	578(ra) # 802006c6 <acquire>
    8020048c:	01893783          	ld	a5,24(s2)
    80200490:	e09c                	sd	a5,0(s1)
    80200492:	00993c23          	sd	s1,24(s2)
    80200496:	02093783          	ld	a5,32(s2)
    8020049a:	0785                	addi	a5,a5,1
    8020049c:	02f93023          	sd	a5,32(s2)
    802004a0:	854a                	mv	a0,s2
    802004a2:	00000097          	auipc	ra,0x0
    802004a6:	278080e7          	jalr	632(ra) # 8020071a <release>
    802004aa:	60e2                	ld	ra,24(sp)
    802004ac:	6442                	ld	s0,16(sp)
    802004ae:	64a2                	ld	s1,8(sp)
    802004b0:	6902                	ld	s2,0(sp)
    802004b2:	6105                	addi	sp,sp,32
    802004b4:	8082                	ret
    802004b6:	00009517          	auipc	a0,0x9
    802004ba:	ee250513          	addi	a0,a0,-286 # 80209398 <digits+0x18>
    802004be:	00000097          	auipc	ra,0x0
    802004c2:	c86080e7          	jalr	-890(ra) # 80200144 <panic>

00000000802004c6 <freerange>:
    802004c6:	7179                	addi	sp,sp,-48
    802004c8:	f406                	sd	ra,40(sp)
    802004ca:	f022                	sd	s0,32(sp)
    802004cc:	ec26                	sd	s1,24(sp)
    802004ce:	e84a                	sd	s2,16(sp)
    802004d0:	e44e                	sd	s3,8(sp)
    802004d2:	e052                	sd	s4,0(sp)
    802004d4:	1800                	addi	s0,sp,48
    802004d6:	6785                	lui	a5,0x1
    802004d8:	fff78493          	addi	s1,a5,-1 # fff <_entry-0x801ff001>
    802004dc:	94aa                	add	s1,s1,a0
    802004de:	757d                	lui	a0,0xfffff
    802004e0:	8ce9                	and	s1,s1,a0
    802004e2:	94be                	add	s1,s1,a5
    802004e4:	0095ee63          	bltu	a1,s1,80200500 <freerange+0x3a>
    802004e8:	892e                	mv	s2,a1
    802004ea:	7a7d                	lui	s4,0xfffff
    802004ec:	6985                	lui	s3,0x1
    802004ee:	01448533          	add	a0,s1,s4
    802004f2:	00000097          	auipc	ra,0x0
    802004f6:	f54080e7          	jalr	-172(ra) # 80200446 <kfree>
    802004fa:	94ce                	add	s1,s1,s3
    802004fc:	fe9979e3          	bgeu	s2,s1,802004ee <freerange+0x28>
    80200500:	70a2                	ld	ra,40(sp)
    80200502:	7402                	ld	s0,32(sp)
    80200504:	64e2                	ld	s1,24(sp)
    80200506:	6942                	ld	s2,16(sp)
    80200508:	69a2                	ld	s3,8(sp)
    8020050a:	6a02                	ld	s4,0(sp)
    8020050c:	6145                	addi	sp,sp,48
    8020050e:	8082                	ret

0000000080200510 <kinit>:
    80200510:	1101                	addi	sp,sp,-32
    80200512:	ec06                	sd	ra,24(sp)
    80200514:	e822                	sd	s0,16(sp)
    80200516:	e426                	sd	s1,8(sp)
    80200518:	1000                	addi	s0,sp,32
    8020051a:	0021d497          	auipc	s1,0x21d
    8020051e:	b0e48493          	addi	s1,s1,-1266 # 8041d028 <kmem>
    80200522:	00009597          	auipc	a1,0x9
    80200526:	e7e58593          	addi	a1,a1,-386 # 802093a0 <digits+0x20>
    8020052a:	8526                	mv	a0,s1
    8020052c:	00000097          	auipc	ra,0x0
    80200530:	156080e7          	jalr	342(ra) # 80200682 <initlock>
    80200534:	0004bc23          	sd	zero,24(s1)
    80200538:	0204b023          	sd	zero,32(s1)
    8020053c:	45c5                	li	a1,17
    8020053e:	05ee                	slli	a1,a1,0x1b
    80200540:	00230517          	auipc	a0,0x230
    80200544:	ac050513          	addi	a0,a0,-1344 # 80430000 <kernel_end>
    80200548:	00000097          	auipc	ra,0x0
    8020054c:	f7e080e7          	jalr	-130(ra) # 802004c6 <freerange>
    80200550:	60e2                	ld	ra,24(sp)
    80200552:	6442                	ld	s0,16(sp)
    80200554:	64a2                	ld	s1,8(sp)
    80200556:	6105                	addi	sp,sp,32
    80200558:	8082                	ret

000000008020055a <kalloc>:
    8020055a:	1101                	addi	sp,sp,-32
    8020055c:	ec06                	sd	ra,24(sp)
    8020055e:	e822                	sd	s0,16(sp)
    80200560:	e426                	sd	s1,8(sp)
    80200562:	1000                	addi	s0,sp,32
    80200564:	0021d497          	auipc	s1,0x21d
    80200568:	ac448493          	addi	s1,s1,-1340 # 8041d028 <kmem>
    8020056c:	8526                	mv	a0,s1
    8020056e:	00000097          	auipc	ra,0x0
    80200572:	158080e7          	jalr	344(ra) # 802006c6 <acquire>
    80200576:	6c84                	ld	s1,24(s1)
    80200578:	c89d                	beqz	s1,802005ae <kalloc+0x54>
    8020057a:	609c                	ld	a5,0(s1)
    8020057c:	0021d517          	auipc	a0,0x21d
    80200580:	aac50513          	addi	a0,a0,-1364 # 8041d028 <kmem>
    80200584:	ed1c                	sd	a5,24(a0)
    80200586:	711c                	ld	a5,32(a0)
    80200588:	17fd                	addi	a5,a5,-1
    8020058a:	f11c                	sd	a5,32(a0)
    8020058c:	00000097          	auipc	ra,0x0
    80200590:	18e080e7          	jalr	398(ra) # 8020071a <release>
    80200594:	6605                	lui	a2,0x1
    80200596:	4595                	li	a1,5
    80200598:	8526                	mv	a0,s1
    8020059a:	00000097          	auipc	ra,0x0
    8020059e:	1c8080e7          	jalr	456(ra) # 80200762 <memset>
    802005a2:	8526                	mv	a0,s1
    802005a4:	60e2                	ld	ra,24(sp)
    802005a6:	6442                	ld	s0,16(sp)
    802005a8:	64a2                	ld	s1,8(sp)
    802005aa:	6105                	addi	sp,sp,32
    802005ac:	8082                	ret
    802005ae:	0021d517          	auipc	a0,0x21d
    802005b2:	a7a50513          	addi	a0,a0,-1414 # 8041d028 <kmem>
    802005b6:	00000097          	auipc	ra,0x0
    802005ba:	164080e7          	jalr	356(ra) # 8020071a <release>
    802005be:	b7d5                	j	802005a2 <kalloc+0x48>

00000000802005c0 <freemem_amount>:
    802005c0:	1141                	addi	sp,sp,-16
    802005c2:	e422                	sd	s0,8(sp)
    802005c4:	0800                	addi	s0,sp,16
    802005c6:	0021d517          	auipc	a0,0x21d
    802005ca:	a8253503          	ld	a0,-1406(a0) # 8041d048 <kmem+0x20>
    802005ce:	0532                	slli	a0,a0,0xc
    802005d0:	6422                	ld	s0,8(sp)
    802005d2:	0141                	addi	sp,sp,16
    802005d4:	8082                	ret

00000000802005d6 <push_off>:
    802005d6:	1101                	addi	sp,sp,-32
    802005d8:	ec06                	sd	ra,24(sp)
    802005da:	e822                	sd	s0,16(sp)
    802005dc:	e426                	sd	s1,8(sp)
    802005de:	1000                	addi	s0,sp,32
    802005e0:	100024f3          	csrr	s1,sstatus
    802005e4:	100027f3          	csrr	a5,sstatus
    802005e8:	9bf5                	andi	a5,a5,-3
    802005ea:	10079073          	csrw	sstatus,a5
    802005ee:	00001097          	auipc	ra,0x1
    802005f2:	52e080e7          	jalr	1326(ra) # 80201b1c <mycpu>
    802005f6:	5d3c                	lw	a5,120(a0)
    802005f8:	cf89                	beqz	a5,80200612 <push_off+0x3c>
    802005fa:	00001097          	auipc	ra,0x1
    802005fe:	522080e7          	jalr	1314(ra) # 80201b1c <mycpu>
    80200602:	5d3c                	lw	a5,120(a0)
    80200604:	2785                	addiw	a5,a5,1
    80200606:	dd3c                	sw	a5,120(a0)
    80200608:	60e2                	ld	ra,24(sp)
    8020060a:	6442                	ld	s0,16(sp)
    8020060c:	64a2                	ld	s1,8(sp)
    8020060e:	6105                	addi	sp,sp,32
    80200610:	8082                	ret
    80200612:	00001097          	auipc	ra,0x1
    80200616:	50a080e7          	jalr	1290(ra) # 80201b1c <mycpu>
    8020061a:	8085                	srli	s1,s1,0x1
    8020061c:	8885                	andi	s1,s1,1
    8020061e:	dd64                	sw	s1,124(a0)
    80200620:	bfe9                	j	802005fa <push_off+0x24>

0000000080200622 <pop_off>:
    80200622:	1141                	addi	sp,sp,-16
    80200624:	e406                	sd	ra,8(sp)
    80200626:	e022                	sd	s0,0(sp)
    80200628:	0800                	addi	s0,sp,16
    8020062a:	00001097          	auipc	ra,0x1
    8020062e:	4f2080e7          	jalr	1266(ra) # 80201b1c <mycpu>
    80200632:	100027f3          	csrr	a5,sstatus
    80200636:	8b89                	andi	a5,a5,2
    80200638:	e78d                	bnez	a5,80200662 <pop_off+0x40>
    8020063a:	5d3c                	lw	a5,120(a0)
    8020063c:	02f05b63          	blez	a5,80200672 <pop_off+0x50>
    80200640:	37fd                	addiw	a5,a5,-1
    80200642:	0007871b          	sext.w	a4,a5
    80200646:	dd3c                	sw	a5,120(a0)
    80200648:	eb09                	bnez	a4,8020065a <pop_off+0x38>
    8020064a:	5d7c                	lw	a5,124(a0)
    8020064c:	c799                	beqz	a5,8020065a <pop_off+0x38>
    8020064e:	100027f3          	csrr	a5,sstatus
    80200652:	0027e793          	ori	a5,a5,2
    80200656:	10079073          	csrw	sstatus,a5
    8020065a:	60a2                	ld	ra,8(sp)
    8020065c:	6402                	ld	s0,0(sp)
    8020065e:	0141                	addi	sp,sp,16
    80200660:	8082                	ret
    80200662:	00009517          	auipc	a0,0x9
    80200666:	d4650513          	addi	a0,a0,-698 # 802093a8 <digits+0x28>
    8020066a:	00000097          	auipc	ra,0x0
    8020066e:	ada080e7          	jalr	-1318(ra) # 80200144 <panic>
    80200672:	00009517          	auipc	a0,0x9
    80200676:	d4e50513          	addi	a0,a0,-690 # 802093c0 <digits+0x40>
    8020067a:	00000097          	auipc	ra,0x0
    8020067e:	aca080e7          	jalr	-1334(ra) # 80200144 <panic>

0000000080200682 <initlock>:
    80200682:	1141                	addi	sp,sp,-16
    80200684:	e422                	sd	s0,8(sp)
    80200686:	0800                	addi	s0,sp,16
    80200688:	e50c                	sd	a1,8(a0)
    8020068a:	00052023          	sw	zero,0(a0)
    8020068e:	00053823          	sd	zero,16(a0)
    80200692:	6422                	ld	s0,8(sp)
    80200694:	0141                	addi	sp,sp,16
    80200696:	8082                	ret

0000000080200698 <holding>:
    80200698:	411c                	lw	a5,0(a0)
    8020069a:	e399                	bnez	a5,802006a0 <holding+0x8>
    8020069c:	4501                	li	a0,0
    8020069e:	8082                	ret
    802006a0:	1101                	addi	sp,sp,-32
    802006a2:	ec06                	sd	ra,24(sp)
    802006a4:	e822                	sd	s0,16(sp)
    802006a6:	e426                	sd	s1,8(sp)
    802006a8:	1000                	addi	s0,sp,32
    802006aa:	6904                	ld	s1,16(a0)
    802006ac:	00001097          	auipc	ra,0x1
    802006b0:	470080e7          	jalr	1136(ra) # 80201b1c <mycpu>
    802006b4:	40a48533          	sub	a0,s1,a0
    802006b8:	00153513          	seqz	a0,a0
    802006bc:	60e2                	ld	ra,24(sp)
    802006be:	6442                	ld	s0,16(sp)
    802006c0:	64a2                	ld	s1,8(sp)
    802006c2:	6105                	addi	sp,sp,32
    802006c4:	8082                	ret

00000000802006c6 <acquire>:
    802006c6:	1101                	addi	sp,sp,-32
    802006c8:	ec06                	sd	ra,24(sp)
    802006ca:	e822                	sd	s0,16(sp)
    802006cc:	e426                	sd	s1,8(sp)
    802006ce:	1000                	addi	s0,sp,32
    802006d0:	84aa                	mv	s1,a0
    802006d2:	00000097          	auipc	ra,0x0
    802006d6:	f04080e7          	jalr	-252(ra) # 802005d6 <push_off>
    802006da:	8526                	mv	a0,s1
    802006dc:	00000097          	auipc	ra,0x0
    802006e0:	fbc080e7          	jalr	-68(ra) # 80200698 <holding>
    802006e4:	4705                	li	a4,1
    802006e6:	e115                	bnez	a0,8020070a <acquire+0x44>
    802006e8:	87ba                	mv	a5,a4
    802006ea:	0cf4a7af          	amoswap.w.aq	a5,a5,(s1)
    802006ee:	2781                	sext.w	a5,a5
    802006f0:	ffe5                	bnez	a5,802006e8 <acquire+0x22>
    802006f2:	0ff0000f          	fence
    802006f6:	00001097          	auipc	ra,0x1
    802006fa:	426080e7          	jalr	1062(ra) # 80201b1c <mycpu>
    802006fe:	e888                	sd	a0,16(s1)
    80200700:	60e2                	ld	ra,24(sp)
    80200702:	6442                	ld	s0,16(sp)
    80200704:	64a2                	ld	s1,8(sp)
    80200706:	6105                	addi	sp,sp,32
    80200708:	8082                	ret
    8020070a:	00009517          	auipc	a0,0x9
    8020070e:	cbe50513          	addi	a0,a0,-834 # 802093c8 <digits+0x48>
    80200712:	00000097          	auipc	ra,0x0
    80200716:	a32080e7          	jalr	-1486(ra) # 80200144 <panic>

000000008020071a <release>:
    8020071a:	1101                	addi	sp,sp,-32
    8020071c:	ec06                	sd	ra,24(sp)
    8020071e:	e822                	sd	s0,16(sp)
    80200720:	e426                	sd	s1,8(sp)
    80200722:	1000                	addi	s0,sp,32
    80200724:	84aa                	mv	s1,a0
    80200726:	00000097          	auipc	ra,0x0
    8020072a:	f72080e7          	jalr	-142(ra) # 80200698 <holding>
    8020072e:	c115                	beqz	a0,80200752 <release+0x38>
    80200730:	0004b823          	sd	zero,16(s1)
    80200734:	0ff0000f          	fence
    80200738:	0f50000f          	fence	iorw,ow
    8020073c:	0804a02f          	amoswap.w	zero,zero,(s1)
    80200740:	00000097          	auipc	ra,0x0
    80200744:	ee2080e7          	jalr	-286(ra) # 80200622 <pop_off>
    80200748:	60e2                	ld	ra,24(sp)
    8020074a:	6442                	ld	s0,16(sp)
    8020074c:	64a2                	ld	s1,8(sp)
    8020074e:	6105                	addi	sp,sp,32
    80200750:	8082                	ret
    80200752:	00009517          	auipc	a0,0x9
    80200756:	c7e50513          	addi	a0,a0,-898 # 802093d0 <digits+0x50>
    8020075a:	00000097          	auipc	ra,0x0
    8020075e:	9ea080e7          	jalr	-1558(ra) # 80200144 <panic>

0000000080200762 <memset>:
    80200762:	1141                	addi	sp,sp,-16
    80200764:	e422                	sd	s0,8(sp)
    80200766:	0800                	addi	s0,sp,16
    80200768:	ce09                	beqz	a2,80200782 <memset+0x20>
    8020076a:	87aa                	mv	a5,a0
    8020076c:	fff6071b          	addiw	a4,a2,-1
    80200770:	1702                	slli	a4,a4,0x20
    80200772:	9301                	srli	a4,a4,0x20
    80200774:	0705                	addi	a4,a4,1
    80200776:	972a                	add	a4,a4,a0
    80200778:	00b78023          	sb	a1,0(a5)
    8020077c:	0785                	addi	a5,a5,1
    8020077e:	fee79de3          	bne	a5,a4,80200778 <memset+0x16>
    80200782:	6422                	ld	s0,8(sp)
    80200784:	0141                	addi	sp,sp,16
    80200786:	8082                	ret

0000000080200788 <memcmp>:
    80200788:	1141                	addi	sp,sp,-16
    8020078a:	e422                	sd	s0,8(sp)
    8020078c:	0800                	addi	s0,sp,16
    8020078e:	ca05                	beqz	a2,802007be <memcmp+0x36>
    80200790:	fff6069b          	addiw	a3,a2,-1
    80200794:	1682                	slli	a3,a3,0x20
    80200796:	9281                	srli	a3,a3,0x20
    80200798:	0685                	addi	a3,a3,1
    8020079a:	96aa                	add	a3,a3,a0
    8020079c:	00054783          	lbu	a5,0(a0)
    802007a0:	0005c703          	lbu	a4,0(a1)
    802007a4:	00e79863          	bne	a5,a4,802007b4 <memcmp+0x2c>
    802007a8:	0505                	addi	a0,a0,1
    802007aa:	0585                	addi	a1,a1,1
    802007ac:	fed518e3          	bne	a0,a3,8020079c <memcmp+0x14>
    802007b0:	4501                	li	a0,0
    802007b2:	a019                	j	802007b8 <memcmp+0x30>
    802007b4:	40e7853b          	subw	a0,a5,a4
    802007b8:	6422                	ld	s0,8(sp)
    802007ba:	0141                	addi	sp,sp,16
    802007bc:	8082                	ret
    802007be:	4501                	li	a0,0
    802007c0:	bfe5                	j	802007b8 <memcmp+0x30>

00000000802007c2 <memmove>:
    802007c2:	1141                	addi	sp,sp,-16
    802007c4:	e422                	sd	s0,8(sp)
    802007c6:	0800                	addi	s0,sp,16
    802007c8:	00a5f963          	bgeu	a1,a0,802007da <memmove+0x18>
    802007cc:	02061713          	slli	a4,a2,0x20
    802007d0:	9301                	srli	a4,a4,0x20
    802007d2:	00e587b3          	add	a5,a1,a4
    802007d6:	02f56563          	bltu	a0,a5,80200800 <memmove+0x3e>
    802007da:	fff6069b          	addiw	a3,a2,-1
    802007de:	ce11                	beqz	a2,802007fa <memmove+0x38>
    802007e0:	1682                	slli	a3,a3,0x20
    802007e2:	9281                	srli	a3,a3,0x20
    802007e4:	0685                	addi	a3,a3,1
    802007e6:	96ae                	add	a3,a3,a1
    802007e8:	87aa                	mv	a5,a0
    802007ea:	0585                	addi	a1,a1,1
    802007ec:	0785                	addi	a5,a5,1
    802007ee:	fff5c703          	lbu	a4,-1(a1)
    802007f2:	fee78fa3          	sb	a4,-1(a5)
    802007f6:	fed59ae3          	bne	a1,a3,802007ea <memmove+0x28>
    802007fa:	6422                	ld	s0,8(sp)
    802007fc:	0141                	addi	sp,sp,16
    802007fe:	8082                	ret
    80200800:	972a                	add	a4,a4,a0
    80200802:	fff6069b          	addiw	a3,a2,-1
    80200806:	da75                	beqz	a2,802007fa <memmove+0x38>
    80200808:	02069613          	slli	a2,a3,0x20
    8020080c:	9201                	srli	a2,a2,0x20
    8020080e:	fff64613          	not	a2,a2
    80200812:	963e                	add	a2,a2,a5
    80200814:	17fd                	addi	a5,a5,-1
    80200816:	177d                	addi	a4,a4,-1
    80200818:	0007c683          	lbu	a3,0(a5)
    8020081c:	00d70023          	sb	a3,0(a4)
    80200820:	fec79ae3          	bne	a5,a2,80200814 <memmove+0x52>
    80200824:	bfd9                	j	802007fa <memmove+0x38>

0000000080200826 <memcpy>:
    80200826:	1141                	addi	sp,sp,-16
    80200828:	e406                	sd	ra,8(sp)
    8020082a:	e022                	sd	s0,0(sp)
    8020082c:	0800                	addi	s0,sp,16
    8020082e:	00000097          	auipc	ra,0x0
    80200832:	f94080e7          	jalr	-108(ra) # 802007c2 <memmove>
    80200836:	60a2                	ld	ra,8(sp)
    80200838:	6402                	ld	s0,0(sp)
    8020083a:	0141                	addi	sp,sp,16
    8020083c:	8082                	ret

000000008020083e <strncmp>:
    8020083e:	1141                	addi	sp,sp,-16
    80200840:	e422                	sd	s0,8(sp)
    80200842:	0800                	addi	s0,sp,16
    80200844:	ce11                	beqz	a2,80200860 <strncmp+0x22>
    80200846:	00054783          	lbu	a5,0(a0)
    8020084a:	cf89                	beqz	a5,80200864 <strncmp+0x26>
    8020084c:	0005c703          	lbu	a4,0(a1)
    80200850:	00f71a63          	bne	a4,a5,80200864 <strncmp+0x26>
    80200854:	367d                	addiw	a2,a2,-1
    80200856:	0505                	addi	a0,a0,1
    80200858:	0585                	addi	a1,a1,1
    8020085a:	f675                	bnez	a2,80200846 <strncmp+0x8>
    8020085c:	4501                	li	a0,0
    8020085e:	a809                	j	80200870 <strncmp+0x32>
    80200860:	4501                	li	a0,0
    80200862:	a039                	j	80200870 <strncmp+0x32>
    80200864:	ca09                	beqz	a2,80200876 <strncmp+0x38>
    80200866:	00054503          	lbu	a0,0(a0)
    8020086a:	0005c783          	lbu	a5,0(a1)
    8020086e:	9d1d                	subw	a0,a0,a5
    80200870:	6422                	ld	s0,8(sp)
    80200872:	0141                	addi	sp,sp,16
    80200874:	8082                	ret
    80200876:	4501                	li	a0,0
    80200878:	bfe5                	j	80200870 <strncmp+0x32>

000000008020087a <strncpy>:
    8020087a:	1141                	addi	sp,sp,-16
    8020087c:	e422                	sd	s0,8(sp)
    8020087e:	0800                	addi	s0,sp,16
    80200880:	872a                	mv	a4,a0
    80200882:	8832                	mv	a6,a2
    80200884:	367d                	addiw	a2,a2,-1
    80200886:	01005963          	blez	a6,80200898 <strncpy+0x1e>
    8020088a:	0705                	addi	a4,a4,1
    8020088c:	0005c783          	lbu	a5,0(a1)
    80200890:	fef70fa3          	sb	a5,-1(a4)
    80200894:	0585                	addi	a1,a1,1
    80200896:	f7f5                	bnez	a5,80200882 <strncpy+0x8>
    80200898:	00c05d63          	blez	a2,802008b2 <strncpy+0x38>
    8020089c:	86ba                	mv	a3,a4
    8020089e:	0685                	addi	a3,a3,1
    802008a0:	fe068fa3          	sb	zero,-1(a3)
    802008a4:	fff6c793          	not	a5,a3
    802008a8:	9fb9                	addw	a5,a5,a4
    802008aa:	010787bb          	addw	a5,a5,a6
    802008ae:	fef048e3          	bgtz	a5,8020089e <strncpy+0x24>
    802008b2:	6422                	ld	s0,8(sp)
    802008b4:	0141                	addi	sp,sp,16
    802008b6:	8082                	ret

00000000802008b8 <safestrcpy>:
    802008b8:	1141                	addi	sp,sp,-16
    802008ba:	e422                	sd	s0,8(sp)
    802008bc:	0800                	addi	s0,sp,16
    802008be:	02c05363          	blez	a2,802008e4 <safestrcpy+0x2c>
    802008c2:	fff6069b          	addiw	a3,a2,-1
    802008c6:	1682                	slli	a3,a3,0x20
    802008c8:	9281                	srli	a3,a3,0x20
    802008ca:	96ae                	add	a3,a3,a1
    802008cc:	87aa                	mv	a5,a0
    802008ce:	00d58963          	beq	a1,a3,802008e0 <safestrcpy+0x28>
    802008d2:	0585                	addi	a1,a1,1
    802008d4:	0785                	addi	a5,a5,1
    802008d6:	fff5c703          	lbu	a4,-1(a1)
    802008da:	fee78fa3          	sb	a4,-1(a5)
    802008de:	fb65                	bnez	a4,802008ce <safestrcpy+0x16>
    802008e0:	00078023          	sb	zero,0(a5)
    802008e4:	6422                	ld	s0,8(sp)
    802008e6:	0141                	addi	sp,sp,16
    802008e8:	8082                	ret

00000000802008ea <strlen>:
    802008ea:	1141                	addi	sp,sp,-16
    802008ec:	e422                	sd	s0,8(sp)
    802008ee:	0800                	addi	s0,sp,16
    802008f0:	00054783          	lbu	a5,0(a0)
    802008f4:	cf91                	beqz	a5,80200910 <strlen+0x26>
    802008f6:	0505                	addi	a0,a0,1
    802008f8:	87aa                	mv	a5,a0
    802008fa:	4685                	li	a3,1
    802008fc:	9e89                	subw	a3,a3,a0
    802008fe:	00f6853b          	addw	a0,a3,a5
    80200902:	0785                	addi	a5,a5,1
    80200904:	fff7c703          	lbu	a4,-1(a5)
    80200908:	fb7d                	bnez	a4,802008fe <strlen+0x14>
    8020090a:	6422                	ld	s0,8(sp)
    8020090c:	0141                	addi	sp,sp,16
    8020090e:	8082                	ret
    80200910:	4501                	li	a0,0
    80200912:	bfe5                	j	8020090a <strlen+0x20>

0000000080200914 <wnstr>:
    80200914:	1141                	addi	sp,sp,-16
    80200916:	e422                	sd	s0,8(sp)
    80200918:	0800                	addi	s0,sp,16
    8020091a:	c215                	beqz	a2,8020093e <wnstr+0x2a>
    8020091c:	fff6071b          	addiw	a4,a2,-1
    80200920:	1702                	slli	a4,a4,0x20
    80200922:	9301                	srli	a4,a4,0x20
    80200924:	0705                	addi	a4,a4,1
    80200926:	0706                	slli	a4,a4,0x1
    80200928:	972a                	add	a4,a4,a0
    8020092a:	0005c783          	lbu	a5,0(a1)
    8020092e:	cb81                	beqz	a5,8020093e <wnstr+0x2a>
    80200930:	0585                	addi	a1,a1,1
    80200932:	00f50023          	sb	a5,0(a0)
    80200936:	0509                	addi	a0,a0,2
    80200938:	fee519e3          	bne	a0,a4,8020092a <wnstr+0x16>
    8020093c:	853a                	mv	a0,a4
    8020093e:	00051023          	sh	zero,0(a0)
    80200942:	6422                	ld	s0,8(sp)
    80200944:	0141                	addi	sp,sp,16
    80200946:	8082                	ret

0000000080200948 <snstr>:
    80200948:	1141                	addi	sp,sp,-16
    8020094a:	e422                	sd	s0,8(sp)
    8020094c:	0800                	addi	s0,sp,16
    8020094e:	c221                	beqz	a2,8020098e <snstr+0x46>
    80200950:	fff6079b          	addiw	a5,a2,-1
    80200954:	fff6069b          	addiw	a3,a2,-1
    80200958:	1682                	slli	a3,a3,0x20
    8020095a:	9281                	srli	a3,a3,0x20
    8020095c:	0685                	addi	a3,a3,1
    8020095e:	96aa                	add	a3,a3,a0
    80200960:	0005d703          	lhu	a4,0(a1)
    80200964:	cb09                	beqz	a4,80200976 <snstr+0x2e>
    80200966:	0505                	addi	a0,a0,1
    80200968:	fee50fa3          	sb	a4,-1(a0)
    8020096c:	0589                	addi	a1,a1,2
    8020096e:	37fd                	addiw	a5,a5,-1
    80200970:	fed518e3          	bne	a0,a3,80200960 <snstr+0x18>
    80200974:	8536                	mv	a0,a3
    80200976:	00f05c63          	blez	a5,8020098e <snstr+0x46>
    8020097a:	37fd                	addiw	a5,a5,-1
    8020097c:	1782                	slli	a5,a5,0x20
    8020097e:	9381                	srli	a5,a5,0x20
    80200980:	0785                	addi	a5,a5,1
    80200982:	97aa                	add	a5,a5,a0
    80200984:	0505                	addi	a0,a0,1
    80200986:	fe050fa3          	sb	zero,-1(a0)
    8020098a:	fea79de3          	bne	a5,a0,80200984 <snstr+0x3c>
    8020098e:	6422                	ld	s0,8(sp)
    80200990:	0141                	addi	sp,sp,16
    80200992:	8082                	ret

0000000080200994 <wcsncmp>:
    80200994:	1141                	addi	sp,sp,-16
    80200996:	e422                	sd	s0,8(sp)
    80200998:	0800                	addi	s0,sp,16
    8020099a:	872a                	mv	a4,a0
    8020099c:	02061693          	slli	a3,a2,0x20
    802009a0:	9281                	srli	a3,a3,0x20
    802009a2:	0686                	slli	a3,a3,0x1
    802009a4:	96ae                	add	a3,a3,a1
    802009a6:	00d58f63          	beq	a1,a3,802009c4 <wcsncmp+0x30>
    802009aa:	00075783          	lhu	a5,0(a4)
    802009ae:	cb89                	beqz	a5,802009c0 <wcsncmp+0x2c>
    802009b0:	0709                	addi	a4,a4,2
    802009b2:	0589                	addi	a1,a1,2
    802009b4:	ffe5d503          	lhu	a0,-2(a1)
    802009b8:	40a7853b          	subw	a0,a5,a0
    802009bc:	d56d                	beqz	a0,802009a6 <wcsncmp+0x12>
    802009be:	a021                	j	802009c6 <wcsncmp+0x32>
    802009c0:	4501                	li	a0,0
    802009c2:	a011                	j	802009c6 <wcsncmp+0x32>
    802009c4:	4501                	li	a0,0
    802009c6:	6422                	ld	s0,8(sp)
    802009c8:	0141                	addi	sp,sp,16
    802009ca:	8082                	ret

00000000802009cc <strchr>:
    802009cc:	1141                	addi	sp,sp,-16
    802009ce:	e422                	sd	s0,8(sp)
    802009d0:	0800                	addi	s0,sp,16
    802009d2:	00054783          	lbu	a5,0(a0)
    802009d6:	cb99                	beqz	a5,802009ec <strchr+0x20>
    802009d8:	00f58763          	beq	a1,a5,802009e6 <strchr+0x1a>
    802009dc:	0505                	addi	a0,a0,1
    802009de:	00054783          	lbu	a5,0(a0)
    802009e2:	fbfd                	bnez	a5,802009d8 <strchr+0xc>
    802009e4:	4501                	li	a0,0
    802009e6:	6422                	ld	s0,8(sp)
    802009e8:	0141                	addi	sp,sp,16
    802009ea:	8082                	ret
    802009ec:	4501                	li	a0,0
    802009ee:	bfe5                	j	802009e6 <strchr+0x1a>

00000000802009f0 <main>:
    802009f0:	715d                	addi	sp,sp,-80
    802009f2:	e486                	sd	ra,72(sp)
    802009f4:	e0a2                	sd	s0,64(sp)
    802009f6:	fc26                	sd	s1,56(sp)
    802009f8:	f84a                	sd	s2,48(sp)
    802009fa:	f44e                	sd	s3,40(sp)
    802009fc:	f052                	sd	s4,32(sp)
    802009fe:	ec56                	sd	s5,24(sp)
    80200a00:	e85a                	sd	s6,16(sp)
    80200a02:	e45e                	sd	s7,8(sp)
    80200a04:	0880                	addi	s0,sp,80
    80200a06:	84aa                	mv	s1,a0
    80200a08:	822a                	mv	tp,a0
    80200a0a:	00251713          	slli	a4,a0,0x2
    80200a0e:	0021c797          	auipc	a5,0x21c
    80200a12:	64278793          	addi	a5,a5,1602 # 8041d050 <booted>
    80200a16:	97ba                	add	a5,a5,a4
    80200a18:	4705                	li	a4,1
    80200a1a:	c398                	sw	a4,0(a5)
    80200a1c:	0021c797          	auipc	a5,0x21c
    80200a20:	6487a783          	lw	a5,1608(a5) # 8041d064 <started>
    80200a24:	0021c717          	auipc	a4,0x21c
    80200a28:	64070713          	addi	a4,a4,1600 # 8041d064 <started>
    80200a2c:	cf9d                	beqz	a5,80200a6a <main+0x7a>
    80200a2e:	431c                	lw	a5,0(a4)
    80200a30:	2781                	sext.w	a5,a5
    80200a32:	dff5                	beqz	a5,80200a2e <main+0x3e>
    80200a34:	0ff0000f          	fence
    80200a38:	00000097          	auipc	ra,0x0
    80200a3c:	10e080e7          	jalr	270(ra) # 80200b46 <kvminithart>
    80200a40:	00002097          	auipc	ra,0x2
    80200a44:	d76080e7          	jalr	-650(ra) # 802027b6 <trapinithart>
    80200a48:	00006097          	auipc	ra,0x6
    80200a4c:	676080e7          	jalr	1654(ra) # 802070be <plicinithart>
    80200a50:	85a6                	mv	a1,s1
    80200a52:	00009517          	auipc	a0,0x9
    80200a56:	99e50513          	addi	a0,a0,-1634 # 802093f0 <digits+0x70>
    80200a5a:	fffff097          	auipc	ra,0xfffff
    80200a5e:	734080e7          	jalr	1844(ra) # 8020018e <printf>
    80200a62:	00001097          	auipc	ra,0x1
    80200a66:	64a080e7          	jalr	1610(ra) # 802020ac <scheduler>
    80200a6a:	4785                	li	a5,1
    80200a6c:	0021c717          	auipc	a4,0x21c
    80200a70:	5ef72c23          	sw	a5,1528(a4) # 8041d064 <started>
    80200a74:	00007097          	auipc	ra,0x7
    80200a78:	a54080e7          	jalr	-1452(ra) # 802074c8 <consoleinit>
    80200a7c:	00000097          	auipc	ra,0x0
    80200a80:	8f8080e7          	jalr	-1800(ra) # 80200374 <printfinit>
    80200a84:	00000097          	auipc	ra,0x0
    80200a88:	922080e7          	jalr	-1758(ra) # 802003a6 <print_logo>
    80200a8c:	00000097          	auipc	ra,0x0
    80200a90:	a84080e7          	jalr	-1404(ra) # 80200510 <kinit>
    80200a94:	00000097          	auipc	ra,0x0
    80200a98:	2fc080e7          	jalr	764(ra) # 80200d90 <kvminit>
    80200a9c:	00000097          	auipc	ra,0x0
    80200aa0:	0aa080e7          	jalr	170(ra) # 80200b46 <kvminithart>
    80200aa4:	00004097          	auipc	ra,0x4
    80200aa8:	53a080e7          	jalr	1338(ra) # 80204fde <timerinit>
    80200aac:	00002097          	auipc	ra,0x2
    80200ab0:	d0a080e7          	jalr	-758(ra) # 802027b6 <trapinithart>
    80200ab4:	00001097          	auipc	ra,0x1
    80200ab8:	fe2080e7          	jalr	-30(ra) # 80201a96 <procinit>
    80200abc:	00006097          	auipc	ra,0x6
    80200ac0:	5e8080e7          	jalr	1512(ra) # 802070a4 <plicinit>
    80200ac4:	00006097          	auipc	ra,0x6
    80200ac8:	5fa080e7          	jalr	1530(ra) # 802070be <plicinithart>
    80200acc:	00003097          	auipc	ra,0x3
    80200ad0:	8be080e7          	jalr	-1858(ra) # 8020338a <binit>
    80200ad4:	00003097          	auipc	ra,0x3
    80200ad8:	cc2080e7          	jalr	-830(ra) # 80203796 <fileinit>
    80200adc:	00001097          	auipc	ra,0x1
    80200ae0:	36a080e7          	jalr	874(ra) # 80201e46 <userinit>
    80200ae4:	0ff0000f          	fence
    80200ae8:	0021c997          	auipc	s3,0x21c
    80200aec:	56898993          	addi	s3,s3,1384 # 8041d050 <booted>
    80200af0:	4905                	li	s2,1
    80200af2:	00009b97          	auipc	s7,0x9
    80200af6:	8e6b8b93          	addi	s7,s7,-1818 # 802093d8 <digits+0x58>
    80200afa:	fffffb17          	auipc	s6,0xfffff
    80200afe:	506b0b13          	addi	s6,s6,1286 # 80200000 <_entry>
    80200b02:	00485ab7          	lui	s5,0x485
    80200b06:	34da8a93          	addi	s5,s5,845 # 48534d <_entry-0x7fd7acb3>
    80200b0a:	4a15                	li	s4,5
    80200b0c:	a029                	j	80200b16 <main+0x126>
    80200b0e:	0905                	addi	s2,s2,1
    80200b10:	0991                	addi	s3,s3,4
    80200b12:	f3490fe3          	beq	s2,s4,80200a50 <main+0x60>
    80200b16:	0009061b          	sext.w	a2,s2
    80200b1a:	ff248ae3          	beq	s1,s2,80200b0e <main+0x11e>
    80200b1e:	0049a783          	lw	a5,4(s3)
    80200b22:	f7f5                	bnez	a5,80200b0e <main+0x11e>
    80200b24:	85a6                	mv	a1,s1
    80200b26:	855e                	mv	a0,s7
    80200b28:	fffff097          	auipc	ra,0xfffff
    80200b2c:	666080e7          	jalr	1638(ra) # 8020018e <printf>
    80200b30:	854a                	mv	a0,s2
    80200b32:	85da                	mv	a1,s6
    80200b34:	4601                	li	a2,0
    80200b36:	4681                	li	a3,0
    80200b38:	4701                	li	a4,0
    80200b3a:	4781                	li	a5,0
    80200b3c:	4801                	li	a6,0
    80200b3e:	88d6                	mv	a7,s5
    80200b40:	00000073          	ecall
    80200b44:	b7e9                	j	80200b0e <main+0x11e>

0000000080200b46 <kvminithart>:
    80200b46:	1141                	addi	sp,sp,-16
    80200b48:	e422                	sd	s0,8(sp)
    80200b4a:	0800                	addi	s0,sp,16
    80200b4c:	0021c797          	auipc	a5,0x21c
    80200b50:	51c7b783          	ld	a5,1308(a5) # 8041d068 <kernel_pagetable>
    80200b54:	83b1                	srli	a5,a5,0xc
    80200b56:	577d                	li	a4,-1
    80200b58:	177e                	slli	a4,a4,0x3f
    80200b5a:	8fd9                	or	a5,a5,a4
    80200b5c:	18079073          	csrw	satp,a5
    80200b60:	12000073          	sfence.vma
    80200b64:	6422                	ld	s0,8(sp)
    80200b66:	0141                	addi	sp,sp,16
    80200b68:	8082                	ret

0000000080200b6a <walk>:
    80200b6a:	7139                	addi	sp,sp,-64
    80200b6c:	fc06                	sd	ra,56(sp)
    80200b6e:	f822                	sd	s0,48(sp)
    80200b70:	f426                	sd	s1,40(sp)
    80200b72:	f04a                	sd	s2,32(sp)
    80200b74:	ec4e                	sd	s3,24(sp)
    80200b76:	e852                	sd	s4,16(sp)
    80200b78:	e456                	sd	s5,8(sp)
    80200b7a:	e05a                	sd	s6,0(sp)
    80200b7c:	0080                	addi	s0,sp,64
    80200b7e:	84aa                	mv	s1,a0
    80200b80:	89ae                	mv	s3,a1
    80200b82:	8ab2                	mv	s5,a2
    80200b84:	57fd                	li	a5,-1
    80200b86:	83e9                	srli	a5,a5,0x1a
    80200b88:	4a79                	li	s4,30
    80200b8a:	4b31                	li	s6,12
    80200b8c:	04b7f263          	bgeu	a5,a1,80200bd0 <walk+0x66>
    80200b90:	00009517          	auipc	a0,0x9
    80200b94:	87850513          	addi	a0,a0,-1928 # 80209408 <digits+0x88>
    80200b98:	fffff097          	auipc	ra,0xfffff
    80200b9c:	5ac080e7          	jalr	1452(ra) # 80200144 <panic>
    80200ba0:	060a8663          	beqz	s5,80200c0c <walk+0xa2>
    80200ba4:	00000097          	auipc	ra,0x0
    80200ba8:	9b6080e7          	jalr	-1610(ra) # 8020055a <kalloc>
    80200bac:	84aa                	mv	s1,a0
    80200bae:	c529                	beqz	a0,80200bf8 <walk+0x8e>
    80200bb0:	6605                	lui	a2,0x1
    80200bb2:	4581                	li	a1,0
    80200bb4:	00000097          	auipc	ra,0x0
    80200bb8:	bae080e7          	jalr	-1106(ra) # 80200762 <memset>
    80200bbc:	00c4d793          	srli	a5,s1,0xc
    80200bc0:	07aa                	slli	a5,a5,0xa
    80200bc2:	0017e793          	ori	a5,a5,1
    80200bc6:	00f93023          	sd	a5,0(s2)
    80200bca:	3a5d                	addiw	s4,s4,-9
    80200bcc:	036a0063          	beq	s4,s6,80200bec <walk+0x82>
    80200bd0:	0149d933          	srl	s2,s3,s4
    80200bd4:	1ff97913          	andi	s2,s2,511
    80200bd8:	090e                	slli	s2,s2,0x3
    80200bda:	9926                	add	s2,s2,s1
    80200bdc:	00093483          	ld	s1,0(s2)
    80200be0:	0014f793          	andi	a5,s1,1
    80200be4:	dfd5                	beqz	a5,80200ba0 <walk+0x36>
    80200be6:	80a9                	srli	s1,s1,0xa
    80200be8:	04b2                	slli	s1,s1,0xc
    80200bea:	b7c5                	j	80200bca <walk+0x60>
    80200bec:	00c9d513          	srli	a0,s3,0xc
    80200bf0:	1ff57513          	andi	a0,a0,511
    80200bf4:	050e                	slli	a0,a0,0x3
    80200bf6:	9526                	add	a0,a0,s1
    80200bf8:	70e2                	ld	ra,56(sp)
    80200bfa:	7442                	ld	s0,48(sp)
    80200bfc:	74a2                	ld	s1,40(sp)
    80200bfe:	7902                	ld	s2,32(sp)
    80200c00:	69e2                	ld	s3,24(sp)
    80200c02:	6a42                	ld	s4,16(sp)
    80200c04:	6aa2                	ld	s5,8(sp)
    80200c06:	6b02                	ld	s6,0(sp)
    80200c08:	6121                	addi	sp,sp,64
    80200c0a:	8082                	ret
    80200c0c:	4501                	li	a0,0
    80200c0e:	b7ed                	j	80200bf8 <walk+0x8e>

0000000080200c10 <walkaddr>:
    80200c10:	57fd                	li	a5,-1
    80200c12:	83e9                	srli	a5,a5,0x1a
    80200c14:	00b7f463          	bgeu	a5,a1,80200c1c <walkaddr+0xc>
    80200c18:	4501                	li	a0,0
    80200c1a:	8082                	ret
    80200c1c:	1141                	addi	sp,sp,-16
    80200c1e:	e406                	sd	ra,8(sp)
    80200c20:	e022                	sd	s0,0(sp)
    80200c22:	0800                	addi	s0,sp,16
    80200c24:	4601                	li	a2,0
    80200c26:	00000097          	auipc	ra,0x0
    80200c2a:	f44080e7          	jalr	-188(ra) # 80200b6a <walk>
    80200c2e:	c105                	beqz	a0,80200c4e <walkaddr+0x3e>
    80200c30:	611c                	ld	a5,0(a0)
    80200c32:	0117f693          	andi	a3,a5,17
    80200c36:	4745                	li	a4,17
    80200c38:	4501                	li	a0,0
    80200c3a:	00e68663          	beq	a3,a4,80200c46 <walkaddr+0x36>
    80200c3e:	60a2                	ld	ra,8(sp)
    80200c40:	6402                	ld	s0,0(sp)
    80200c42:	0141                	addi	sp,sp,16
    80200c44:	8082                	ret
    80200c46:	00a7d513          	srli	a0,a5,0xa
    80200c4a:	0532                	slli	a0,a0,0xc
    80200c4c:	bfcd                	j	80200c3e <walkaddr+0x2e>
    80200c4e:	4501                	li	a0,0
    80200c50:	b7fd                	j	80200c3e <walkaddr+0x2e>

0000000080200c52 <kwalkaddr>:
    80200c52:	1101                	addi	sp,sp,-32
    80200c54:	ec06                	sd	ra,24(sp)
    80200c56:	e822                	sd	s0,16(sp)
    80200c58:	e426                	sd	s1,8(sp)
    80200c5a:	1000                	addi	s0,sp,32
    80200c5c:	03459793          	slli	a5,a1,0x34
    80200c60:	0347d493          	srli	s1,a5,0x34
    80200c64:	4601                	li	a2,0
    80200c66:	00000097          	auipc	ra,0x0
    80200c6a:	f04080e7          	jalr	-252(ra) # 80200b6a <walk>
    80200c6e:	cd09                	beqz	a0,80200c88 <kwalkaddr+0x36>
    80200c70:	6108                	ld	a0,0(a0)
    80200c72:	00157793          	andi	a5,a0,1
    80200c76:	c38d                	beqz	a5,80200c98 <kwalkaddr+0x46>
    80200c78:	8129                	srli	a0,a0,0xa
    80200c7a:	0532                	slli	a0,a0,0xc
    80200c7c:	9526                	add	a0,a0,s1
    80200c7e:	60e2                	ld	ra,24(sp)
    80200c80:	6442                	ld	s0,16(sp)
    80200c82:	64a2                	ld	s1,8(sp)
    80200c84:	6105                	addi	sp,sp,32
    80200c86:	8082                	ret
    80200c88:	00008517          	auipc	a0,0x8
    80200c8c:	78850513          	addi	a0,a0,1928 # 80209410 <digits+0x90>
    80200c90:	fffff097          	auipc	ra,0xfffff
    80200c94:	4b4080e7          	jalr	1204(ra) # 80200144 <panic>
    80200c98:	00008517          	auipc	a0,0x8
    80200c9c:	77850513          	addi	a0,a0,1912 # 80209410 <digits+0x90>
    80200ca0:	fffff097          	auipc	ra,0xfffff
    80200ca4:	4a4080e7          	jalr	1188(ra) # 80200144 <panic>

0000000080200ca8 <kvmpa>:
    80200ca8:	1141                	addi	sp,sp,-16
    80200caa:	e406                	sd	ra,8(sp)
    80200cac:	e022                	sd	s0,0(sp)
    80200cae:	0800                	addi	s0,sp,16
    80200cb0:	85aa                	mv	a1,a0
    80200cb2:	0021c517          	auipc	a0,0x21c
    80200cb6:	3b653503          	ld	a0,950(a0) # 8041d068 <kernel_pagetable>
    80200cba:	00000097          	auipc	ra,0x0
    80200cbe:	f98080e7          	jalr	-104(ra) # 80200c52 <kwalkaddr>
    80200cc2:	60a2                	ld	ra,8(sp)
    80200cc4:	6402                	ld	s0,0(sp)
    80200cc6:	0141                	addi	sp,sp,16
    80200cc8:	8082                	ret

0000000080200cca <mappages>:
    80200cca:	715d                	addi	sp,sp,-80
    80200ccc:	e486                	sd	ra,72(sp)
    80200cce:	e0a2                	sd	s0,64(sp)
    80200cd0:	fc26                	sd	s1,56(sp)
    80200cd2:	f84a                	sd	s2,48(sp)
    80200cd4:	f44e                	sd	s3,40(sp)
    80200cd6:	f052                	sd	s4,32(sp)
    80200cd8:	ec56                	sd	s5,24(sp)
    80200cda:	e85a                	sd	s6,16(sp)
    80200cdc:	e45e                	sd	s7,8(sp)
    80200cde:	0880                	addi	s0,sp,80
    80200ce0:	8aaa                	mv	s5,a0
    80200ce2:	8b3a                	mv	s6,a4
    80200ce4:	777d                	lui	a4,0xfffff
    80200ce6:	00e5f7b3          	and	a5,a1,a4
    80200cea:	167d                	addi	a2,a2,-1
    80200cec:	00b609b3          	add	s3,a2,a1
    80200cf0:	00e9f9b3          	and	s3,s3,a4
    80200cf4:	893e                	mv	s2,a5
    80200cf6:	40f68a33          	sub	s4,a3,a5
    80200cfa:	6b85                	lui	s7,0x1
    80200cfc:	012a04b3          	add	s1,s4,s2
    80200d00:	4605                	li	a2,1
    80200d02:	85ca                	mv	a1,s2
    80200d04:	8556                	mv	a0,s5
    80200d06:	00000097          	auipc	ra,0x0
    80200d0a:	e64080e7          	jalr	-412(ra) # 80200b6a <walk>
    80200d0e:	c51d                	beqz	a0,80200d3c <mappages+0x72>
    80200d10:	611c                	ld	a5,0(a0)
    80200d12:	8b85                	andi	a5,a5,1
    80200d14:	ef81                	bnez	a5,80200d2c <mappages+0x62>
    80200d16:	80b1                	srli	s1,s1,0xc
    80200d18:	04aa                	slli	s1,s1,0xa
    80200d1a:	0164e4b3          	or	s1,s1,s6
    80200d1e:	0014e493          	ori	s1,s1,1
    80200d22:	e104                	sd	s1,0(a0)
    80200d24:	03390863          	beq	s2,s3,80200d54 <mappages+0x8a>
    80200d28:	995e                	add	s2,s2,s7
    80200d2a:	bfc9                	j	80200cfc <mappages+0x32>
    80200d2c:	00008517          	auipc	a0,0x8
    80200d30:	6ec50513          	addi	a0,a0,1772 # 80209418 <digits+0x98>
    80200d34:	fffff097          	auipc	ra,0xfffff
    80200d38:	410080e7          	jalr	1040(ra) # 80200144 <panic>
    80200d3c:	557d                	li	a0,-1
    80200d3e:	60a6                	ld	ra,72(sp)
    80200d40:	6406                	ld	s0,64(sp)
    80200d42:	74e2                	ld	s1,56(sp)
    80200d44:	7942                	ld	s2,48(sp)
    80200d46:	79a2                	ld	s3,40(sp)
    80200d48:	7a02                	ld	s4,32(sp)
    80200d4a:	6ae2                	ld	s5,24(sp)
    80200d4c:	6b42                	ld	s6,16(sp)
    80200d4e:	6ba2                	ld	s7,8(sp)
    80200d50:	6161                	addi	sp,sp,80
    80200d52:	8082                	ret
    80200d54:	4501                	li	a0,0
    80200d56:	b7e5                	j	80200d3e <mappages+0x74>

0000000080200d58 <kvmmap>:
    80200d58:	1141                	addi	sp,sp,-16
    80200d5a:	e406                	sd	ra,8(sp)
    80200d5c:	e022                	sd	s0,0(sp)
    80200d5e:	0800                	addi	s0,sp,16
    80200d60:	8736                	mv	a4,a3
    80200d62:	86ae                	mv	a3,a1
    80200d64:	85aa                	mv	a1,a0
    80200d66:	0021c517          	auipc	a0,0x21c
    80200d6a:	30253503          	ld	a0,770(a0) # 8041d068 <kernel_pagetable>
    80200d6e:	00000097          	auipc	ra,0x0
    80200d72:	f5c080e7          	jalr	-164(ra) # 80200cca <mappages>
    80200d76:	e509                	bnez	a0,80200d80 <kvmmap+0x28>
    80200d78:	60a2                	ld	ra,8(sp)
    80200d7a:	6402                	ld	s0,0(sp)
    80200d7c:	0141                	addi	sp,sp,16
    80200d7e:	8082                	ret
    80200d80:	00008517          	auipc	a0,0x8
    80200d84:	6a050513          	addi	a0,a0,1696 # 80209420 <digits+0xa0>
    80200d88:	fffff097          	auipc	ra,0xfffff
    80200d8c:	3bc080e7          	jalr	956(ra) # 80200144 <panic>

0000000080200d90 <kvminit>:
    80200d90:	1101                	addi	sp,sp,-32
    80200d92:	ec06                	sd	ra,24(sp)
    80200d94:	e822                	sd	s0,16(sp)
    80200d96:	e426                	sd	s1,8(sp)
    80200d98:	1000                	addi	s0,sp,32
    80200d9a:	fffff097          	auipc	ra,0xfffff
    80200d9e:	7c0080e7          	jalr	1984(ra) # 8020055a <kalloc>
    80200da2:	0021c797          	auipc	a5,0x21c
    80200da6:	2ca7b323          	sd	a0,710(a5) # 8041d068 <kernel_pagetable>
    80200daa:	6605                	lui	a2,0x1
    80200dac:	4581                	li	a1,0
    80200dae:	00000097          	auipc	ra,0x0
    80200db2:	9b4080e7          	jalr	-1612(ra) # 80200762 <memset>
    80200db6:	4699                	li	a3,6
    80200db8:	6605                	lui	a2,0x1
    80200dba:	100005b7          	lui	a1,0x10000
    80200dbe:	3f100513          	li	a0,1009
    80200dc2:	0572                	slli	a0,a0,0x1c
    80200dc4:	00000097          	auipc	ra,0x0
    80200dc8:	f94080e7          	jalr	-108(ra) # 80200d58 <kvmmap>
    80200dcc:	4699                	li	a3,6
    80200dce:	6641                	lui	a2,0x10
    80200dd0:	020005b7          	lui	a1,0x2000
    80200dd4:	01f81537          	lui	a0,0x1f81
    80200dd8:	0536                	slli	a0,a0,0xd
    80200dda:	00000097          	auipc	ra,0x0
    80200dde:	f7e080e7          	jalr	-130(ra) # 80200d58 <kvmmap>
    80200de2:	4699                	li	a3,6
    80200de4:	00400637          	lui	a2,0x400
    80200de8:	0c0005b7          	lui	a1,0xc000
    80200dec:	00fc3537          	lui	a0,0xfc3
    80200df0:	053a                	slli	a0,a0,0xe
    80200df2:	00000097          	auipc	ra,0x0
    80200df6:	f66080e7          	jalr	-154(ra) # 80200d58 <kvmmap>
    80200dfa:	4699                	li	a3,6
    80200dfc:	6605                	lui	a2,0x1
    80200dfe:	380015b7          	lui	a1,0x38001
    80200e02:	03f38537          	lui	a0,0x3f38
    80200e06:	0505                	addi	a0,a0,1
    80200e08:	0532                	slli	a0,a0,0xc
    80200e0a:	00000097          	auipc	ra,0x0
    80200e0e:	f4e080e7          	jalr	-178(ra) # 80200d58 <kvmmap>
    80200e12:	4699                	li	a3,6
    80200e14:	6605                	lui	a2,0x1
    80200e16:	500005b7          	lui	a1,0x50000
    80200e1a:	3f500513          	li	a0,1013
    80200e1e:	0572                	slli	a0,a0,0x1c
    80200e20:	00000097          	auipc	ra,0x0
    80200e24:	f38080e7          	jalr	-200(ra) # 80200d58 <kvmmap>
    80200e28:	4699                	li	a3,6
    80200e2a:	6605                	lui	a2,0x1
    80200e2c:	502405b7          	lui	a1,0x50240
    80200e30:	000fd4b7          	lui	s1,0xfd
    80200e34:	40948513          	addi	a0,s1,1033 # fd409 <_entry-0x80102bf7>
    80200e38:	054a                	slli	a0,a0,0x12
    80200e3a:	00000097          	auipc	ra,0x0
    80200e3e:	f1e080e7          	jalr	-226(ra) # 80200d58 <kvmmap>
    80200e42:	4699                	li	a3,6
    80200e44:	6605                	lui	a2,0x1
    80200e46:	502b05b7          	lui	a1,0x502b0
    80200e4a:	003f5537          	lui	a0,0x3f5
    80200e4e:	02b50513          	addi	a0,a0,43 # 3f502b <_entry-0x7fe0afd5>
    80200e52:	0542                	slli	a0,a0,0x10
    80200e54:	00000097          	auipc	ra,0x0
    80200e58:	f04080e7          	jalr	-252(ra) # 80200d58 <kvmmap>
    80200e5c:	4699                	li	a3,6
    80200e5e:	6605                	lui	a2,0x1
    80200e60:	520005b7          	lui	a1,0x52000
    80200e64:	01fa9537          	lui	a0,0x1fa9
    80200e68:	0536                	slli	a0,a0,0xd
    80200e6a:	00000097          	auipc	ra,0x0
    80200e6e:	eee080e7          	jalr	-274(ra) # 80200d58 <kvmmap>
    80200e72:	4699                	li	a3,6
    80200e74:	6605                	lui	a2,0x1
    80200e76:	530005b7          	lui	a1,0x53000
    80200e7a:	03f53537          	lui	a0,0x3f53
    80200e7e:	0532                	slli	a0,a0,0xc
    80200e80:	00000097          	auipc	ra,0x0
    80200e84:	ed8080e7          	jalr	-296(ra) # 80200d58 <kvmmap>
    80200e88:	4699                	li	a3,6
    80200e8a:	6605                	lui	a2,0x1
    80200e8c:	540005b7          	lui	a1,0x54000
    80200e90:	00fd5537          	lui	a0,0xfd5
    80200e94:	053a                	slli	a0,a0,0xe
    80200e96:	00000097          	auipc	ra,0x0
    80200e9a:	ec2080e7          	jalr	-318(ra) # 80200d58 <kvmmap>
    80200e9e:	4699                	li	a3,6
    80200ea0:	6605                	lui	a2,0x1
    80200ea2:	504405b7          	lui	a1,0x50440
    80200ea6:	41148513          	addi	a0,s1,1041
    80200eaa:	054a                	slli	a0,a0,0x12
    80200eac:	00000097          	auipc	ra,0x0
    80200eb0:	eac080e7          	jalr	-340(ra) # 80200d58 <kvmmap>
    80200eb4:	00008497          	auipc	s1,0x8
    80200eb8:	14c48493          	addi	s1,s1,332 # 80209000 <etext>
    80200ebc:	46a9                	li	a3,10
    80200ebe:	bff00613          	li	a2,-1025
    80200ec2:	0656                	slli	a2,a2,0x15
    80200ec4:	9626                	add	a2,a2,s1
    80200ec6:	40100593          	li	a1,1025
    80200eca:	05d6                	slli	a1,a1,0x15
    80200ecc:	852e                	mv	a0,a1
    80200ece:	00000097          	auipc	ra,0x0
    80200ed2:	e8a080e7          	jalr	-374(ra) # 80200d58 <kvmmap>
    80200ed6:	4699                	li	a3,6
    80200ed8:	4645                	li	a2,17
    80200eda:	066e                	slli	a2,a2,0x1b
    80200edc:	8e05                	sub	a2,a2,s1
    80200ede:	85a6                	mv	a1,s1
    80200ee0:	8526                	mv	a0,s1
    80200ee2:	00000097          	auipc	ra,0x0
    80200ee6:	e76080e7          	jalr	-394(ra) # 80200d58 <kvmmap>
    80200eea:	46a9                	li	a3,10
    80200eec:	6605                	lui	a2,0x1
    80200eee:	00007597          	auipc	a1,0x7
    80200ef2:	11258593          	addi	a1,a1,274 # 80208000 <_trampoline>
    80200ef6:	04000537          	lui	a0,0x4000
    80200efa:	157d                	addi	a0,a0,-1
    80200efc:	0532                	slli	a0,a0,0xc
    80200efe:	00000097          	auipc	ra,0x0
    80200f02:	e5a080e7          	jalr	-422(ra) # 80200d58 <kvmmap>
    80200f06:	60e2                	ld	ra,24(sp)
    80200f08:	6442                	ld	s0,16(sp)
    80200f0a:	64a2                	ld	s1,8(sp)
    80200f0c:	6105                	addi	sp,sp,32
    80200f0e:	8082                	ret

0000000080200f10 <vmunmap>:
    80200f10:	715d                	addi	sp,sp,-80
    80200f12:	e486                	sd	ra,72(sp)
    80200f14:	e0a2                	sd	s0,64(sp)
    80200f16:	fc26                	sd	s1,56(sp)
    80200f18:	f84a                	sd	s2,48(sp)
    80200f1a:	f44e                	sd	s3,40(sp)
    80200f1c:	f052                	sd	s4,32(sp)
    80200f1e:	ec56                	sd	s5,24(sp)
    80200f20:	e85a                	sd	s6,16(sp)
    80200f22:	e45e                	sd	s7,8(sp)
    80200f24:	0880                	addi	s0,sp,80
    80200f26:	03459793          	slli	a5,a1,0x34
    80200f2a:	e795                	bnez	a5,80200f56 <vmunmap+0x46>
    80200f2c:	8a2a                	mv	s4,a0
    80200f2e:	892e                	mv	s2,a1
    80200f30:	8ab6                	mv	s5,a3
    80200f32:	0632                	slli	a2,a2,0xc
    80200f34:	00b609b3          	add	s3,a2,a1
    80200f38:	4b85                	li	s7,1
    80200f3a:	6b05                	lui	s6,0x1
    80200f3c:	0735e863          	bltu	a1,s3,80200fac <vmunmap+0x9c>
    80200f40:	60a6                	ld	ra,72(sp)
    80200f42:	6406                	ld	s0,64(sp)
    80200f44:	74e2                	ld	s1,56(sp)
    80200f46:	7942                	ld	s2,48(sp)
    80200f48:	79a2                	ld	s3,40(sp)
    80200f4a:	7a02                	ld	s4,32(sp)
    80200f4c:	6ae2                	ld	s5,24(sp)
    80200f4e:	6b42                	ld	s6,16(sp)
    80200f50:	6ba2                	ld	s7,8(sp)
    80200f52:	6161                	addi	sp,sp,80
    80200f54:	8082                	ret
    80200f56:	00008517          	auipc	a0,0x8
    80200f5a:	4d250513          	addi	a0,a0,1234 # 80209428 <digits+0xa8>
    80200f5e:	fffff097          	auipc	ra,0xfffff
    80200f62:	1e6080e7          	jalr	486(ra) # 80200144 <panic>
    80200f66:	00008517          	auipc	a0,0x8
    80200f6a:	4da50513          	addi	a0,a0,1242 # 80209440 <digits+0xc0>
    80200f6e:	fffff097          	auipc	ra,0xfffff
    80200f72:	1d6080e7          	jalr	470(ra) # 80200144 <panic>
    80200f76:	00008517          	auipc	a0,0x8
    80200f7a:	4da50513          	addi	a0,a0,1242 # 80209450 <digits+0xd0>
    80200f7e:	fffff097          	auipc	ra,0xfffff
    80200f82:	1c6080e7          	jalr	454(ra) # 80200144 <panic>
    80200f86:	00008517          	auipc	a0,0x8
    80200f8a:	4e250513          	addi	a0,a0,1250 # 80209468 <digits+0xe8>
    80200f8e:	fffff097          	auipc	ra,0xfffff
    80200f92:	1b6080e7          	jalr	438(ra) # 80200144 <panic>
    80200f96:	8129                	srli	a0,a0,0xa
    80200f98:	0532                	slli	a0,a0,0xc
    80200f9a:	fffff097          	auipc	ra,0xfffff
    80200f9e:	4ac080e7          	jalr	1196(ra) # 80200446 <kfree>
    80200fa2:	0004b023          	sd	zero,0(s1)
    80200fa6:	995a                	add	s2,s2,s6
    80200fa8:	f9397ce3          	bgeu	s2,s3,80200f40 <vmunmap+0x30>
    80200fac:	4601                	li	a2,0
    80200fae:	85ca                	mv	a1,s2
    80200fb0:	8552                	mv	a0,s4
    80200fb2:	00000097          	auipc	ra,0x0
    80200fb6:	bb8080e7          	jalr	-1096(ra) # 80200b6a <walk>
    80200fba:	84aa                	mv	s1,a0
    80200fbc:	d54d                	beqz	a0,80200f66 <vmunmap+0x56>
    80200fbe:	6108                	ld	a0,0(a0)
    80200fc0:	00157793          	andi	a5,a0,1
    80200fc4:	dbcd                	beqz	a5,80200f76 <vmunmap+0x66>
    80200fc6:	3ff57793          	andi	a5,a0,1023
    80200fca:	fb778ee3          	beq	a5,s7,80200f86 <vmunmap+0x76>
    80200fce:	fc0a8ae3          	beqz	s5,80200fa2 <vmunmap+0x92>
    80200fd2:	b7d1                	j	80200f96 <vmunmap+0x86>

0000000080200fd4 <uvmcreate>:
    80200fd4:	1101                	addi	sp,sp,-32
    80200fd6:	ec06                	sd	ra,24(sp)
    80200fd8:	e822                	sd	s0,16(sp)
    80200fda:	e426                	sd	s1,8(sp)
    80200fdc:	1000                	addi	s0,sp,32
    80200fde:	fffff097          	auipc	ra,0xfffff
    80200fe2:	57c080e7          	jalr	1404(ra) # 8020055a <kalloc>
    80200fe6:	84aa                	mv	s1,a0
    80200fe8:	c519                	beqz	a0,80200ff6 <uvmcreate+0x22>
    80200fea:	6605                	lui	a2,0x1
    80200fec:	4581                	li	a1,0
    80200fee:	fffff097          	auipc	ra,0xfffff
    80200ff2:	774080e7          	jalr	1908(ra) # 80200762 <memset>
    80200ff6:	8526                	mv	a0,s1
    80200ff8:	60e2                	ld	ra,24(sp)
    80200ffa:	6442                	ld	s0,16(sp)
    80200ffc:	64a2                	ld	s1,8(sp)
    80200ffe:	6105                	addi	sp,sp,32
    80201000:	8082                	ret

0000000080201002 <uvminit>:
    80201002:	7139                	addi	sp,sp,-64
    80201004:	fc06                	sd	ra,56(sp)
    80201006:	f822                	sd	s0,48(sp)
    80201008:	f426                	sd	s1,40(sp)
    8020100a:	f04a                	sd	s2,32(sp)
    8020100c:	ec4e                	sd	s3,24(sp)
    8020100e:	e852                	sd	s4,16(sp)
    80201010:	e456                	sd	s5,8(sp)
    80201012:	0080                	addi	s0,sp,64
    80201014:	6785                	lui	a5,0x1
    80201016:	06f6f363          	bgeu	a3,a5,8020107c <uvminit+0x7a>
    8020101a:	8aaa                	mv	s5,a0
    8020101c:	8a2e                	mv	s4,a1
    8020101e:	89b2                	mv	s3,a2
    80201020:	8936                	mv	s2,a3
    80201022:	fffff097          	auipc	ra,0xfffff
    80201026:	538080e7          	jalr	1336(ra) # 8020055a <kalloc>
    8020102a:	84aa                	mv	s1,a0
    8020102c:	6605                	lui	a2,0x1
    8020102e:	4581                	li	a1,0
    80201030:	fffff097          	auipc	ra,0xfffff
    80201034:	732080e7          	jalr	1842(ra) # 80200762 <memset>
    80201038:	4779                	li	a4,30
    8020103a:	86a6                	mv	a3,s1
    8020103c:	6605                	lui	a2,0x1
    8020103e:	4581                	li	a1,0
    80201040:	8556                	mv	a0,s5
    80201042:	00000097          	auipc	ra,0x0
    80201046:	c88080e7          	jalr	-888(ra) # 80200cca <mappages>
    8020104a:	4739                	li	a4,14
    8020104c:	86a6                	mv	a3,s1
    8020104e:	6605                	lui	a2,0x1
    80201050:	4581                	li	a1,0
    80201052:	8552                	mv	a0,s4
    80201054:	00000097          	auipc	ra,0x0
    80201058:	c76080e7          	jalr	-906(ra) # 80200cca <mappages>
    8020105c:	864a                	mv	a2,s2
    8020105e:	85ce                	mv	a1,s3
    80201060:	8526                	mv	a0,s1
    80201062:	fffff097          	auipc	ra,0xfffff
    80201066:	760080e7          	jalr	1888(ra) # 802007c2 <memmove>
    8020106a:	70e2                	ld	ra,56(sp)
    8020106c:	7442                	ld	s0,48(sp)
    8020106e:	74a2                	ld	s1,40(sp)
    80201070:	7902                	ld	s2,32(sp)
    80201072:	69e2                	ld	s3,24(sp)
    80201074:	6a42                	ld	s4,16(sp)
    80201076:	6aa2                	ld	s5,8(sp)
    80201078:	6121                	addi	sp,sp,64
    8020107a:	8082                	ret
    8020107c:	00008517          	auipc	a0,0x8
    80201080:	40450513          	addi	a0,a0,1028 # 80209480 <digits+0x100>
    80201084:	fffff097          	auipc	ra,0xfffff
    80201088:	0c0080e7          	jalr	192(ra) # 80200144 <panic>

000000008020108c <uvmdealloc>:
    8020108c:	7179                	addi	sp,sp,-48
    8020108e:	f406                	sd	ra,40(sp)
    80201090:	f022                	sd	s0,32(sp)
    80201092:	ec26                	sd	s1,24(sp)
    80201094:	e84a                	sd	s2,16(sp)
    80201096:	e44e                	sd	s3,8(sp)
    80201098:	e052                	sd	s4,0(sp)
    8020109a:	1800                	addi	s0,sp,48
    8020109c:	8932                	mv	s2,a2
    8020109e:	02c6f063          	bgeu	a3,a2,802010be <uvmdealloc+0x32>
    802010a2:	89aa                	mv	s3,a0
    802010a4:	852e                	mv	a0,a1
    802010a6:	8936                	mv	s2,a3
    802010a8:	6785                	lui	a5,0x1
    802010aa:	17fd                	addi	a5,a5,-1
    802010ac:	00f68a33          	add	s4,a3,a5
    802010b0:	777d                	lui	a4,0xfffff
    802010b2:	00ea7a33          	and	s4,s4,a4
    802010b6:	963e                	add	a2,a2,a5
    802010b8:	8e79                	and	a2,a2,a4
    802010ba:	00ca6b63          	bltu	s4,a2,802010d0 <uvmdealloc+0x44>
    802010be:	854a                	mv	a0,s2
    802010c0:	70a2                	ld	ra,40(sp)
    802010c2:	7402                	ld	s0,32(sp)
    802010c4:	64e2                	ld	s1,24(sp)
    802010c6:	6942                	ld	s2,16(sp)
    802010c8:	69a2                	ld	s3,8(sp)
    802010ca:	6a02                	ld	s4,0(sp)
    802010cc:	6145                	addi	sp,sp,48
    802010ce:	8082                	ret
    802010d0:	414604b3          	sub	s1,a2,s4
    802010d4:	80b1                	srli	s1,s1,0xc
    802010d6:	2481                	sext.w	s1,s1
    802010d8:	4681                	li	a3,0
    802010da:	8626                	mv	a2,s1
    802010dc:	85d2                	mv	a1,s4
    802010de:	00000097          	auipc	ra,0x0
    802010e2:	e32080e7          	jalr	-462(ra) # 80200f10 <vmunmap>
    802010e6:	4685                	li	a3,1
    802010e8:	8626                	mv	a2,s1
    802010ea:	85d2                	mv	a1,s4
    802010ec:	854e                	mv	a0,s3
    802010ee:	00000097          	auipc	ra,0x0
    802010f2:	e22080e7          	jalr	-478(ra) # 80200f10 <vmunmap>
    802010f6:	b7e1                	j	802010be <uvmdealloc+0x32>

00000000802010f8 <uvmalloc>:
    802010f8:	0ec6e763          	bltu	a3,a2,802011e6 <uvmalloc+0xee>
    802010fc:	7139                	addi	sp,sp,-64
    802010fe:	fc06                	sd	ra,56(sp)
    80201100:	f822                	sd	s0,48(sp)
    80201102:	f426                	sd	s1,40(sp)
    80201104:	f04a                	sd	s2,32(sp)
    80201106:	ec4e                	sd	s3,24(sp)
    80201108:	e852                	sd	s4,16(sp)
    8020110a:	e456                	sd	s5,8(sp)
    8020110c:	e05a                	sd	s6,0(sp)
    8020110e:	0080                	addi	s0,sp,64
    80201110:	8a2a                	mv	s4,a0
    80201112:	8aae                	mv	s5,a1
    80201114:	8b36                	mv	s6,a3
    80201116:	6985                	lui	s3,0x1
    80201118:	19fd                	addi	s3,s3,-1
    8020111a:	964e                	add	a2,a2,s3
    8020111c:	79fd                	lui	s3,0xfffff
    8020111e:	013679b3          	and	s3,a2,s3
    80201122:	0cd9f463          	bgeu	s3,a3,802011ea <uvmalloc+0xf2>
    80201126:	894e                	mv	s2,s3
    80201128:	fffff097          	auipc	ra,0xfffff
    8020112c:	432080e7          	jalr	1074(ra) # 8020055a <kalloc>
    80201130:	84aa                	mv	s1,a0
    80201132:	c129                	beqz	a0,80201174 <uvmalloc+0x7c>
    80201134:	6605                	lui	a2,0x1
    80201136:	4581                	li	a1,0
    80201138:	fffff097          	auipc	ra,0xfffff
    8020113c:	62a080e7          	jalr	1578(ra) # 80200762 <memset>
    80201140:	4779                	li	a4,30
    80201142:	86a6                	mv	a3,s1
    80201144:	6605                	lui	a2,0x1
    80201146:	85ca                	mv	a1,s2
    80201148:	8552                	mv	a0,s4
    8020114a:	00000097          	auipc	ra,0x0
    8020114e:	b80080e7          	jalr	-1152(ra) # 80200cca <mappages>
    80201152:	e521                	bnez	a0,8020119a <uvmalloc+0xa2>
    80201154:	4739                	li	a4,14
    80201156:	86a6                	mv	a3,s1
    80201158:	6605                	lui	a2,0x1
    8020115a:	85ca                	mv	a1,s2
    8020115c:	8556                	mv	a0,s5
    8020115e:	00000097          	auipc	ra,0x0
    80201162:	b6c080e7          	jalr	-1172(ra) # 80200cca <mappages>
    80201166:	e929                	bnez	a0,802011b8 <uvmalloc+0xc0>
    80201168:	6785                	lui	a5,0x1
    8020116a:	993e                	add	s2,s2,a5
    8020116c:	fb696ee3          	bltu	s2,s6,80201128 <uvmalloc+0x30>
    80201170:	855a                	mv	a0,s6
    80201172:	a811                	j	80201186 <uvmalloc+0x8e>
    80201174:	86ce                	mv	a3,s3
    80201176:	864a                	mv	a2,s2
    80201178:	85d6                	mv	a1,s5
    8020117a:	8552                	mv	a0,s4
    8020117c:	00000097          	auipc	ra,0x0
    80201180:	f10080e7          	jalr	-240(ra) # 8020108c <uvmdealloc>
    80201184:	4501                	li	a0,0
    80201186:	70e2                	ld	ra,56(sp)
    80201188:	7442                	ld	s0,48(sp)
    8020118a:	74a2                	ld	s1,40(sp)
    8020118c:	7902                	ld	s2,32(sp)
    8020118e:	69e2                	ld	s3,24(sp)
    80201190:	6a42                	ld	s4,16(sp)
    80201192:	6aa2                	ld	s5,8(sp)
    80201194:	6b02                	ld	s6,0(sp)
    80201196:	6121                	addi	sp,sp,64
    80201198:	8082                	ret
    8020119a:	8526                	mv	a0,s1
    8020119c:	fffff097          	auipc	ra,0xfffff
    802011a0:	2aa080e7          	jalr	682(ra) # 80200446 <kfree>
    802011a4:	86ce                	mv	a3,s3
    802011a6:	864a                	mv	a2,s2
    802011a8:	85d6                	mv	a1,s5
    802011aa:	8552                	mv	a0,s4
    802011ac:	00000097          	auipc	ra,0x0
    802011b0:	ee0080e7          	jalr	-288(ra) # 8020108c <uvmdealloc>
    802011b4:	4501                	li	a0,0
    802011b6:	bfc1                	j	80201186 <uvmalloc+0x8e>
    802011b8:	41390633          	sub	a2,s2,s3
    802011bc:	8231                	srli	a2,a2,0xc
    802011be:	0006049b          	sext.w	s1,a2
    802011c2:	4685                	li	a3,1
    802011c4:	2605                	addiw	a2,a2,1
    802011c6:	85ce                	mv	a1,s3
    802011c8:	8552                	mv	a0,s4
    802011ca:	00000097          	auipc	ra,0x0
    802011ce:	d46080e7          	jalr	-698(ra) # 80200f10 <vmunmap>
    802011d2:	4681                	li	a3,0
    802011d4:	8626                	mv	a2,s1
    802011d6:	85ce                	mv	a1,s3
    802011d8:	8556                	mv	a0,s5
    802011da:	00000097          	auipc	ra,0x0
    802011de:	d36080e7          	jalr	-714(ra) # 80200f10 <vmunmap>
    802011e2:	4501                	li	a0,0
    802011e4:	b74d                	j	80201186 <uvmalloc+0x8e>
    802011e6:	8532                	mv	a0,a2
    802011e8:	8082                	ret
    802011ea:	8536                	mv	a0,a3
    802011ec:	bf69                	j	80201186 <uvmalloc+0x8e>

00000000802011ee <freewalk>:
    802011ee:	7179                	addi	sp,sp,-48
    802011f0:	f406                	sd	ra,40(sp)
    802011f2:	f022                	sd	s0,32(sp)
    802011f4:	ec26                	sd	s1,24(sp)
    802011f6:	e84a                	sd	s2,16(sp)
    802011f8:	e44e                	sd	s3,8(sp)
    802011fa:	e052                	sd	s4,0(sp)
    802011fc:	1800                	addi	s0,sp,48
    802011fe:	8a2a                	mv	s4,a0
    80201200:	84aa                	mv	s1,a0
    80201202:	6905                	lui	s2,0x1
    80201204:	992a                	add	s2,s2,a0
    80201206:	4985                	li	s3,1
    80201208:	a821                	j	80201220 <freewalk+0x32>
    8020120a:	8129                	srli	a0,a0,0xa
    8020120c:	0532                	slli	a0,a0,0xc
    8020120e:	00000097          	auipc	ra,0x0
    80201212:	fe0080e7          	jalr	-32(ra) # 802011ee <freewalk>
    80201216:	0004b023          	sd	zero,0(s1)
    8020121a:	04a1                	addi	s1,s1,8
    8020121c:	03248163          	beq	s1,s2,8020123e <freewalk+0x50>
    80201220:	6088                	ld	a0,0(s1)
    80201222:	00f57793          	andi	a5,a0,15
    80201226:	ff3782e3          	beq	a5,s3,8020120a <freewalk+0x1c>
    8020122a:	8905                	andi	a0,a0,1
    8020122c:	d57d                	beqz	a0,8020121a <freewalk+0x2c>
    8020122e:	00008517          	auipc	a0,0x8
    80201232:	27250513          	addi	a0,a0,626 # 802094a0 <digits+0x120>
    80201236:	fffff097          	auipc	ra,0xfffff
    8020123a:	f0e080e7          	jalr	-242(ra) # 80200144 <panic>
    8020123e:	8552                	mv	a0,s4
    80201240:	fffff097          	auipc	ra,0xfffff
    80201244:	206080e7          	jalr	518(ra) # 80200446 <kfree>
    80201248:	70a2                	ld	ra,40(sp)
    8020124a:	7402                	ld	s0,32(sp)
    8020124c:	64e2                	ld	s1,24(sp)
    8020124e:	6942                	ld	s2,16(sp)
    80201250:	69a2                	ld	s3,8(sp)
    80201252:	6a02                	ld	s4,0(sp)
    80201254:	6145                	addi	sp,sp,48
    80201256:	8082                	ret

0000000080201258 <uvmfree>:
    80201258:	1101                	addi	sp,sp,-32
    8020125a:	ec06                	sd	ra,24(sp)
    8020125c:	e822                	sd	s0,16(sp)
    8020125e:	e426                	sd	s1,8(sp)
    80201260:	1000                	addi	s0,sp,32
    80201262:	84aa                	mv	s1,a0
    80201264:	e999                	bnez	a1,8020127a <uvmfree+0x22>
    80201266:	8526                	mv	a0,s1
    80201268:	00000097          	auipc	ra,0x0
    8020126c:	f86080e7          	jalr	-122(ra) # 802011ee <freewalk>
    80201270:	60e2                	ld	ra,24(sp)
    80201272:	6442                	ld	s0,16(sp)
    80201274:	64a2                	ld	s1,8(sp)
    80201276:	6105                	addi	sp,sp,32
    80201278:	8082                	ret
    8020127a:	6605                	lui	a2,0x1
    8020127c:	167d                	addi	a2,a2,-1
    8020127e:	962e                	add	a2,a2,a1
    80201280:	4685                	li	a3,1
    80201282:	8231                	srli	a2,a2,0xc
    80201284:	4581                	li	a1,0
    80201286:	00000097          	auipc	ra,0x0
    8020128a:	c8a080e7          	jalr	-886(ra) # 80200f10 <vmunmap>
    8020128e:	bfe1                	j	80201266 <uvmfree+0xe>

0000000080201290 <uvmcopy>:
    80201290:	10068563          	beqz	a3,8020139a <uvmcopy+0x10a>
    80201294:	715d                	addi	sp,sp,-80
    80201296:	e486                	sd	ra,72(sp)
    80201298:	e0a2                	sd	s0,64(sp)
    8020129a:	fc26                	sd	s1,56(sp)
    8020129c:	f84a                	sd	s2,48(sp)
    8020129e:	f44e                	sd	s3,40(sp)
    802012a0:	f052                	sd	s4,32(sp)
    802012a2:	ec56                	sd	s5,24(sp)
    802012a4:	e85a                	sd	s6,16(sp)
    802012a6:	e45e                	sd	s7,8(sp)
    802012a8:	e062                	sd	s8,0(sp)
    802012aa:	0880                	addi	s0,sp,80
    802012ac:	8baa                	mv	s7,a0
    802012ae:	8a2e                	mv	s4,a1
    802012b0:	8b32                	mv	s6,a2
    802012b2:	8ab6                	mv	s5,a3
    802012b4:	4981                	li	s3,0
    802012b6:	a011                	j	802012ba <uvmcopy+0x2a>
    802012b8:	89e2                	mv	s3,s8
    802012ba:	4601                	li	a2,0
    802012bc:	85ce                	mv	a1,s3
    802012be:	855e                	mv	a0,s7
    802012c0:	00000097          	auipc	ra,0x0
    802012c4:	8aa080e7          	jalr	-1878(ra) # 80200b6a <walk>
    802012c8:	c135                	beqz	a0,8020132c <uvmcopy+0x9c>
    802012ca:	6118                	ld	a4,0(a0)
    802012cc:	00177793          	andi	a5,a4,1
    802012d0:	c7b5                	beqz	a5,8020133c <uvmcopy+0xac>
    802012d2:	00a75593          	srli	a1,a4,0xa
    802012d6:	00c59c13          	slli	s8,a1,0xc
    802012da:	3ff77493          	andi	s1,a4,1023
    802012de:	fffff097          	auipc	ra,0xfffff
    802012e2:	27c080e7          	jalr	636(ra) # 8020055a <kalloc>
    802012e6:	892a                	mv	s2,a0
    802012e8:	c92d                	beqz	a0,8020135a <uvmcopy+0xca>
    802012ea:	6605                	lui	a2,0x1
    802012ec:	85e2                	mv	a1,s8
    802012ee:	fffff097          	auipc	ra,0xfffff
    802012f2:	4d4080e7          	jalr	1236(ra) # 802007c2 <memmove>
    802012f6:	2481                	sext.w	s1,s1
    802012f8:	8726                	mv	a4,s1
    802012fa:	86ca                	mv	a3,s2
    802012fc:	6605                	lui	a2,0x1
    802012fe:	85ce                	mv	a1,s3
    80201300:	8552                	mv	a0,s4
    80201302:	00000097          	auipc	ra,0x0
    80201306:	9c8080e7          	jalr	-1592(ra) # 80200cca <mappages>
    8020130a:	e129                	bnez	a0,8020134c <uvmcopy+0xbc>
    8020130c:	6c05                	lui	s8,0x1
    8020130e:	9c4e                	add	s8,s8,s3
    80201310:	3ef4f713          	andi	a4,s1,1007
    80201314:	86ca                	mv	a3,s2
    80201316:	6605                	lui	a2,0x1
    80201318:	85ce                	mv	a1,s3
    8020131a:	855a                	mv	a0,s6
    8020131c:	00000097          	auipc	ra,0x0
    80201320:	9ae080e7          	jalr	-1618(ra) # 80200cca <mappages>
    80201324:	ed05                	bnez	a0,8020135c <uvmcopy+0xcc>
    80201326:	f95c69e3          	bltu	s8,s5,802012b8 <uvmcopy+0x28>
    8020132a:	a8a1                	j	80201382 <uvmcopy+0xf2>
    8020132c:	00008517          	auipc	a0,0x8
    80201330:	18450513          	addi	a0,a0,388 # 802094b0 <digits+0x130>
    80201334:	fffff097          	auipc	ra,0xfffff
    80201338:	e10080e7          	jalr	-496(ra) # 80200144 <panic>
    8020133c:	00008517          	auipc	a0,0x8
    80201340:	19450513          	addi	a0,a0,404 # 802094d0 <digits+0x150>
    80201344:	fffff097          	auipc	ra,0xfffff
    80201348:	e00080e7          	jalr	-512(ra) # 80200144 <panic>
    8020134c:	854a                	mv	a0,s2
    8020134e:	fffff097          	auipc	ra,0xfffff
    80201352:	0f8080e7          	jalr	248(ra) # 80200446 <kfree>
    80201356:	8c4e                	mv	s8,s3
    80201358:	a011                	j	8020135c <uvmcopy+0xcc>
    8020135a:	8c4e                	mv	s8,s3
    8020135c:	4681                	li	a3,0
    8020135e:	00c9d613          	srli	a2,s3,0xc
    80201362:	4581                	li	a1,0
    80201364:	855a                	mv	a0,s6
    80201366:	00000097          	auipc	ra,0x0
    8020136a:	baa080e7          	jalr	-1110(ra) # 80200f10 <vmunmap>
    8020136e:	4685                	li	a3,1
    80201370:	00cc5613          	srli	a2,s8,0xc
    80201374:	4581                	li	a1,0
    80201376:	8552                	mv	a0,s4
    80201378:	00000097          	auipc	ra,0x0
    8020137c:	b98080e7          	jalr	-1128(ra) # 80200f10 <vmunmap>
    80201380:	557d                	li	a0,-1
    80201382:	60a6                	ld	ra,72(sp)
    80201384:	6406                	ld	s0,64(sp)
    80201386:	74e2                	ld	s1,56(sp)
    80201388:	7942                	ld	s2,48(sp)
    8020138a:	79a2                	ld	s3,40(sp)
    8020138c:	7a02                	ld	s4,32(sp)
    8020138e:	6ae2                	ld	s5,24(sp)
    80201390:	6b42                	ld	s6,16(sp)
    80201392:	6ba2                	ld	s7,8(sp)
    80201394:	6c02                	ld	s8,0(sp)
    80201396:	6161                	addi	sp,sp,80
    80201398:	8082                	ret
    8020139a:	4501                	li	a0,0
    8020139c:	8082                	ret

000000008020139e <uvmclear>:
    8020139e:	1141                	addi	sp,sp,-16
    802013a0:	e406                	sd	ra,8(sp)
    802013a2:	e022                	sd	s0,0(sp)
    802013a4:	0800                	addi	s0,sp,16
    802013a6:	4601                	li	a2,0
    802013a8:	fffff097          	auipc	ra,0xfffff
    802013ac:	7c2080e7          	jalr	1986(ra) # 80200b6a <walk>
    802013b0:	c901                	beqz	a0,802013c0 <uvmclear+0x22>
    802013b2:	611c                	ld	a5,0(a0)
    802013b4:	9bbd                	andi	a5,a5,-17
    802013b6:	e11c                	sd	a5,0(a0)
    802013b8:	60a2                	ld	ra,8(sp)
    802013ba:	6402                	ld	s0,0(sp)
    802013bc:	0141                	addi	sp,sp,16
    802013be:	8082                	ret
    802013c0:	00008517          	auipc	a0,0x8
    802013c4:	13050513          	addi	a0,a0,304 # 802094f0 <digits+0x170>
    802013c8:	fffff097          	auipc	ra,0xfffff
    802013cc:	d7c080e7          	jalr	-644(ra) # 80200144 <panic>

00000000802013d0 <copyout>:
    802013d0:	c6bd                	beqz	a3,8020143e <copyout+0x6e>
    802013d2:	715d                	addi	sp,sp,-80
    802013d4:	e486                	sd	ra,72(sp)
    802013d6:	e0a2                	sd	s0,64(sp)
    802013d8:	fc26                	sd	s1,56(sp)
    802013da:	f84a                	sd	s2,48(sp)
    802013dc:	f44e                	sd	s3,40(sp)
    802013de:	f052                	sd	s4,32(sp)
    802013e0:	ec56                	sd	s5,24(sp)
    802013e2:	e85a                	sd	s6,16(sp)
    802013e4:	e45e                	sd	s7,8(sp)
    802013e6:	e062                	sd	s8,0(sp)
    802013e8:	0880                	addi	s0,sp,80
    802013ea:	8b2a                	mv	s6,a0
    802013ec:	8c2e                	mv	s8,a1
    802013ee:	8a32                	mv	s4,a2
    802013f0:	89b6                	mv	s3,a3
    802013f2:	7bfd                	lui	s7,0xfffff
    802013f4:	6a85                	lui	s5,0x1
    802013f6:	a015                	j	8020141a <copyout+0x4a>
    802013f8:	9562                	add	a0,a0,s8
    802013fa:	0004861b          	sext.w	a2,s1
    802013fe:	85d2                	mv	a1,s4
    80201400:	41250533          	sub	a0,a0,s2
    80201404:	fffff097          	auipc	ra,0xfffff
    80201408:	3be080e7          	jalr	958(ra) # 802007c2 <memmove>
    8020140c:	409989b3          	sub	s3,s3,s1
    80201410:	9a26                	add	s4,s4,s1
    80201412:	01590c33          	add	s8,s2,s5
    80201416:	02098263          	beqz	s3,8020143a <copyout+0x6a>
    8020141a:	017c7933          	and	s2,s8,s7
    8020141e:	85ca                	mv	a1,s2
    80201420:	855a                	mv	a0,s6
    80201422:	fffff097          	auipc	ra,0xfffff
    80201426:	7ee080e7          	jalr	2030(ra) # 80200c10 <walkaddr>
    8020142a:	cd01                	beqz	a0,80201442 <copyout+0x72>
    8020142c:	418904b3          	sub	s1,s2,s8
    80201430:	94d6                	add	s1,s1,s5
    80201432:	fc99f3e3          	bgeu	s3,s1,802013f8 <copyout+0x28>
    80201436:	84ce                	mv	s1,s3
    80201438:	b7c1                	j	802013f8 <copyout+0x28>
    8020143a:	4501                	li	a0,0
    8020143c:	a021                	j	80201444 <copyout+0x74>
    8020143e:	4501                	li	a0,0
    80201440:	8082                	ret
    80201442:	557d                	li	a0,-1
    80201444:	60a6                	ld	ra,72(sp)
    80201446:	6406                	ld	s0,64(sp)
    80201448:	74e2                	ld	s1,56(sp)
    8020144a:	7942                	ld	s2,48(sp)
    8020144c:	79a2                	ld	s3,40(sp)
    8020144e:	7a02                	ld	s4,32(sp)
    80201450:	6ae2                	ld	s5,24(sp)
    80201452:	6b42                	ld	s6,16(sp)
    80201454:	6ba2                	ld	s7,8(sp)
    80201456:	6c02                	ld	s8,0(sp)
    80201458:	6161                	addi	sp,sp,80
    8020145a:	8082                	ret

000000008020145c <copyout2>:
    8020145c:	7179                	addi	sp,sp,-48
    8020145e:	f406                	sd	ra,40(sp)
    80201460:	f022                	sd	s0,32(sp)
    80201462:	ec26                	sd	s1,24(sp)
    80201464:	e84a                	sd	s2,16(sp)
    80201466:	e44e                	sd	s3,8(sp)
    80201468:	1800                	addi	s0,sp,48
    8020146a:	84aa                	mv	s1,a0
    8020146c:	89ae                	mv	s3,a1
    8020146e:	8932                	mv	s2,a2
    80201470:	00000097          	auipc	ra,0x0
    80201474:	6c8080e7          	jalr	1736(ra) # 80201b38 <myproc>
    80201478:	653c                	ld	a5,72(a0)
    8020147a:	01248733          	add	a4,s1,s2
    8020147e:	02e7e463          	bltu	a5,a4,802014a6 <copyout2+0x4a>
    80201482:	02f4f463          	bgeu	s1,a5,802014aa <copyout2+0x4e>
    80201486:	0009061b          	sext.w	a2,s2
    8020148a:	85ce                	mv	a1,s3
    8020148c:	8526                	mv	a0,s1
    8020148e:	fffff097          	auipc	ra,0xfffff
    80201492:	334080e7          	jalr	820(ra) # 802007c2 <memmove>
    80201496:	4501                	li	a0,0
    80201498:	70a2                	ld	ra,40(sp)
    8020149a:	7402                	ld	s0,32(sp)
    8020149c:	64e2                	ld	s1,24(sp)
    8020149e:	6942                	ld	s2,16(sp)
    802014a0:	69a2                	ld	s3,8(sp)
    802014a2:	6145                	addi	sp,sp,48
    802014a4:	8082                	ret
    802014a6:	557d                	li	a0,-1
    802014a8:	bfc5                	j	80201498 <copyout2+0x3c>
    802014aa:	557d                	li	a0,-1
    802014ac:	b7f5                	j	80201498 <copyout2+0x3c>

00000000802014ae <copyin>:
    802014ae:	c6bd                	beqz	a3,8020151c <copyin+0x6e>
    802014b0:	715d                	addi	sp,sp,-80
    802014b2:	e486                	sd	ra,72(sp)
    802014b4:	e0a2                	sd	s0,64(sp)
    802014b6:	fc26                	sd	s1,56(sp)
    802014b8:	f84a                	sd	s2,48(sp)
    802014ba:	f44e                	sd	s3,40(sp)
    802014bc:	f052                	sd	s4,32(sp)
    802014be:	ec56                	sd	s5,24(sp)
    802014c0:	e85a                	sd	s6,16(sp)
    802014c2:	e45e                	sd	s7,8(sp)
    802014c4:	e062                	sd	s8,0(sp)
    802014c6:	0880                	addi	s0,sp,80
    802014c8:	8b2a                	mv	s6,a0
    802014ca:	8a2e                	mv	s4,a1
    802014cc:	8c32                	mv	s8,a2
    802014ce:	89b6                	mv	s3,a3
    802014d0:	7bfd                	lui	s7,0xfffff
    802014d2:	6a85                	lui	s5,0x1
    802014d4:	a015                	j	802014f8 <copyin+0x4a>
    802014d6:	9562                	add	a0,a0,s8
    802014d8:	0004861b          	sext.w	a2,s1
    802014dc:	412505b3          	sub	a1,a0,s2
    802014e0:	8552                	mv	a0,s4
    802014e2:	fffff097          	auipc	ra,0xfffff
    802014e6:	2e0080e7          	jalr	736(ra) # 802007c2 <memmove>
    802014ea:	409989b3          	sub	s3,s3,s1
    802014ee:	9a26                	add	s4,s4,s1
    802014f0:	01590c33          	add	s8,s2,s5
    802014f4:	02098263          	beqz	s3,80201518 <copyin+0x6a>
    802014f8:	017c7933          	and	s2,s8,s7
    802014fc:	85ca                	mv	a1,s2
    802014fe:	855a                	mv	a0,s6
    80201500:	fffff097          	auipc	ra,0xfffff
    80201504:	710080e7          	jalr	1808(ra) # 80200c10 <walkaddr>
    80201508:	cd01                	beqz	a0,80201520 <copyin+0x72>
    8020150a:	418904b3          	sub	s1,s2,s8
    8020150e:	94d6                	add	s1,s1,s5
    80201510:	fc99f3e3          	bgeu	s3,s1,802014d6 <copyin+0x28>
    80201514:	84ce                	mv	s1,s3
    80201516:	b7c1                	j	802014d6 <copyin+0x28>
    80201518:	4501                	li	a0,0
    8020151a:	a021                	j	80201522 <copyin+0x74>
    8020151c:	4501                	li	a0,0
    8020151e:	8082                	ret
    80201520:	557d                	li	a0,-1
    80201522:	60a6                	ld	ra,72(sp)
    80201524:	6406                	ld	s0,64(sp)
    80201526:	74e2                	ld	s1,56(sp)
    80201528:	7942                	ld	s2,48(sp)
    8020152a:	79a2                	ld	s3,40(sp)
    8020152c:	7a02                	ld	s4,32(sp)
    8020152e:	6ae2                	ld	s5,24(sp)
    80201530:	6b42                	ld	s6,16(sp)
    80201532:	6ba2                	ld	s7,8(sp)
    80201534:	6c02                	ld	s8,0(sp)
    80201536:	6161                	addi	sp,sp,80
    80201538:	8082                	ret

000000008020153a <copyin2>:
    8020153a:	7179                	addi	sp,sp,-48
    8020153c:	f406                	sd	ra,40(sp)
    8020153e:	f022                	sd	s0,32(sp)
    80201540:	ec26                	sd	s1,24(sp)
    80201542:	e84a                	sd	s2,16(sp)
    80201544:	e44e                	sd	s3,8(sp)
    80201546:	1800                	addi	s0,sp,48
    80201548:	89aa                	mv	s3,a0
    8020154a:	84ae                	mv	s1,a1
    8020154c:	8932                	mv	s2,a2
    8020154e:	00000097          	auipc	ra,0x0
    80201552:	5ea080e7          	jalr	1514(ra) # 80201b38 <myproc>
    80201556:	653c                	ld	a5,72(a0)
    80201558:	01248733          	add	a4,s1,s2
    8020155c:	02e7e463          	bltu	a5,a4,80201584 <copyin2+0x4a>
    80201560:	02f4f463          	bgeu	s1,a5,80201588 <copyin2+0x4e>
    80201564:	0009061b          	sext.w	a2,s2
    80201568:	85a6                	mv	a1,s1
    8020156a:	854e                	mv	a0,s3
    8020156c:	fffff097          	auipc	ra,0xfffff
    80201570:	256080e7          	jalr	598(ra) # 802007c2 <memmove>
    80201574:	4501                	li	a0,0
    80201576:	70a2                	ld	ra,40(sp)
    80201578:	7402                	ld	s0,32(sp)
    8020157a:	64e2                	ld	s1,24(sp)
    8020157c:	6942                	ld	s2,16(sp)
    8020157e:	69a2                	ld	s3,8(sp)
    80201580:	6145                	addi	sp,sp,48
    80201582:	8082                	ret
    80201584:	557d                	li	a0,-1
    80201586:	bfc5                	j	80201576 <copyin2+0x3c>
    80201588:	557d                	li	a0,-1
    8020158a:	b7f5                	j	80201576 <copyin2+0x3c>

000000008020158c <copyinstr>:
    8020158c:	c6c5                	beqz	a3,80201634 <copyinstr+0xa8>
    8020158e:	715d                	addi	sp,sp,-80
    80201590:	e486                	sd	ra,72(sp)
    80201592:	e0a2                	sd	s0,64(sp)
    80201594:	fc26                	sd	s1,56(sp)
    80201596:	f84a                	sd	s2,48(sp)
    80201598:	f44e                	sd	s3,40(sp)
    8020159a:	f052                	sd	s4,32(sp)
    8020159c:	ec56                	sd	s5,24(sp)
    8020159e:	e85a                	sd	s6,16(sp)
    802015a0:	e45e                	sd	s7,8(sp)
    802015a2:	0880                	addi	s0,sp,80
    802015a4:	8a2a                	mv	s4,a0
    802015a6:	8b2e                	mv	s6,a1
    802015a8:	8bb2                	mv	s7,a2
    802015aa:	84b6                	mv	s1,a3
    802015ac:	7afd                	lui	s5,0xfffff
    802015ae:	6985                	lui	s3,0x1
    802015b0:	a035                	j	802015dc <copyinstr+0x50>
    802015b2:	00078023          	sb	zero,0(a5) # 1000 <_entry-0x801ff000>
    802015b6:	4785                	li	a5,1
    802015b8:	0017b793          	seqz	a5,a5
    802015bc:	40f00533          	neg	a0,a5
    802015c0:	60a6                	ld	ra,72(sp)
    802015c2:	6406                	ld	s0,64(sp)
    802015c4:	74e2                	ld	s1,56(sp)
    802015c6:	7942                	ld	s2,48(sp)
    802015c8:	79a2                	ld	s3,40(sp)
    802015ca:	7a02                	ld	s4,32(sp)
    802015cc:	6ae2                	ld	s5,24(sp)
    802015ce:	6b42                	ld	s6,16(sp)
    802015d0:	6ba2                	ld	s7,8(sp)
    802015d2:	6161                	addi	sp,sp,80
    802015d4:	8082                	ret
    802015d6:	01390bb3          	add	s7,s2,s3
    802015da:	c8a9                	beqz	s1,8020162c <copyinstr+0xa0>
    802015dc:	015bf933          	and	s2,s7,s5
    802015e0:	85ca                	mv	a1,s2
    802015e2:	8552                	mv	a0,s4
    802015e4:	fffff097          	auipc	ra,0xfffff
    802015e8:	62c080e7          	jalr	1580(ra) # 80200c10 <walkaddr>
    802015ec:	c131                	beqz	a0,80201630 <copyinstr+0xa4>
    802015ee:	41790833          	sub	a6,s2,s7
    802015f2:	984e                	add	a6,a6,s3
    802015f4:	0104f363          	bgeu	s1,a6,802015fa <copyinstr+0x6e>
    802015f8:	8826                	mv	a6,s1
    802015fa:	955e                	add	a0,a0,s7
    802015fc:	41250533          	sub	a0,a0,s2
    80201600:	fc080be3          	beqz	a6,802015d6 <copyinstr+0x4a>
    80201604:	985a                	add	a6,a6,s6
    80201606:	87da                	mv	a5,s6
    80201608:	41650633          	sub	a2,a0,s6
    8020160c:	14fd                	addi	s1,s1,-1
    8020160e:	9b26                	add	s6,s6,s1
    80201610:	00f60733          	add	a4,a2,a5
    80201614:	00074703          	lbu	a4,0(a4) # fffffffffffff000 <kernel_end+0xffffffff7fbcf000>
    80201618:	df49                	beqz	a4,802015b2 <copyinstr+0x26>
    8020161a:	00e78023          	sb	a4,0(a5)
    8020161e:	40fb04b3          	sub	s1,s6,a5
    80201622:	0785                	addi	a5,a5,1
    80201624:	ff0796e3          	bne	a5,a6,80201610 <copyinstr+0x84>
    80201628:	8b42                	mv	s6,a6
    8020162a:	b775                	j	802015d6 <copyinstr+0x4a>
    8020162c:	4781                	li	a5,0
    8020162e:	b769                	j	802015b8 <copyinstr+0x2c>
    80201630:	557d                	li	a0,-1
    80201632:	b779                	j	802015c0 <copyinstr+0x34>
    80201634:	4781                	li	a5,0
    80201636:	0017b793          	seqz	a5,a5
    8020163a:	40f00533          	neg	a0,a5
    8020163e:	8082                	ret

0000000080201640 <copyinstr2>:
    80201640:	7179                	addi	sp,sp,-48
    80201642:	f406                	sd	ra,40(sp)
    80201644:	f022                	sd	s0,32(sp)
    80201646:	ec26                	sd	s1,24(sp)
    80201648:	e84a                	sd	s2,16(sp)
    8020164a:	e44e                	sd	s3,8(sp)
    8020164c:	1800                	addi	s0,sp,48
    8020164e:	89aa                	mv	s3,a0
    80201650:	84ae                	mv	s1,a1
    80201652:	8932                	mv	s2,a2
    80201654:	00000097          	auipc	ra,0x0
    80201658:	4e4080e7          	jalr	1252(ra) # 80201b38 <myproc>
    8020165c:	6534                	ld	a3,72(a0)
    8020165e:	04d4f363          	bgeu	s1,a3,802016a4 <copyinstr2+0x64>
    80201662:	04090363          	beqz	s2,802016a8 <copyinstr2+0x68>
    80201666:	01298633          	add	a2,s3,s2
    8020166a:	8e85                	sub	a3,a3,s1
    8020166c:	96ce                	add	a3,a3,s3
    8020166e:	87ce                	mv	a5,s3
    80201670:	413485b3          	sub	a1,s1,s3
    80201674:	00b78733          	add	a4,a5,a1
    80201678:	00074703          	lbu	a4,0(a4)
    8020167c:	cb11                	beqz	a4,80201690 <copyinstr2+0x50>
    8020167e:	00e78023          	sb	a4,0(a5)
    80201682:	0785                	addi	a5,a5,1
    80201684:	02d78463          	beq	a5,a3,802016ac <copyinstr2+0x6c>
    80201688:	fec796e3          	bne	a5,a2,80201674 <copyinstr2+0x34>
    8020168c:	557d                	li	a0,-1
    8020168e:	a021                	j	80201696 <copyinstr2+0x56>
    80201690:	00078023          	sb	zero,0(a5)
    80201694:	4501                	li	a0,0
    80201696:	70a2                	ld	ra,40(sp)
    80201698:	7402                	ld	s0,32(sp)
    8020169a:	64e2                	ld	s1,24(sp)
    8020169c:	6942                	ld	s2,16(sp)
    8020169e:	69a2                	ld	s3,8(sp)
    802016a0:	6145                	addi	sp,sp,48
    802016a2:	8082                	ret
    802016a4:	557d                	li	a0,-1
    802016a6:	bfc5                	j	80201696 <copyinstr2+0x56>
    802016a8:	557d                	li	a0,-1
    802016aa:	b7f5                	j	80201696 <copyinstr2+0x56>
    802016ac:	557d                	li	a0,-1
    802016ae:	b7e5                	j	80201696 <copyinstr2+0x56>

00000000802016b0 <kfreewalk>:
    802016b0:	7179                	addi	sp,sp,-48
    802016b2:	f406                	sd	ra,40(sp)
    802016b4:	f022                	sd	s0,32(sp)
    802016b6:	ec26                	sd	s1,24(sp)
    802016b8:	e84a                	sd	s2,16(sp)
    802016ba:	e44e                	sd	s3,8(sp)
    802016bc:	e052                	sd	s4,0(sp)
    802016be:	1800                	addi	s0,sp,48
    802016c0:	8a2a                	mv	s4,a0
    802016c2:	84aa                	mv	s1,a0
    802016c4:	6905                	lui	s2,0x1
    802016c6:	992a                	add	s2,s2,a0
    802016c8:	4985                	li	s3,1
    802016ca:	a829                	j	802016e4 <kfreewalk+0x34>
    802016cc:	83a9                	srli	a5,a5,0xa
    802016ce:	00c79513          	slli	a0,a5,0xc
    802016d2:	00000097          	auipc	ra,0x0
    802016d6:	fde080e7          	jalr	-34(ra) # 802016b0 <kfreewalk>
    802016da:	0004b023          	sd	zero,0(s1)
    802016de:	04a1                	addi	s1,s1,8
    802016e0:	01248963          	beq	s1,s2,802016f2 <kfreewalk+0x42>
    802016e4:	609c                	ld	a5,0(s1)
    802016e6:	00f7f713          	andi	a4,a5,15
    802016ea:	ff3701e3          	beq	a4,s3,802016cc <kfreewalk+0x1c>
    802016ee:	8b85                	andi	a5,a5,1
    802016f0:	d7fd                	beqz	a5,802016de <kfreewalk+0x2e>
    802016f2:	8552                	mv	a0,s4
    802016f4:	fffff097          	auipc	ra,0xfffff
    802016f8:	d52080e7          	jalr	-686(ra) # 80200446 <kfree>
    802016fc:	70a2                	ld	ra,40(sp)
    802016fe:	7402                	ld	s0,32(sp)
    80201700:	64e2                	ld	s1,24(sp)
    80201702:	6942                	ld	s2,16(sp)
    80201704:	69a2                	ld	s3,8(sp)
    80201706:	6a02                	ld	s4,0(sp)
    80201708:	6145                	addi	sp,sp,48
    8020170a:	8082                	ret

000000008020170c <kvmfreeusr>:
    8020170c:	1101                	addi	sp,sp,-32
    8020170e:	ec06                	sd	ra,24(sp)
    80201710:	e822                	sd	s0,16(sp)
    80201712:	e426                	sd	s1,8(sp)
    80201714:	1000                	addi	s0,sp,32
    80201716:	84aa                	mv	s1,a0
    80201718:	6108                	ld	a0,0(a0)
    8020171a:	00f57713          	andi	a4,a0,15
    8020171e:	4785                	li	a5,1
    80201720:	00f70d63          	beq	a4,a5,8020173a <kvmfreeusr+0x2e>
    80201724:	6488                	ld	a0,8(s1)
    80201726:	00f57713          	andi	a4,a0,15
    8020172a:	4785                	li	a5,1
    8020172c:	02f70063          	beq	a4,a5,8020174c <kvmfreeusr+0x40>
    80201730:	60e2                	ld	ra,24(sp)
    80201732:	6442                	ld	s0,16(sp)
    80201734:	64a2                	ld	s1,8(sp)
    80201736:	6105                	addi	sp,sp,32
    80201738:	8082                	ret
    8020173a:	8129                	srli	a0,a0,0xa
    8020173c:	0532                	slli	a0,a0,0xc
    8020173e:	00000097          	auipc	ra,0x0
    80201742:	f72080e7          	jalr	-142(ra) # 802016b0 <kfreewalk>
    80201746:	0004b023          	sd	zero,0(s1)
    8020174a:	bfe9                	j	80201724 <kvmfreeusr+0x18>
    8020174c:	8129                	srli	a0,a0,0xa
    8020174e:	0532                	slli	a0,a0,0xc
    80201750:	00000097          	auipc	ra,0x0
    80201754:	f60080e7          	jalr	-160(ra) # 802016b0 <kfreewalk>
    80201758:	0004b423          	sd	zero,8(s1)
    8020175c:	bfd1                	j	80201730 <kvmfreeusr+0x24>

000000008020175e <kvmfree>:
    8020175e:	1101                	addi	sp,sp,-32
    80201760:	ec06                	sd	ra,24(sp)
    80201762:	e822                	sd	s0,16(sp)
    80201764:	e426                	sd	s1,8(sp)
    80201766:	1000                	addi	s0,sp,32
    80201768:	84aa                	mv	s1,a0
    8020176a:	e185                	bnez	a1,8020178a <kvmfree+0x2c>
    8020176c:	8526                	mv	a0,s1
    8020176e:	00000097          	auipc	ra,0x0
    80201772:	f9e080e7          	jalr	-98(ra) # 8020170c <kvmfreeusr>
    80201776:	8526                	mv	a0,s1
    80201778:	fffff097          	auipc	ra,0xfffff
    8020177c:	cce080e7          	jalr	-818(ra) # 80200446 <kfree>
    80201780:	60e2                	ld	ra,24(sp)
    80201782:	6442                	ld	s0,16(sp)
    80201784:	64a2                	ld	s1,8(sp)
    80201786:	6105                	addi	sp,sp,32
    80201788:	8082                	ret
    8020178a:	4685                	li	a3,1
    8020178c:	4605                	li	a2,1
    8020178e:	0fb00593          	li	a1,251
    80201792:	05fa                	slli	a1,a1,0x1e
    80201794:	fffff097          	auipc	ra,0xfffff
    80201798:	77c080e7          	jalr	1916(ra) # 80200f10 <vmunmap>
    8020179c:	7d84b503          	ld	a0,2008(s1)
    802017a0:	00f57713          	andi	a4,a0,15
    802017a4:	4785                	li	a5,1
    802017a6:	fcf713e3          	bne	a4,a5,8020176c <kvmfree+0xe>
    802017aa:	8129                	srli	a0,a0,0xa
    802017ac:	0532                	slli	a0,a0,0xc
    802017ae:	00000097          	auipc	ra,0x0
    802017b2:	f02080e7          	jalr	-254(ra) # 802016b0 <kfreewalk>
    802017b6:	bf5d                	j	8020176c <kvmfree+0xe>

00000000802017b8 <proc_kpagetable>:
    802017b8:	1101                	addi	sp,sp,-32
    802017ba:	ec06                	sd	ra,24(sp)
    802017bc:	e822                	sd	s0,16(sp)
    802017be:	e426                	sd	s1,8(sp)
    802017c0:	1000                	addi	s0,sp,32
    802017c2:	fffff097          	auipc	ra,0xfffff
    802017c6:	d98080e7          	jalr	-616(ra) # 8020055a <kalloc>
    802017ca:	84aa                	mv	s1,a0
    802017cc:	c91d                	beqz	a0,80201802 <proc_kpagetable+0x4a>
    802017ce:	6605                	lui	a2,0x1
    802017d0:	0021c597          	auipc	a1,0x21c
    802017d4:	8985b583          	ld	a1,-1896(a1) # 8041d068 <kernel_pagetable>
    802017d8:	fffff097          	auipc	ra,0xfffff
    802017dc:	fea080e7          	jalr	-22(ra) # 802007c2 <memmove>
    802017e0:	fffff097          	auipc	ra,0xfffff
    802017e4:	d7a080e7          	jalr	-646(ra) # 8020055a <kalloc>
    802017e8:	86aa                	mv	a3,a0
    802017ea:	c115                	beqz	a0,8020180e <proc_kpagetable+0x56>
    802017ec:	4719                	li	a4,6
    802017ee:	6605                	lui	a2,0x1
    802017f0:	0fb00593          	li	a1,251
    802017f4:	05fa                	slli	a1,a1,0x1e
    802017f6:	8526                	mv	a0,s1
    802017f8:	fffff097          	auipc	ra,0xfffff
    802017fc:	4d2080e7          	jalr	1234(ra) # 80200cca <mappages>
    80201800:	e519                	bnez	a0,8020180e <proc_kpagetable+0x56>
    80201802:	8526                	mv	a0,s1
    80201804:	60e2                	ld	ra,24(sp)
    80201806:	6442                	ld	s0,16(sp)
    80201808:	64a2                	ld	s1,8(sp)
    8020180a:	6105                	addi	sp,sp,32
    8020180c:	8082                	ret
    8020180e:	4585                	li	a1,1
    80201810:	8526                	mv	a0,s1
    80201812:	00000097          	auipc	ra,0x0
    80201816:	f4c080e7          	jalr	-180(ra) # 8020175e <kvmfree>
    8020181a:	4481                	li	s1,0
    8020181c:	b7dd                	j	80201802 <proc_kpagetable+0x4a>

000000008020181e <vmprint>:
    8020181e:	7119                	addi	sp,sp,-128
    80201820:	fc86                	sd	ra,120(sp)
    80201822:	f8a2                	sd	s0,112(sp)
    80201824:	f4a6                	sd	s1,104(sp)
    80201826:	f0ca                	sd	s2,96(sp)
    80201828:	ecce                	sd	s3,88(sp)
    8020182a:	e8d2                	sd	s4,80(sp)
    8020182c:	e4d6                	sd	s5,72(sp)
    8020182e:	e0da                	sd	s6,64(sp)
    80201830:	fc5e                	sd	s7,56(sp)
    80201832:	f862                	sd	s8,48(sp)
    80201834:	f466                	sd	s9,40(sp)
    80201836:	f06a                	sd	s10,32(sp)
    80201838:	ec6e                	sd	s11,24(sp)
    8020183a:	0100                	addi	s0,sp,128
    8020183c:	8baa                	mv	s7,a0
    8020183e:	f8a43023          	sd	a0,-128(s0)
    80201842:	85aa                	mv	a1,a0
    80201844:	00008517          	auipc	a0,0x8
    80201848:	cbc50513          	addi	a0,a0,-836 # 80209500 <digits+0x180>
    8020184c:	fffff097          	auipc	ra,0xfffff
    80201850:	942080e7          	jalr	-1726(ra) # 8020018e <printf>
    80201854:	6d85                	lui	s11,0x1
    80201856:	9dde                	add	s11,s11,s7
    80201858:	6c05                	lui	s8,0x1
    8020185a:	00008c97          	auipc	s9,0x8
    8020185e:	ccec8c93          	addi	s9,s9,-818 # 80209528 <digits+0x1a8>
    80201862:	20000793          	li	a5,512
    80201866:	f8f43423          	sd	a5,-120(s0)
    8020186a:	00008a17          	auipc	s4,0x8
    8020186e:	cd6a0a13          	addi	s4,s4,-810 # 80209540 <digits+0x1c0>
    80201872:	a88d                	j	802018e4 <vmprint+0xc6>
    80201874:	00a65693          	srli	a3,a2,0xa
    80201878:	413485b3          	sub	a1,s1,s3
    8020187c:	06b2                	slli	a3,a3,0xc
    8020187e:	858d                	srai	a1,a1,0x3
    80201880:	8552                	mv	a0,s4
    80201882:	fffff097          	auipc	ra,0xfffff
    80201886:	90c080e7          	jalr	-1780(ra) # 8020018e <printf>
    8020188a:	04a1                	addi	s1,s1,8
    8020188c:	01248763          	beq	s1,s2,8020189a <vmprint+0x7c>
    80201890:	6090                	ld	a2,0(s1)
    80201892:	00167793          	andi	a5,a2,1
    80201896:	dbf5                	beqz	a5,8020188a <vmprint+0x6c>
    80201898:	bff1                	j	80201874 <vmprint+0x56>
    8020189a:	0aa1                	addi	s5,s5,8
    8020189c:	056a8163          	beq	s5,s6,802018de <vmprint+0xc0>
    802018a0:	000ab603          	ld	a2,0(s5) # fffffffffffff000 <kernel_end+0xffffffff7fbcf000>
    802018a4:	00167793          	andi	a5,a2,1
    802018a8:	dbed                	beqz	a5,8020189a <vmprint+0x7c>
    802018aa:	00a65493          	srli	s1,a2,0xa
    802018ae:	04b2                	slli	s1,s1,0xc
    802018b0:	89a6                	mv	s3,s1
    802018b2:	41aa85b3          	sub	a1,s5,s10
    802018b6:	86a6                	mv	a3,s1
    802018b8:	858d                	srai	a1,a1,0x3
    802018ba:	8566                	mv	a0,s9
    802018bc:	fffff097          	auipc	ra,0xfffff
    802018c0:	8d2080e7          	jalr	-1838(ra) # 8020018e <printf>
    802018c4:	00848693          	addi	a3,s1,8
    802018c8:	01848733          	add	a4,s1,s8
    802018cc:	f8843783          	ld	a5,-120(s0)
    802018d0:	00d77363          	bgeu	a4,a3,802018d6 <vmprint+0xb8>
    802018d4:	4785                	li	a5,1
    802018d6:	078e                	slli	a5,a5,0x3
    802018d8:	00978933          	add	s2,a5,s1
    802018dc:	bf55                	j	80201890 <vmprint+0x72>
    802018de:	0ba1                	addi	s7,s7,8
    802018e0:	05bb8763          	beq	s7,s11,8020192e <vmprint+0x110>
    802018e4:	000bb603          	ld	a2,0(s7) # fffffffffffff000 <kernel_end+0xffffffff7fbcf000>
    802018e8:	00167793          	andi	a5,a2,1
    802018ec:	dbed                	beqz	a5,802018de <vmprint+0xc0>
    802018ee:	00a65a93          	srli	s5,a2,0xa
    802018f2:	0ab2                	slli	s5,s5,0xc
    802018f4:	8d56                	mv	s10,s5
    802018f6:	f8043783          	ld	a5,-128(s0)
    802018fa:	40fb87b3          	sub	a5,s7,a5
    802018fe:	86d6                	mv	a3,s5
    80201900:	4037d593          	srai	a1,a5,0x3
    80201904:	00008517          	auipc	a0,0x8
    80201908:	c0c50513          	addi	a0,a0,-1012 # 80209510 <digits+0x190>
    8020190c:	fffff097          	auipc	ra,0xfffff
    80201910:	882080e7          	jalr	-1918(ra) # 8020018e <printf>
    80201914:	018a86b3          	add	a3,s5,s8
    80201918:	008a8713          	addi	a4,s5,8
    8020191c:	20000793          	li	a5,512
    80201920:	00e6f363          	bgeu	a3,a4,80201926 <vmprint+0x108>
    80201924:	4785                	li	a5,1
    80201926:	078e                	slli	a5,a5,0x3
    80201928:	01578b33          	add	s6,a5,s5
    8020192c:	bf95                	j	802018a0 <vmprint+0x82>
    8020192e:	70e6                	ld	ra,120(sp)
    80201930:	7446                	ld	s0,112(sp)
    80201932:	74a6                	ld	s1,104(sp)
    80201934:	7906                	ld	s2,96(sp)
    80201936:	69e6                	ld	s3,88(sp)
    80201938:	6a46                	ld	s4,80(sp)
    8020193a:	6aa6                	ld	s5,72(sp)
    8020193c:	6b06                	ld	s6,64(sp)
    8020193e:	7be2                	ld	s7,56(sp)
    80201940:	7c42                	ld	s8,48(sp)
    80201942:	7ca2                	ld	s9,40(sp)
    80201944:	7d02                	ld	s10,32(sp)
    80201946:	6de2                	ld	s11,24(sp)
    80201948:	6109                	addi	sp,sp,128
    8020194a:	8082                	ret

000000008020194c <wakeup1>:
    8020194c:	1101                	addi	sp,sp,-32
    8020194e:	ec06                	sd	ra,24(sp)
    80201950:	e822                	sd	s0,16(sp)
    80201952:	e426                	sd	s1,8(sp)
    80201954:	1000                	addi	s0,sp,32
    80201956:	84aa                	mv	s1,a0
    80201958:	fffff097          	auipc	ra,0xfffff
    8020195c:	d40080e7          	jalr	-704(ra) # 80200698 <holding>
    80201960:	c909                	beqz	a0,80201972 <wakeup1+0x26>
    80201962:	749c                	ld	a5,40(s1)
    80201964:	00978f63          	beq	a5,s1,80201982 <wakeup1+0x36>
    80201968:	60e2                	ld	ra,24(sp)
    8020196a:	6442                	ld	s0,16(sp)
    8020196c:	64a2                	ld	s1,8(sp)
    8020196e:	6105                	addi	sp,sp,32
    80201970:	8082                	ret
    80201972:	00008517          	auipc	a0,0x8
    80201976:	bee50513          	addi	a0,a0,-1042 # 80209560 <digits+0x1e0>
    8020197a:	ffffe097          	auipc	ra,0xffffe
    8020197e:	7ca080e7          	jalr	1994(ra) # 80200144 <panic>
    80201982:	4c98                	lw	a4,24(s1)
    80201984:	4785                	li	a5,1
    80201986:	fef711e3          	bne	a4,a5,80201968 <wakeup1+0x1c>
    8020198a:	4789                	li	a5,2
    8020198c:	cc9c                	sw	a5,24(s1)
    8020198e:	bfe9                	j	80201968 <wakeup1+0x1c>

0000000080201990 <reg_info>:
    80201990:	1141                	addi	sp,sp,-16
    80201992:	e406                	sd	ra,8(sp)
    80201994:	e022                	sd	s0,0(sp)
    80201996:	0800                	addi	s0,sp,16
    80201998:	00008517          	auipc	a0,0x8
    8020199c:	bd050513          	addi	a0,a0,-1072 # 80209568 <digits+0x1e8>
    802019a0:	ffffe097          	auipc	ra,0xffffe
    802019a4:	7ee080e7          	jalr	2030(ra) # 8020018e <printf>
    802019a8:	100025f3          	csrr	a1,sstatus
    802019ac:	00008517          	auipc	a0,0x8
    802019b0:	bd450513          	addi	a0,a0,-1068 # 80209580 <digits+0x200>
    802019b4:	ffffe097          	auipc	ra,0xffffe
    802019b8:	7da080e7          	jalr	2010(ra) # 8020018e <printf>
    802019bc:	144025f3          	csrr	a1,sip
    802019c0:	00008517          	auipc	a0,0x8
    802019c4:	bd050513          	addi	a0,a0,-1072 # 80209590 <digits+0x210>
    802019c8:	ffffe097          	auipc	ra,0xffffe
    802019cc:	7c6080e7          	jalr	1990(ra) # 8020018e <printf>
    802019d0:	104025f3          	csrr	a1,sie
    802019d4:	00008517          	auipc	a0,0x8
    802019d8:	bcc50513          	addi	a0,a0,-1076 # 802095a0 <digits+0x220>
    802019dc:	ffffe097          	auipc	ra,0xffffe
    802019e0:	7b2080e7          	jalr	1970(ra) # 8020018e <printf>
    802019e4:	141025f3          	csrr	a1,sepc
    802019e8:	00008517          	auipc	a0,0x8
    802019ec:	bc850513          	addi	a0,a0,-1080 # 802095b0 <digits+0x230>
    802019f0:	ffffe097          	auipc	ra,0xffffe
    802019f4:	79e080e7          	jalr	1950(ra) # 8020018e <printf>
    802019f8:	105025f3          	csrr	a1,stvec
    802019fc:	00008517          	auipc	a0,0x8
    80201a00:	bc450513          	addi	a0,a0,-1084 # 802095c0 <digits+0x240>
    80201a04:	ffffe097          	auipc	ra,0xffffe
    80201a08:	78a080e7          	jalr	1930(ra) # 8020018e <printf>
    80201a0c:	180025f3          	csrr	a1,satp
    80201a10:	00008517          	auipc	a0,0x8
    80201a14:	bc050513          	addi	a0,a0,-1088 # 802095d0 <digits+0x250>
    80201a18:	ffffe097          	auipc	ra,0xffffe
    80201a1c:	776080e7          	jalr	1910(ra) # 8020018e <printf>
    80201a20:	142025f3          	csrr	a1,scause
    80201a24:	00008517          	auipc	a0,0x8
    80201a28:	bbc50513          	addi	a0,a0,-1092 # 802095e0 <digits+0x260>
    80201a2c:	ffffe097          	auipc	ra,0xffffe
    80201a30:	762080e7          	jalr	1890(ra) # 8020018e <printf>
    80201a34:	143025f3          	csrr	a1,stval
    80201a38:	00008517          	auipc	a0,0x8
    80201a3c:	bb850513          	addi	a0,a0,-1096 # 802095f0 <digits+0x270>
    80201a40:	ffffe097          	auipc	ra,0xffffe
    80201a44:	74e080e7          	jalr	1870(ra) # 8020018e <printf>
    80201a48:	858a                	mv	a1,sp
    80201a4a:	00008517          	auipc	a0,0x8
    80201a4e:	bb650513          	addi	a0,a0,-1098 # 80209600 <digits+0x280>
    80201a52:	ffffe097          	auipc	ra,0xffffe
    80201a56:	73c080e7          	jalr	1852(ra) # 8020018e <printf>
    80201a5a:	8592                	mv	a1,tp
    80201a5c:	00008517          	auipc	a0,0x8
    80201a60:	bac50513          	addi	a0,a0,-1108 # 80209608 <digits+0x288>
    80201a64:	ffffe097          	auipc	ra,0xffffe
    80201a68:	72a080e7          	jalr	1834(ra) # 8020018e <printf>
    80201a6c:	8586                	mv	a1,ra
    80201a6e:	00008517          	auipc	a0,0x8
    80201a72:	ba250513          	addi	a0,a0,-1118 # 80209610 <digits+0x290>
    80201a76:	ffffe097          	auipc	ra,0xffffe
    80201a7a:	718080e7          	jalr	1816(ra) # 8020018e <printf>
    80201a7e:	00008517          	auipc	a0,0x8
    80201a82:	b9a50513          	addi	a0,a0,-1126 # 80209618 <digits+0x298>
    80201a86:	ffffe097          	auipc	ra,0xffffe
    80201a8a:	708080e7          	jalr	1800(ra) # 8020018e <printf>
    80201a8e:	60a2                	ld	ra,8(sp)
    80201a90:	6402                	ld	s0,0(sp)
    80201a92:	0141                	addi	sp,sp,16
    80201a94:	8082                	ret

0000000080201a96 <procinit>:
    80201a96:	7179                	addi	sp,sp,-48
    80201a98:	f406                	sd	ra,40(sp)
    80201a9a:	f022                	sd	s0,32(sp)
    80201a9c:	ec26                	sd	s1,24(sp)
    80201a9e:	e84a                	sd	s2,16(sp)
    80201aa0:	e44e                	sd	s3,8(sp)
    80201aa2:	1800                	addi	s0,sp,48
    80201aa4:	00008597          	auipc	a1,0x8
    80201aa8:	b7c58593          	addi	a1,a1,-1156 # 80209620 <digits+0x2a0>
    80201aac:	0021b517          	auipc	a0,0x21b
    80201ab0:	5c450513          	addi	a0,a0,1476 # 8041d070 <pid_lock>
    80201ab4:	fffff097          	auipc	ra,0xfffff
    80201ab8:	bce080e7          	jalr	-1074(ra) # 80200682 <initlock>
    80201abc:	0021c497          	auipc	s1,0x21c
    80201ac0:	84c48493          	addi	s1,s1,-1972 # 8041d308 <proc>
    80201ac4:	00008997          	auipc	s3,0x8
    80201ac8:	b6498993          	addi	s3,s3,-1180 # 80209628 <digits+0x2a8>
    80201acc:	00220917          	auipc	s2,0x220
    80201ad0:	1ac90913          	addi	s2,s2,428 # 80421c78 <initproc>
    80201ad4:	85ce                	mv	a1,s3
    80201ad6:	8526                	mv	a0,s1
    80201ad8:	fffff097          	auipc	ra,0xfffff
    80201adc:	baa080e7          	jalr	-1110(ra) # 80200682 <initlock>
    80201ae0:	17848493          	addi	s1,s1,376
    80201ae4:	ff2498e3          	bne	s1,s2,80201ad4 <procinit+0x3e>
    80201ae8:	28000613          	li	a2,640
    80201aec:	4581                	li	a1,0
    80201aee:	0021b517          	auipc	a0,0x21b
    80201af2:	59a50513          	addi	a0,a0,1434 # 8041d088 <cpus>
    80201af6:	fffff097          	auipc	ra,0xfffff
    80201afa:	c6c080e7          	jalr	-916(ra) # 80200762 <memset>
    80201afe:	70a2                	ld	ra,40(sp)
    80201b00:	7402                	ld	s0,32(sp)
    80201b02:	64e2                	ld	s1,24(sp)
    80201b04:	6942                	ld	s2,16(sp)
    80201b06:	69a2                	ld	s3,8(sp)
    80201b08:	6145                	addi	sp,sp,48
    80201b0a:	8082                	ret

0000000080201b0c <cpuid>:
    80201b0c:	1141                	addi	sp,sp,-16
    80201b0e:	e422                	sd	s0,8(sp)
    80201b10:	0800                	addi	s0,sp,16
    80201b12:	8512                	mv	a0,tp
    80201b14:	2501                	sext.w	a0,a0
    80201b16:	6422                	ld	s0,8(sp)
    80201b18:	0141                	addi	sp,sp,16
    80201b1a:	8082                	ret

0000000080201b1c <mycpu>:
    80201b1c:	1141                	addi	sp,sp,-16
    80201b1e:	e422                	sd	s0,8(sp)
    80201b20:	0800                	addi	s0,sp,16
    80201b22:	8792                	mv	a5,tp
    80201b24:	2781                	sext.w	a5,a5
    80201b26:	079e                	slli	a5,a5,0x7
    80201b28:	0021b517          	auipc	a0,0x21b
    80201b2c:	56050513          	addi	a0,a0,1376 # 8041d088 <cpus>
    80201b30:	953e                	add	a0,a0,a5
    80201b32:	6422                	ld	s0,8(sp)
    80201b34:	0141                	addi	sp,sp,16
    80201b36:	8082                	ret

0000000080201b38 <myproc>:
    80201b38:	1101                	addi	sp,sp,-32
    80201b3a:	ec06                	sd	ra,24(sp)
    80201b3c:	e822                	sd	s0,16(sp)
    80201b3e:	e426                	sd	s1,8(sp)
    80201b40:	1000                	addi	s0,sp,32
    80201b42:	fffff097          	auipc	ra,0xfffff
    80201b46:	a94080e7          	jalr	-1388(ra) # 802005d6 <push_off>
    80201b4a:	8792                	mv	a5,tp
    80201b4c:	2781                	sext.w	a5,a5
    80201b4e:	079e                	slli	a5,a5,0x7
    80201b50:	0021b717          	auipc	a4,0x21b
    80201b54:	52070713          	addi	a4,a4,1312 # 8041d070 <pid_lock>
    80201b58:	97ba                	add	a5,a5,a4
    80201b5a:	6f84                	ld	s1,24(a5)
    80201b5c:	fffff097          	auipc	ra,0xfffff
    80201b60:	ac6080e7          	jalr	-1338(ra) # 80200622 <pop_off>
    80201b64:	8526                	mv	a0,s1
    80201b66:	60e2                	ld	ra,24(sp)
    80201b68:	6442                	ld	s0,16(sp)
    80201b6a:	64a2                	ld	s1,8(sp)
    80201b6c:	6105                	addi	sp,sp,32
    80201b6e:	8082                	ret

0000000080201b70 <forkret>:
    80201b70:	1101                	addi	sp,sp,-32
    80201b72:	ec06                	sd	ra,24(sp)
    80201b74:	e822                	sd	s0,16(sp)
    80201b76:	e426                	sd	s1,8(sp)
    80201b78:	1000                	addi	s0,sp,32
    80201b7a:	00000097          	auipc	ra,0x0
    80201b7e:	fbe080e7          	jalr	-66(ra) # 80201b38 <myproc>
    80201b82:	fffff097          	auipc	ra,0xfffff
    80201b86:	b98080e7          	jalr	-1128(ra) # 8020071a <release>
    80201b8a:	0020a797          	auipc	a5,0x20a
    80201b8e:	4be7a783          	lw	a5,1214(a5) # 8040c048 <first.1680>
    80201b92:	eb91                	bnez	a5,80201ba6 <forkret+0x36>
    80201b94:	00001097          	auipc	ra,0x1
    80201b98:	c5e080e7          	jalr	-930(ra) # 802027f2 <usertrapret>
    80201b9c:	60e2                	ld	ra,24(sp)
    80201b9e:	6442                	ld	s0,16(sp)
    80201ba0:	64a2                	ld	s1,8(sp)
    80201ba2:	6105                	addi	sp,sp,32
    80201ba4:	8082                	ret
    80201ba6:	0020a797          	auipc	a5,0x20a
    80201baa:	4a07a123          	sw	zero,1186(a5) # 8040c048 <first.1680>
    80201bae:	00004097          	auipc	ra,0x4
    80201bb2:	28c080e7          	jalr	652(ra) # 80205e3a <fat32_init>
    80201bb6:	00000097          	auipc	ra,0x0
    80201bba:	f82080e7          	jalr	-126(ra) # 80201b38 <myproc>
    80201bbe:	84aa                	mv	s1,a0
    80201bc0:	00008517          	auipc	a0,0x8
    80201bc4:	a7050513          	addi	a0,a0,-1424 # 80209630 <digits+0x2b0>
    80201bc8:	00005097          	auipc	ra,0x5
    80201bcc:	4a2080e7          	jalr	1186(ra) # 8020706a <ename>
    80201bd0:	14a4bc23          	sd	a0,344(s1)
    80201bd4:	b7c1                	j	80201b94 <forkret+0x24>

0000000080201bd6 <allocpid>:
    80201bd6:	1101                	addi	sp,sp,-32
    80201bd8:	ec06                	sd	ra,24(sp)
    80201bda:	e822                	sd	s0,16(sp)
    80201bdc:	e426                	sd	s1,8(sp)
    80201bde:	e04a                	sd	s2,0(sp)
    80201be0:	1000                	addi	s0,sp,32
    80201be2:	0021b917          	auipc	s2,0x21b
    80201be6:	48e90913          	addi	s2,s2,1166 # 8041d070 <pid_lock>
    80201bea:	854a                	mv	a0,s2
    80201bec:	fffff097          	auipc	ra,0xfffff
    80201bf0:	ada080e7          	jalr	-1318(ra) # 802006c6 <acquire>
    80201bf4:	0020a797          	auipc	a5,0x20a
    80201bf8:	45878793          	addi	a5,a5,1112 # 8040c04c <nextpid>
    80201bfc:	4384                	lw	s1,0(a5)
    80201bfe:	0014871b          	addiw	a4,s1,1
    80201c02:	c398                	sw	a4,0(a5)
    80201c04:	854a                	mv	a0,s2
    80201c06:	fffff097          	auipc	ra,0xfffff
    80201c0a:	b14080e7          	jalr	-1260(ra) # 8020071a <release>
    80201c0e:	8526                	mv	a0,s1
    80201c10:	60e2                	ld	ra,24(sp)
    80201c12:	6442                	ld	s0,16(sp)
    80201c14:	64a2                	ld	s1,8(sp)
    80201c16:	6902                	ld	s2,0(sp)
    80201c18:	6105                	addi	sp,sp,32
    80201c1a:	8082                	ret

0000000080201c1c <proc_pagetable>:
    80201c1c:	1101                	addi	sp,sp,-32
    80201c1e:	ec06                	sd	ra,24(sp)
    80201c20:	e822                	sd	s0,16(sp)
    80201c22:	e426                	sd	s1,8(sp)
    80201c24:	e04a                	sd	s2,0(sp)
    80201c26:	1000                	addi	s0,sp,32
    80201c28:	892a                	mv	s2,a0
    80201c2a:	fffff097          	auipc	ra,0xfffff
    80201c2e:	3aa080e7          	jalr	938(ra) # 80200fd4 <uvmcreate>
    80201c32:	84aa                	mv	s1,a0
    80201c34:	c121                	beqz	a0,80201c74 <proc_pagetable+0x58>
    80201c36:	4729                	li	a4,10
    80201c38:	00006697          	auipc	a3,0x6
    80201c3c:	3c868693          	addi	a3,a3,968 # 80208000 <_trampoline>
    80201c40:	6605                	lui	a2,0x1
    80201c42:	040005b7          	lui	a1,0x4000
    80201c46:	15fd                	addi	a1,a1,-1
    80201c48:	05b2                	slli	a1,a1,0xc
    80201c4a:	fffff097          	auipc	ra,0xfffff
    80201c4e:	080080e7          	jalr	128(ra) # 80200cca <mappages>
    80201c52:	02054863          	bltz	a0,80201c82 <proc_pagetable+0x66>
    80201c56:	4719                	li	a4,6
    80201c58:	06093683          	ld	a3,96(s2)
    80201c5c:	6605                	lui	a2,0x1
    80201c5e:	020005b7          	lui	a1,0x2000
    80201c62:	15fd                	addi	a1,a1,-1
    80201c64:	05b6                	slli	a1,a1,0xd
    80201c66:	8526                	mv	a0,s1
    80201c68:	fffff097          	auipc	ra,0xfffff
    80201c6c:	062080e7          	jalr	98(ra) # 80200cca <mappages>
    80201c70:	02054163          	bltz	a0,80201c92 <proc_pagetable+0x76>
    80201c74:	8526                	mv	a0,s1
    80201c76:	60e2                	ld	ra,24(sp)
    80201c78:	6442                	ld	s0,16(sp)
    80201c7a:	64a2                	ld	s1,8(sp)
    80201c7c:	6902                	ld	s2,0(sp)
    80201c7e:	6105                	addi	sp,sp,32
    80201c80:	8082                	ret
    80201c82:	4581                	li	a1,0
    80201c84:	8526                	mv	a0,s1
    80201c86:	fffff097          	auipc	ra,0xfffff
    80201c8a:	5d2080e7          	jalr	1490(ra) # 80201258 <uvmfree>
    80201c8e:	4481                	li	s1,0
    80201c90:	b7d5                	j	80201c74 <proc_pagetable+0x58>
    80201c92:	4681                	li	a3,0
    80201c94:	4605                	li	a2,1
    80201c96:	040005b7          	lui	a1,0x4000
    80201c9a:	15fd                	addi	a1,a1,-1
    80201c9c:	05b2                	slli	a1,a1,0xc
    80201c9e:	8526                	mv	a0,s1
    80201ca0:	fffff097          	auipc	ra,0xfffff
    80201ca4:	270080e7          	jalr	624(ra) # 80200f10 <vmunmap>
    80201ca8:	4581                	li	a1,0
    80201caa:	8526                	mv	a0,s1
    80201cac:	fffff097          	auipc	ra,0xfffff
    80201cb0:	5ac080e7          	jalr	1452(ra) # 80201258 <uvmfree>
    80201cb4:	4481                	li	s1,0
    80201cb6:	bf7d                	j	80201c74 <proc_pagetable+0x58>

0000000080201cb8 <proc_freepagetable>:
    80201cb8:	1101                	addi	sp,sp,-32
    80201cba:	ec06                	sd	ra,24(sp)
    80201cbc:	e822                	sd	s0,16(sp)
    80201cbe:	e426                	sd	s1,8(sp)
    80201cc0:	e04a                	sd	s2,0(sp)
    80201cc2:	1000                	addi	s0,sp,32
    80201cc4:	84aa                	mv	s1,a0
    80201cc6:	892e                	mv	s2,a1
    80201cc8:	4681                	li	a3,0
    80201cca:	4605                	li	a2,1
    80201ccc:	040005b7          	lui	a1,0x4000
    80201cd0:	15fd                	addi	a1,a1,-1
    80201cd2:	05b2                	slli	a1,a1,0xc
    80201cd4:	fffff097          	auipc	ra,0xfffff
    80201cd8:	23c080e7          	jalr	572(ra) # 80200f10 <vmunmap>
    80201cdc:	4681                	li	a3,0
    80201cde:	4605                	li	a2,1
    80201ce0:	020005b7          	lui	a1,0x2000
    80201ce4:	15fd                	addi	a1,a1,-1
    80201ce6:	05b6                	slli	a1,a1,0xd
    80201ce8:	8526                	mv	a0,s1
    80201cea:	fffff097          	auipc	ra,0xfffff
    80201cee:	226080e7          	jalr	550(ra) # 80200f10 <vmunmap>
    80201cf2:	85ca                	mv	a1,s2
    80201cf4:	8526                	mv	a0,s1
    80201cf6:	fffff097          	auipc	ra,0xfffff
    80201cfa:	562080e7          	jalr	1378(ra) # 80201258 <uvmfree>
    80201cfe:	60e2                	ld	ra,24(sp)
    80201d00:	6442                	ld	s0,16(sp)
    80201d02:	64a2                	ld	s1,8(sp)
    80201d04:	6902                	ld	s2,0(sp)
    80201d06:	6105                	addi	sp,sp,32
    80201d08:	8082                	ret

0000000080201d0a <freeproc>:
    80201d0a:	1101                	addi	sp,sp,-32
    80201d0c:	ec06                	sd	ra,24(sp)
    80201d0e:	e822                	sd	s0,16(sp)
    80201d10:	e426                	sd	s1,8(sp)
    80201d12:	1000                	addi	s0,sp,32
    80201d14:	84aa                	mv	s1,a0
    80201d16:	7128                	ld	a0,96(a0)
    80201d18:	c509                	beqz	a0,80201d22 <freeproc+0x18>
    80201d1a:	ffffe097          	auipc	ra,0xffffe
    80201d1e:	72c080e7          	jalr	1836(ra) # 80200446 <kfree>
    80201d22:	0604b023          	sd	zero,96(s1)
    80201d26:	6ca8                	ld	a0,88(s1)
    80201d28:	c511                	beqz	a0,80201d34 <freeproc+0x2a>
    80201d2a:	4585                	li	a1,1
    80201d2c:	00000097          	auipc	ra,0x0
    80201d30:	a32080e7          	jalr	-1486(ra) # 8020175e <kvmfree>
    80201d34:	0404bc23          	sd	zero,88(s1)
    80201d38:	68a8                	ld	a0,80(s1)
    80201d3a:	c511                	beqz	a0,80201d46 <freeproc+0x3c>
    80201d3c:	64ac                	ld	a1,72(s1)
    80201d3e:	00000097          	auipc	ra,0x0
    80201d42:	f7a080e7          	jalr	-134(ra) # 80201cb8 <proc_freepagetable>
    80201d46:	0404b823          	sd	zero,80(s1)
    80201d4a:	0404b423          	sd	zero,72(s1)
    80201d4e:	0204ac23          	sw	zero,56(s1)
    80201d52:	0204b023          	sd	zero,32(s1)
    80201d56:	16048023          	sb	zero,352(s1)
    80201d5a:	0204b423          	sd	zero,40(s1)
    80201d5e:	0204a823          	sw	zero,48(s1)
    80201d62:	0204aa23          	sw	zero,52(s1)
    80201d66:	0004ac23          	sw	zero,24(s1)
    80201d6a:	60e2                	ld	ra,24(sp)
    80201d6c:	6442                	ld	s0,16(sp)
    80201d6e:	64a2                	ld	s1,8(sp)
    80201d70:	6105                	addi	sp,sp,32
    80201d72:	8082                	ret

0000000080201d74 <allocproc>:
    80201d74:	1101                	addi	sp,sp,-32
    80201d76:	ec06                	sd	ra,24(sp)
    80201d78:	e822                	sd	s0,16(sp)
    80201d7a:	e426                	sd	s1,8(sp)
    80201d7c:	e04a                	sd	s2,0(sp)
    80201d7e:	1000                	addi	s0,sp,32
    80201d80:	0021b497          	auipc	s1,0x21b
    80201d84:	58848493          	addi	s1,s1,1416 # 8041d308 <proc>
    80201d88:	00220917          	auipc	s2,0x220
    80201d8c:	ef090913          	addi	s2,s2,-272 # 80421c78 <initproc>
    80201d90:	8526                	mv	a0,s1
    80201d92:	fffff097          	auipc	ra,0xfffff
    80201d96:	934080e7          	jalr	-1740(ra) # 802006c6 <acquire>
    80201d9a:	4c9c                	lw	a5,24(s1)
    80201d9c:	cf81                	beqz	a5,80201db4 <allocproc+0x40>
    80201d9e:	8526                	mv	a0,s1
    80201da0:	fffff097          	auipc	ra,0xfffff
    80201da4:	97a080e7          	jalr	-1670(ra) # 8020071a <release>
    80201da8:	17848493          	addi	s1,s1,376
    80201dac:	ff2492e3          	bne	s1,s2,80201d90 <allocproc+0x1c>
    80201db0:	4481                	li	s1,0
    80201db2:	a085                	j	80201e12 <allocproc+0x9e>
    80201db4:	00000097          	auipc	ra,0x0
    80201db8:	e22080e7          	jalr	-478(ra) # 80201bd6 <allocpid>
    80201dbc:	dc88                	sw	a0,56(s1)
    80201dbe:	ffffe097          	auipc	ra,0xffffe
    80201dc2:	79c080e7          	jalr	1948(ra) # 8020055a <kalloc>
    80201dc6:	892a                	mv	s2,a0
    80201dc8:	f0a8                	sd	a0,96(s1)
    80201dca:	c939                	beqz	a0,80201e20 <allocproc+0xac>
    80201dcc:	8526                	mv	a0,s1
    80201dce:	00000097          	auipc	ra,0x0
    80201dd2:	e4e080e7          	jalr	-434(ra) # 80201c1c <proc_pagetable>
    80201dd6:	e8a8                	sd	a0,80(s1)
    80201dd8:	c939                	beqz	a0,80201e2e <allocproc+0xba>
    80201dda:	00000097          	auipc	ra,0x0
    80201dde:	9de080e7          	jalr	-1570(ra) # 802017b8 <proc_kpagetable>
    80201de2:	eca8                	sd	a0,88(s1)
    80201de4:	c529                	beqz	a0,80201e2e <allocproc+0xba>
    80201de6:	0fb00793          	li	a5,251
    80201dea:	07fa                	slli	a5,a5,0x1e
    80201dec:	e0bc                	sd	a5,64(s1)
    80201dee:	07000613          	li	a2,112
    80201df2:	4581                	li	a1,0
    80201df4:	06848513          	addi	a0,s1,104
    80201df8:	fffff097          	auipc	ra,0xfffff
    80201dfc:	96a080e7          	jalr	-1686(ra) # 80200762 <memset>
    80201e00:	00000797          	auipc	a5,0x0
    80201e04:	d7078793          	addi	a5,a5,-656 # 80201b70 <forkret>
    80201e08:	f4bc                	sd	a5,104(s1)
    80201e0a:	60bc                	ld	a5,64(s1)
    80201e0c:	6705                	lui	a4,0x1
    80201e0e:	97ba                	add	a5,a5,a4
    80201e10:	f8bc                	sd	a5,112(s1)
    80201e12:	8526                	mv	a0,s1
    80201e14:	60e2                	ld	ra,24(sp)
    80201e16:	6442                	ld	s0,16(sp)
    80201e18:	64a2                	ld	s1,8(sp)
    80201e1a:	6902                	ld	s2,0(sp)
    80201e1c:	6105                	addi	sp,sp,32
    80201e1e:	8082                	ret
    80201e20:	8526                	mv	a0,s1
    80201e22:	fffff097          	auipc	ra,0xfffff
    80201e26:	8f8080e7          	jalr	-1800(ra) # 8020071a <release>
    80201e2a:	84ca                	mv	s1,s2
    80201e2c:	b7dd                	j	80201e12 <allocproc+0x9e>
    80201e2e:	8526                	mv	a0,s1
    80201e30:	00000097          	auipc	ra,0x0
    80201e34:	eda080e7          	jalr	-294(ra) # 80201d0a <freeproc>
    80201e38:	8526                	mv	a0,s1
    80201e3a:	fffff097          	auipc	ra,0xfffff
    80201e3e:	8e0080e7          	jalr	-1824(ra) # 8020071a <release>
    80201e42:	4481                	li	s1,0
    80201e44:	b7f9                	j	80201e12 <allocproc+0x9e>

0000000080201e46 <userinit>:
    80201e46:	1101                	addi	sp,sp,-32
    80201e48:	ec06                	sd	ra,24(sp)
    80201e4a:	e822                	sd	s0,16(sp)
    80201e4c:	e426                	sd	s1,8(sp)
    80201e4e:	1000                	addi	s0,sp,32
    80201e50:	00000097          	auipc	ra,0x0
    80201e54:	f24080e7          	jalr	-220(ra) # 80201d74 <allocproc>
    80201e58:	84aa                	mv	s1,a0
    80201e5a:	00220797          	auipc	a5,0x220
    80201e5e:	e0a7bf23          	sd	a0,-482(a5) # 80421c78 <initproc>
    80201e62:	03400693          	li	a3,52
    80201e66:	0020a617          	auipc	a2,0x20a
    80201e6a:	19a60613          	addi	a2,a2,410 # 8040c000 <initcode>
    80201e6e:	6d2c                	ld	a1,88(a0)
    80201e70:	6928                	ld	a0,80(a0)
    80201e72:	fffff097          	auipc	ra,0xfffff
    80201e76:	190080e7          	jalr	400(ra) # 80201002 <uvminit>
    80201e7a:	6785                	lui	a5,0x1
    80201e7c:	e4bc                	sd	a5,72(s1)
    80201e7e:	70b8                	ld	a4,96(s1)
    80201e80:	00073c23          	sd	zero,24(a4) # 1018 <_entry-0x801fefe8>
    80201e84:	70b8                	ld	a4,96(s1)
    80201e86:	fb1c                	sd	a5,48(a4)
    80201e88:	4641                	li	a2,16
    80201e8a:	00007597          	auipc	a1,0x7
    80201e8e:	7ae58593          	addi	a1,a1,1966 # 80209638 <digits+0x2b8>
    80201e92:	16048513          	addi	a0,s1,352
    80201e96:	fffff097          	auipc	ra,0xfffff
    80201e9a:	a22080e7          	jalr	-1502(ra) # 802008b8 <safestrcpy>
    80201e9e:	4789                	li	a5,2
    80201ea0:	cc9c                	sw	a5,24(s1)
    80201ea2:	1604a823          	sw	zero,368(s1)
    80201ea6:	8526                	mv	a0,s1
    80201ea8:	fffff097          	auipc	ra,0xfffff
    80201eac:	872080e7          	jalr	-1934(ra) # 8020071a <release>
    80201eb0:	60e2                	ld	ra,24(sp)
    80201eb2:	6442                	ld	s0,16(sp)
    80201eb4:	64a2                	ld	s1,8(sp)
    80201eb6:	6105                	addi	sp,sp,32
    80201eb8:	8082                	ret

0000000080201eba <growproc>:
    80201eba:	1101                	addi	sp,sp,-32
    80201ebc:	ec06                	sd	ra,24(sp)
    80201ebe:	e822                	sd	s0,16(sp)
    80201ec0:	e426                	sd	s1,8(sp)
    80201ec2:	e04a                	sd	s2,0(sp)
    80201ec4:	1000                	addi	s0,sp,32
    80201ec6:	84aa                	mv	s1,a0
    80201ec8:	00000097          	auipc	ra,0x0
    80201ecc:	c70080e7          	jalr	-912(ra) # 80201b38 <myproc>
    80201ed0:	892a                	mv	s2,a0
    80201ed2:	6530                	ld	a2,72(a0)
    80201ed4:	0006069b          	sext.w	a3,a2
    80201ed8:	00904f63          	bgtz	s1,80201ef6 <growproc+0x3c>
    80201edc:	0204cd63          	bltz	s1,80201f16 <growproc+0x5c>
    80201ee0:	1682                	slli	a3,a3,0x20
    80201ee2:	9281                	srli	a3,a3,0x20
    80201ee4:	04d93423          	sd	a3,72(s2)
    80201ee8:	4501                	li	a0,0
    80201eea:	60e2                	ld	ra,24(sp)
    80201eec:	6442                	ld	s0,16(sp)
    80201eee:	64a2                	ld	s1,8(sp)
    80201ef0:	6902                	ld	s2,0(sp)
    80201ef2:	6105                	addi	sp,sp,32
    80201ef4:	8082                	ret
    80201ef6:	9ea5                	addw	a3,a3,s1
    80201ef8:	1682                	slli	a3,a3,0x20
    80201efa:	9281                	srli	a3,a3,0x20
    80201efc:	1602                	slli	a2,a2,0x20
    80201efe:	9201                	srli	a2,a2,0x20
    80201f00:	6d2c                	ld	a1,88(a0)
    80201f02:	6928                	ld	a0,80(a0)
    80201f04:	fffff097          	auipc	ra,0xfffff
    80201f08:	1f4080e7          	jalr	500(ra) # 802010f8 <uvmalloc>
    80201f0c:	0005069b          	sext.w	a3,a0
    80201f10:	fae1                	bnez	a3,80201ee0 <growproc+0x26>
    80201f12:	557d                	li	a0,-1
    80201f14:	bfd9                	j	80201eea <growproc+0x30>
    80201f16:	9ea5                	addw	a3,a3,s1
    80201f18:	1682                	slli	a3,a3,0x20
    80201f1a:	9281                	srli	a3,a3,0x20
    80201f1c:	1602                	slli	a2,a2,0x20
    80201f1e:	9201                	srli	a2,a2,0x20
    80201f20:	6d2c                	ld	a1,88(a0)
    80201f22:	6928                	ld	a0,80(a0)
    80201f24:	fffff097          	auipc	ra,0xfffff
    80201f28:	168080e7          	jalr	360(ra) # 8020108c <uvmdealloc>
    80201f2c:	0005069b          	sext.w	a3,a0
    80201f30:	bf45                	j	80201ee0 <growproc+0x26>

0000000080201f32 <fork>:
    80201f32:	7179                	addi	sp,sp,-48
    80201f34:	f406                	sd	ra,40(sp)
    80201f36:	f022                	sd	s0,32(sp)
    80201f38:	ec26                	sd	s1,24(sp)
    80201f3a:	e84a                	sd	s2,16(sp)
    80201f3c:	e44e                	sd	s3,8(sp)
    80201f3e:	e052                	sd	s4,0(sp)
    80201f40:	1800                	addi	s0,sp,48
    80201f42:	00000097          	auipc	ra,0x0
    80201f46:	bf6080e7          	jalr	-1034(ra) # 80201b38 <myproc>
    80201f4a:	892a                	mv	s2,a0
    80201f4c:	00000097          	auipc	ra,0x0
    80201f50:	e28080e7          	jalr	-472(ra) # 80201d74 <allocproc>
    80201f54:	c57d                	beqz	a0,80202042 <fork+0x110>
    80201f56:	89aa                	mv	s3,a0
    80201f58:	04893683          	ld	a3,72(s2)
    80201f5c:	6d30                	ld	a2,88(a0)
    80201f5e:	692c                	ld	a1,80(a0)
    80201f60:	05093503          	ld	a0,80(s2)
    80201f64:	fffff097          	auipc	ra,0xfffff
    80201f68:	32c080e7          	jalr	812(ra) # 80201290 <uvmcopy>
    80201f6c:	04054c63          	bltz	a0,80201fc4 <fork+0x92>
    80201f70:	04893783          	ld	a5,72(s2)
    80201f74:	04f9b423          	sd	a5,72(s3)
    80201f78:	0329b023          	sd	s2,32(s3)
    80201f7c:	17092783          	lw	a5,368(s2)
    80201f80:	16f9a823          	sw	a5,368(s3)
    80201f84:	06093683          	ld	a3,96(s2)
    80201f88:	87b6                	mv	a5,a3
    80201f8a:	0609b703          	ld	a4,96(s3)
    80201f8e:	12068693          	addi	a3,a3,288
    80201f92:	0007b803          	ld	a6,0(a5) # 1000 <_entry-0x801ff000>
    80201f96:	6788                	ld	a0,8(a5)
    80201f98:	6b8c                	ld	a1,16(a5)
    80201f9a:	6f90                	ld	a2,24(a5)
    80201f9c:	01073023          	sd	a6,0(a4)
    80201fa0:	e708                	sd	a0,8(a4)
    80201fa2:	eb0c                	sd	a1,16(a4)
    80201fa4:	ef10                	sd	a2,24(a4)
    80201fa6:	02078793          	addi	a5,a5,32
    80201faa:	02070713          	addi	a4,a4,32
    80201fae:	fed792e3          	bne	a5,a3,80201f92 <fork+0x60>
    80201fb2:	0609b783          	ld	a5,96(s3)
    80201fb6:	0607b823          	sd	zero,112(a5)
    80201fba:	0d800493          	li	s1,216
    80201fbe:	15800a13          	li	s4,344
    80201fc2:	a03d                	j	80201ff0 <fork+0xbe>
    80201fc4:	854e                	mv	a0,s3
    80201fc6:	00000097          	auipc	ra,0x0
    80201fca:	d44080e7          	jalr	-700(ra) # 80201d0a <freeproc>
    80201fce:	854e                	mv	a0,s3
    80201fd0:	ffffe097          	auipc	ra,0xffffe
    80201fd4:	74a080e7          	jalr	1866(ra) # 8020071a <release>
    80201fd8:	54fd                	li	s1,-1
    80201fda:	a899                	j	80202030 <fork+0xfe>
    80201fdc:	00002097          	auipc	ra,0x2
    80201fe0:	87c080e7          	jalr	-1924(ra) # 80203858 <filedup>
    80201fe4:	009987b3          	add	a5,s3,s1
    80201fe8:	e388                	sd	a0,0(a5)
    80201fea:	04a1                	addi	s1,s1,8
    80201fec:	01448763          	beq	s1,s4,80201ffa <fork+0xc8>
    80201ff0:	009907b3          	add	a5,s2,s1
    80201ff4:	6388                	ld	a0,0(a5)
    80201ff6:	f17d                	bnez	a0,80201fdc <fork+0xaa>
    80201ff8:	bfcd                	j	80201fea <fork+0xb8>
    80201ffa:	15893503          	ld	a0,344(s2)
    80201ffe:	00004097          	auipc	ra,0x4
    80202002:	678080e7          	jalr	1656(ra) # 80206676 <edup>
    80202006:	14a9bc23          	sd	a0,344(s3)
    8020200a:	4641                	li	a2,16
    8020200c:	16090593          	addi	a1,s2,352
    80202010:	16098513          	addi	a0,s3,352
    80202014:	fffff097          	auipc	ra,0xfffff
    80202018:	8a4080e7          	jalr	-1884(ra) # 802008b8 <safestrcpy>
    8020201c:	0389a483          	lw	s1,56(s3)
    80202020:	4789                	li	a5,2
    80202022:	00f9ac23          	sw	a5,24(s3)
    80202026:	854e                	mv	a0,s3
    80202028:	ffffe097          	auipc	ra,0xffffe
    8020202c:	6f2080e7          	jalr	1778(ra) # 8020071a <release>
    80202030:	8526                	mv	a0,s1
    80202032:	70a2                	ld	ra,40(sp)
    80202034:	7402                	ld	s0,32(sp)
    80202036:	64e2                	ld	s1,24(sp)
    80202038:	6942                	ld	s2,16(sp)
    8020203a:	69a2                	ld	s3,8(sp)
    8020203c:	6a02                	ld	s4,0(sp)
    8020203e:	6145                	addi	sp,sp,48
    80202040:	8082                	ret
    80202042:	54fd                	li	s1,-1
    80202044:	b7f5                	j	80202030 <fork+0xfe>

0000000080202046 <reparent>:
    80202046:	7179                	addi	sp,sp,-48
    80202048:	f406                	sd	ra,40(sp)
    8020204a:	f022                	sd	s0,32(sp)
    8020204c:	ec26                	sd	s1,24(sp)
    8020204e:	e84a                	sd	s2,16(sp)
    80202050:	e44e                	sd	s3,8(sp)
    80202052:	e052                	sd	s4,0(sp)
    80202054:	1800                	addi	s0,sp,48
    80202056:	892a                	mv	s2,a0
    80202058:	0021b497          	auipc	s1,0x21b
    8020205c:	2b048493          	addi	s1,s1,688 # 8041d308 <proc>
    80202060:	00220a17          	auipc	s4,0x220
    80202064:	c18a0a13          	addi	s4,s4,-1000 # 80421c78 <initproc>
    80202068:	00220997          	auipc	s3,0x220
    8020206c:	c1098993          	addi	s3,s3,-1008 # 80421c78 <initproc>
    80202070:	a029                	j	8020207a <reparent+0x34>
    80202072:	17848493          	addi	s1,s1,376
    80202076:	03348363          	beq	s1,s3,8020209c <reparent+0x56>
    8020207a:	709c                	ld	a5,32(s1)
    8020207c:	ff279be3          	bne	a5,s2,80202072 <reparent+0x2c>
    80202080:	8526                	mv	a0,s1
    80202082:	ffffe097          	auipc	ra,0xffffe
    80202086:	644080e7          	jalr	1604(ra) # 802006c6 <acquire>
    8020208a:	000a3783          	ld	a5,0(s4)
    8020208e:	f09c                	sd	a5,32(s1)
    80202090:	8526                	mv	a0,s1
    80202092:	ffffe097          	auipc	ra,0xffffe
    80202096:	688080e7          	jalr	1672(ra) # 8020071a <release>
    8020209a:	bfe1                	j	80202072 <reparent+0x2c>
    8020209c:	70a2                	ld	ra,40(sp)
    8020209e:	7402                	ld	s0,32(sp)
    802020a0:	64e2                	ld	s1,24(sp)
    802020a2:	6942                	ld	s2,16(sp)
    802020a4:	69a2                	ld	s3,8(sp)
    802020a6:	6a02                	ld	s4,0(sp)
    802020a8:	6145                	addi	sp,sp,48
    802020aa:	8082                	ret

00000000802020ac <scheduler>:
    802020ac:	715d                	addi	sp,sp,-80
    802020ae:	e486                	sd	ra,72(sp)
    802020b0:	e0a2                	sd	s0,64(sp)
    802020b2:	fc26                	sd	s1,56(sp)
    802020b4:	f84a                	sd	s2,48(sp)
    802020b6:	f44e                	sd	s3,40(sp)
    802020b8:	f052                	sd	s4,32(sp)
    802020ba:	ec56                	sd	s5,24(sp)
    802020bc:	e85a                	sd	s6,16(sp)
    802020be:	e45e                	sd	s7,8(sp)
    802020c0:	e062                	sd	s8,0(sp)
    802020c2:	0880                	addi	s0,sp,80
    802020c4:	8792                	mv	a5,tp
    802020c6:	2781                	sext.w	a5,a5
    802020c8:	00779b13          	slli	s6,a5,0x7
    802020cc:	0021b717          	auipc	a4,0x21b
    802020d0:	fa470713          	addi	a4,a4,-92 # 8041d070 <pid_lock>
    802020d4:	975a                	add	a4,a4,s6
    802020d6:	00073c23          	sd	zero,24(a4)
    802020da:	0021b717          	auipc	a4,0x21b
    802020de:	fb670713          	addi	a4,a4,-74 # 8041d090 <cpus+0x8>
    802020e2:	9b3a                	add	s6,s6,a4
    802020e4:	079e                	slli	a5,a5,0x7
    802020e6:	0021ba97          	auipc	s5,0x21b
    802020ea:	f8aa8a93          	addi	s5,s5,-118 # 8041d070 <pid_lock>
    802020ee:	9abe                	add	s5,s5,a5
    802020f0:	5a7d                	li	s4,-1
    802020f2:	1a7e                	slli	s4,s4,0x3f
    802020f4:	0021bb97          	auipc	s7,0x21b
    802020f8:	f74b8b93          	addi	s7,s7,-140 # 8041d068 <kernel_pagetable>
    802020fc:	a8a5                	j	80202174 <scheduler+0xc8>
    802020fe:	478d                	li	a5,3
    80202100:	cc9c                	sw	a5,24(s1)
    80202102:	009abc23          	sd	s1,24(s5)
    80202106:	6cbc                	ld	a5,88(s1)
    80202108:	83b1                	srli	a5,a5,0xc
    8020210a:	0147e7b3          	or	a5,a5,s4
    8020210e:	18079073          	csrw	satp,a5
    80202112:	12000073          	sfence.vma
    80202116:	06848593          	addi	a1,s1,104
    8020211a:	855a                	mv	a0,s6
    8020211c:	00000097          	auipc	ra,0x0
    80202120:	630080e7          	jalr	1584(ra) # 8020274c <swtch>
    80202124:	000bb783          	ld	a5,0(s7)
    80202128:	83b1                	srli	a5,a5,0xc
    8020212a:	0147e7b3          	or	a5,a5,s4
    8020212e:	18079073          	csrw	satp,a5
    80202132:	12000073          	sfence.vma
    80202136:	000abc23          	sd	zero,24(s5)
    8020213a:	4c05                	li	s8,1
    8020213c:	8526                	mv	a0,s1
    8020213e:	ffffe097          	auipc	ra,0xffffe
    80202142:	5dc080e7          	jalr	1500(ra) # 8020071a <release>
    80202146:	17848493          	addi	s1,s1,376
    8020214a:	01248b63          	beq	s1,s2,80202160 <scheduler+0xb4>
    8020214e:	8526                	mv	a0,s1
    80202150:	ffffe097          	auipc	ra,0xffffe
    80202154:	576080e7          	jalr	1398(ra) # 802006c6 <acquire>
    80202158:	4c9c                	lw	a5,24(s1)
    8020215a:	ff3791e3          	bne	a5,s3,8020213c <scheduler+0x90>
    8020215e:	b745                	j	802020fe <scheduler+0x52>
    80202160:	000c1a63          	bnez	s8,80202174 <scheduler+0xc8>
    80202164:	100027f3          	csrr	a5,sstatus
    80202168:	0027e793          	ori	a5,a5,2
    8020216c:	10079073          	csrw	sstatus,a5
    80202170:	10500073          	wfi
    80202174:	100027f3          	csrr	a5,sstatus
    80202178:	0027e793          	ori	a5,a5,2
    8020217c:	10079073          	csrw	sstatus,a5
    80202180:	4c01                	li	s8,0
    80202182:	0021b497          	auipc	s1,0x21b
    80202186:	18648493          	addi	s1,s1,390 # 8041d308 <proc>
    8020218a:	4989                	li	s3,2
    8020218c:	00220917          	auipc	s2,0x220
    80202190:	aec90913          	addi	s2,s2,-1300 # 80421c78 <initproc>
    80202194:	bf6d                	j	8020214e <scheduler+0xa2>

0000000080202196 <sched>:
    80202196:	7179                	addi	sp,sp,-48
    80202198:	f406                	sd	ra,40(sp)
    8020219a:	f022                	sd	s0,32(sp)
    8020219c:	ec26                	sd	s1,24(sp)
    8020219e:	e84a                	sd	s2,16(sp)
    802021a0:	e44e                	sd	s3,8(sp)
    802021a2:	1800                	addi	s0,sp,48
    802021a4:	00000097          	auipc	ra,0x0
    802021a8:	994080e7          	jalr	-1644(ra) # 80201b38 <myproc>
    802021ac:	84aa                	mv	s1,a0
    802021ae:	ffffe097          	auipc	ra,0xffffe
    802021b2:	4ea080e7          	jalr	1258(ra) # 80200698 <holding>
    802021b6:	c93d                	beqz	a0,8020222c <sched+0x96>
    802021b8:	8792                	mv	a5,tp
    802021ba:	2781                	sext.w	a5,a5
    802021bc:	079e                	slli	a5,a5,0x7
    802021be:	0021b717          	auipc	a4,0x21b
    802021c2:	eb270713          	addi	a4,a4,-334 # 8041d070 <pid_lock>
    802021c6:	97ba                	add	a5,a5,a4
    802021c8:	0907a703          	lw	a4,144(a5)
    802021cc:	4785                	li	a5,1
    802021ce:	06f71763          	bne	a4,a5,8020223c <sched+0xa6>
    802021d2:	4c98                	lw	a4,24(s1)
    802021d4:	478d                	li	a5,3
    802021d6:	06f70b63          	beq	a4,a5,8020224c <sched+0xb6>
    802021da:	100027f3          	csrr	a5,sstatus
    802021de:	8b89                	andi	a5,a5,2
    802021e0:	efb5                	bnez	a5,8020225c <sched+0xc6>
    802021e2:	8792                	mv	a5,tp
    802021e4:	0021b917          	auipc	s2,0x21b
    802021e8:	e8c90913          	addi	s2,s2,-372 # 8041d070 <pid_lock>
    802021ec:	2781                	sext.w	a5,a5
    802021ee:	079e                	slli	a5,a5,0x7
    802021f0:	97ca                	add	a5,a5,s2
    802021f2:	0947a983          	lw	s3,148(a5)
    802021f6:	8792                	mv	a5,tp
    802021f8:	2781                	sext.w	a5,a5
    802021fa:	079e                	slli	a5,a5,0x7
    802021fc:	0021b597          	auipc	a1,0x21b
    80202200:	e9458593          	addi	a1,a1,-364 # 8041d090 <cpus+0x8>
    80202204:	95be                	add	a1,a1,a5
    80202206:	06848513          	addi	a0,s1,104
    8020220a:	00000097          	auipc	ra,0x0
    8020220e:	542080e7          	jalr	1346(ra) # 8020274c <swtch>
    80202212:	8792                	mv	a5,tp
    80202214:	2781                	sext.w	a5,a5
    80202216:	079e                	slli	a5,a5,0x7
    80202218:	97ca                	add	a5,a5,s2
    8020221a:	0937aa23          	sw	s3,148(a5)
    8020221e:	70a2                	ld	ra,40(sp)
    80202220:	7402                	ld	s0,32(sp)
    80202222:	64e2                	ld	s1,24(sp)
    80202224:	6942                	ld	s2,16(sp)
    80202226:	69a2                	ld	s3,8(sp)
    80202228:	6145                	addi	sp,sp,48
    8020222a:	8082                	ret
    8020222c:	00007517          	auipc	a0,0x7
    80202230:	41c50513          	addi	a0,a0,1052 # 80209648 <digits+0x2c8>
    80202234:	ffffe097          	auipc	ra,0xffffe
    80202238:	f10080e7          	jalr	-240(ra) # 80200144 <panic>
    8020223c:	00007517          	auipc	a0,0x7
    80202240:	41c50513          	addi	a0,a0,1052 # 80209658 <digits+0x2d8>
    80202244:	ffffe097          	auipc	ra,0xffffe
    80202248:	f00080e7          	jalr	-256(ra) # 80200144 <panic>
    8020224c:	00007517          	auipc	a0,0x7
    80202250:	41c50513          	addi	a0,a0,1052 # 80209668 <digits+0x2e8>
    80202254:	ffffe097          	auipc	ra,0xffffe
    80202258:	ef0080e7          	jalr	-272(ra) # 80200144 <panic>
    8020225c:	00007517          	auipc	a0,0x7
    80202260:	41c50513          	addi	a0,a0,1052 # 80209678 <digits+0x2f8>
    80202264:	ffffe097          	auipc	ra,0xffffe
    80202268:	ee0080e7          	jalr	-288(ra) # 80200144 <panic>

000000008020226c <exit>:
    8020226c:	7179                	addi	sp,sp,-48
    8020226e:	f406                	sd	ra,40(sp)
    80202270:	f022                	sd	s0,32(sp)
    80202272:	ec26                	sd	s1,24(sp)
    80202274:	e84a                	sd	s2,16(sp)
    80202276:	e44e                	sd	s3,8(sp)
    80202278:	e052                	sd	s4,0(sp)
    8020227a:	1800                	addi	s0,sp,48
    8020227c:	8a2a                	mv	s4,a0
    8020227e:	00000097          	auipc	ra,0x0
    80202282:	8ba080e7          	jalr	-1862(ra) # 80201b38 <myproc>
    80202286:	89aa                	mv	s3,a0
    80202288:	00220797          	auipc	a5,0x220
    8020228c:	9f07b783          	ld	a5,-1552(a5) # 80421c78 <initproc>
    80202290:	0d850493          	addi	s1,a0,216
    80202294:	15850913          	addi	s2,a0,344
    80202298:	02a79363          	bne	a5,a0,802022be <exit+0x52>
    8020229c:	00007517          	auipc	a0,0x7
    802022a0:	3f450513          	addi	a0,a0,1012 # 80209690 <digits+0x310>
    802022a4:	ffffe097          	auipc	ra,0xffffe
    802022a8:	ea0080e7          	jalr	-352(ra) # 80200144 <panic>
    802022ac:	00001097          	auipc	ra,0x1
    802022b0:	5fe080e7          	jalr	1534(ra) # 802038aa <fileclose>
    802022b4:	0004b023          	sd	zero,0(s1)
    802022b8:	04a1                	addi	s1,s1,8
    802022ba:	01248563          	beq	s1,s2,802022c4 <exit+0x58>
    802022be:	6088                	ld	a0,0(s1)
    802022c0:	f575                	bnez	a0,802022ac <exit+0x40>
    802022c2:	bfdd                	j	802022b8 <exit+0x4c>
    802022c4:	1589b503          	ld	a0,344(s3)
    802022c8:	00004097          	auipc	ra,0x4
    802022cc:	686080e7          	jalr	1670(ra) # 8020694e <eput>
    802022d0:	1409bc23          	sd	zero,344(s3)
    802022d4:	00220497          	auipc	s1,0x220
    802022d8:	9a448493          	addi	s1,s1,-1628 # 80421c78 <initproc>
    802022dc:	6088                	ld	a0,0(s1)
    802022de:	ffffe097          	auipc	ra,0xffffe
    802022e2:	3e8080e7          	jalr	1000(ra) # 802006c6 <acquire>
    802022e6:	6088                	ld	a0,0(s1)
    802022e8:	fffff097          	auipc	ra,0xfffff
    802022ec:	664080e7          	jalr	1636(ra) # 8020194c <wakeup1>
    802022f0:	6088                	ld	a0,0(s1)
    802022f2:	ffffe097          	auipc	ra,0xffffe
    802022f6:	428080e7          	jalr	1064(ra) # 8020071a <release>
    802022fa:	854e                	mv	a0,s3
    802022fc:	ffffe097          	auipc	ra,0xffffe
    80202300:	3ca080e7          	jalr	970(ra) # 802006c6 <acquire>
    80202304:	0209b483          	ld	s1,32(s3)
    80202308:	854e                	mv	a0,s3
    8020230a:	ffffe097          	auipc	ra,0xffffe
    8020230e:	410080e7          	jalr	1040(ra) # 8020071a <release>
    80202312:	8526                	mv	a0,s1
    80202314:	ffffe097          	auipc	ra,0xffffe
    80202318:	3b2080e7          	jalr	946(ra) # 802006c6 <acquire>
    8020231c:	854e                	mv	a0,s3
    8020231e:	ffffe097          	auipc	ra,0xffffe
    80202322:	3a8080e7          	jalr	936(ra) # 802006c6 <acquire>
    80202326:	854e                	mv	a0,s3
    80202328:	00000097          	auipc	ra,0x0
    8020232c:	d1e080e7          	jalr	-738(ra) # 80202046 <reparent>
    80202330:	8526                	mv	a0,s1
    80202332:	fffff097          	auipc	ra,0xfffff
    80202336:	61a080e7          	jalr	1562(ra) # 8020194c <wakeup1>
    8020233a:	0349aa23          	sw	s4,52(s3)
    8020233e:	4791                	li	a5,4
    80202340:	00f9ac23          	sw	a5,24(s3)
    80202344:	8526                	mv	a0,s1
    80202346:	ffffe097          	auipc	ra,0xffffe
    8020234a:	3d4080e7          	jalr	980(ra) # 8020071a <release>
    8020234e:	00000097          	auipc	ra,0x0
    80202352:	e48080e7          	jalr	-440(ra) # 80202196 <sched>
    80202356:	00007517          	auipc	a0,0x7
    8020235a:	34a50513          	addi	a0,a0,842 # 802096a0 <digits+0x320>
    8020235e:	ffffe097          	auipc	ra,0xffffe
    80202362:	de6080e7          	jalr	-538(ra) # 80200144 <panic>

0000000080202366 <yield>:
    80202366:	1101                	addi	sp,sp,-32
    80202368:	ec06                	sd	ra,24(sp)
    8020236a:	e822                	sd	s0,16(sp)
    8020236c:	e426                	sd	s1,8(sp)
    8020236e:	1000                	addi	s0,sp,32
    80202370:	fffff097          	auipc	ra,0xfffff
    80202374:	7c8080e7          	jalr	1992(ra) # 80201b38 <myproc>
    80202378:	84aa                	mv	s1,a0
    8020237a:	ffffe097          	auipc	ra,0xffffe
    8020237e:	34c080e7          	jalr	844(ra) # 802006c6 <acquire>
    80202382:	4789                	li	a5,2
    80202384:	cc9c                	sw	a5,24(s1)
    80202386:	00000097          	auipc	ra,0x0
    8020238a:	e10080e7          	jalr	-496(ra) # 80202196 <sched>
    8020238e:	8526                	mv	a0,s1
    80202390:	ffffe097          	auipc	ra,0xffffe
    80202394:	38a080e7          	jalr	906(ra) # 8020071a <release>
    80202398:	60e2                	ld	ra,24(sp)
    8020239a:	6442                	ld	s0,16(sp)
    8020239c:	64a2                	ld	s1,8(sp)
    8020239e:	6105                	addi	sp,sp,32
    802023a0:	8082                	ret

00000000802023a2 <sleep>:
    802023a2:	7179                	addi	sp,sp,-48
    802023a4:	f406                	sd	ra,40(sp)
    802023a6:	f022                	sd	s0,32(sp)
    802023a8:	ec26                	sd	s1,24(sp)
    802023aa:	e84a                	sd	s2,16(sp)
    802023ac:	e44e                	sd	s3,8(sp)
    802023ae:	1800                	addi	s0,sp,48
    802023b0:	89aa                	mv	s3,a0
    802023b2:	892e                	mv	s2,a1
    802023b4:	fffff097          	auipc	ra,0xfffff
    802023b8:	784080e7          	jalr	1924(ra) # 80201b38 <myproc>
    802023bc:	84aa                	mv	s1,a0
    802023be:	05250663          	beq	a0,s2,8020240a <sleep+0x68>
    802023c2:	ffffe097          	auipc	ra,0xffffe
    802023c6:	304080e7          	jalr	772(ra) # 802006c6 <acquire>
    802023ca:	854a                	mv	a0,s2
    802023cc:	ffffe097          	auipc	ra,0xffffe
    802023d0:	34e080e7          	jalr	846(ra) # 8020071a <release>
    802023d4:	0334b423          	sd	s3,40(s1)
    802023d8:	4785                	li	a5,1
    802023da:	cc9c                	sw	a5,24(s1)
    802023dc:	00000097          	auipc	ra,0x0
    802023e0:	dba080e7          	jalr	-582(ra) # 80202196 <sched>
    802023e4:	0204b423          	sd	zero,40(s1)
    802023e8:	8526                	mv	a0,s1
    802023ea:	ffffe097          	auipc	ra,0xffffe
    802023ee:	330080e7          	jalr	816(ra) # 8020071a <release>
    802023f2:	854a                	mv	a0,s2
    802023f4:	ffffe097          	auipc	ra,0xffffe
    802023f8:	2d2080e7          	jalr	722(ra) # 802006c6 <acquire>
    802023fc:	70a2                	ld	ra,40(sp)
    802023fe:	7402                	ld	s0,32(sp)
    80202400:	64e2                	ld	s1,24(sp)
    80202402:	6942                	ld	s2,16(sp)
    80202404:	69a2                	ld	s3,8(sp)
    80202406:	6145                	addi	sp,sp,48
    80202408:	8082                	ret
    8020240a:	03353423          	sd	s3,40(a0)
    8020240e:	4785                	li	a5,1
    80202410:	cd1c                	sw	a5,24(a0)
    80202412:	00000097          	auipc	ra,0x0
    80202416:	d84080e7          	jalr	-636(ra) # 80202196 <sched>
    8020241a:	0204b423          	sd	zero,40(s1)
    8020241e:	bff9                	j	802023fc <sleep+0x5a>

0000000080202420 <wait>:
    80202420:	715d                	addi	sp,sp,-80
    80202422:	e486                	sd	ra,72(sp)
    80202424:	e0a2                	sd	s0,64(sp)
    80202426:	fc26                	sd	s1,56(sp)
    80202428:	f84a                	sd	s2,48(sp)
    8020242a:	f44e                	sd	s3,40(sp)
    8020242c:	f052                	sd	s4,32(sp)
    8020242e:	ec56                	sd	s5,24(sp)
    80202430:	e85a                	sd	s6,16(sp)
    80202432:	e45e                	sd	s7,8(sp)
    80202434:	e062                	sd	s8,0(sp)
    80202436:	0880                	addi	s0,sp,80
    80202438:	8b2a                	mv	s6,a0
    8020243a:	fffff097          	auipc	ra,0xfffff
    8020243e:	6fe080e7          	jalr	1790(ra) # 80201b38 <myproc>
    80202442:	892a                	mv	s2,a0
    80202444:	8c2a                	mv	s8,a0
    80202446:	ffffe097          	auipc	ra,0xffffe
    8020244a:	280080e7          	jalr	640(ra) # 802006c6 <acquire>
    8020244e:	4b81                	li	s7,0
    80202450:	4a11                	li	s4,4
    80202452:	00220997          	auipc	s3,0x220
    80202456:	82698993          	addi	s3,s3,-2010 # 80421c78 <initproc>
    8020245a:	4a85                	li	s5,1
    8020245c:	875e                	mv	a4,s7
    8020245e:	0021b497          	auipc	s1,0x21b
    80202462:	eaa48493          	addi	s1,s1,-342 # 8041d308 <proc>
    80202466:	a8b9                	j	802024c4 <wait+0xa4>
    80202468:	0384a983          	lw	s3,56(s1)
    8020246c:	000b0c63          	beqz	s6,80202484 <wait+0x64>
    80202470:	4611                	li	a2,4
    80202472:	03448593          	addi	a1,s1,52
    80202476:	855a                	mv	a0,s6
    80202478:	fffff097          	auipc	ra,0xfffff
    8020247c:	fe4080e7          	jalr	-28(ra) # 8020145c <copyout2>
    80202480:	02054263          	bltz	a0,802024a4 <wait+0x84>
    80202484:	8526                	mv	a0,s1
    80202486:	00000097          	auipc	ra,0x0
    8020248a:	884080e7          	jalr	-1916(ra) # 80201d0a <freeproc>
    8020248e:	8526                	mv	a0,s1
    80202490:	ffffe097          	auipc	ra,0xffffe
    80202494:	28a080e7          	jalr	650(ra) # 8020071a <release>
    80202498:	854a                	mv	a0,s2
    8020249a:	ffffe097          	auipc	ra,0xffffe
    8020249e:	280080e7          	jalr	640(ra) # 8020071a <release>
    802024a2:	a8a9                	j	802024fc <wait+0xdc>
    802024a4:	8526                	mv	a0,s1
    802024a6:	ffffe097          	auipc	ra,0xffffe
    802024aa:	274080e7          	jalr	628(ra) # 8020071a <release>
    802024ae:	854a                	mv	a0,s2
    802024b0:	ffffe097          	auipc	ra,0xffffe
    802024b4:	26a080e7          	jalr	618(ra) # 8020071a <release>
    802024b8:	59fd                	li	s3,-1
    802024ba:	a089                	j	802024fc <wait+0xdc>
    802024bc:	17848493          	addi	s1,s1,376
    802024c0:	03348463          	beq	s1,s3,802024e8 <wait+0xc8>
    802024c4:	709c                	ld	a5,32(s1)
    802024c6:	ff279be3          	bne	a5,s2,802024bc <wait+0x9c>
    802024ca:	8526                	mv	a0,s1
    802024cc:	ffffe097          	auipc	ra,0xffffe
    802024d0:	1fa080e7          	jalr	506(ra) # 802006c6 <acquire>
    802024d4:	4c9c                	lw	a5,24(s1)
    802024d6:	f94789e3          	beq	a5,s4,80202468 <wait+0x48>
    802024da:	8526                	mv	a0,s1
    802024dc:	ffffe097          	auipc	ra,0xffffe
    802024e0:	23e080e7          	jalr	574(ra) # 8020071a <release>
    802024e4:	8756                	mv	a4,s5
    802024e6:	bfd9                	j	802024bc <wait+0x9c>
    802024e8:	c701                	beqz	a4,802024f0 <wait+0xd0>
    802024ea:	03092783          	lw	a5,48(s2)
    802024ee:	c785                	beqz	a5,80202516 <wait+0xf6>
    802024f0:	854a                	mv	a0,s2
    802024f2:	ffffe097          	auipc	ra,0xffffe
    802024f6:	228080e7          	jalr	552(ra) # 8020071a <release>
    802024fa:	59fd                	li	s3,-1
    802024fc:	854e                	mv	a0,s3
    802024fe:	60a6                	ld	ra,72(sp)
    80202500:	6406                	ld	s0,64(sp)
    80202502:	74e2                	ld	s1,56(sp)
    80202504:	7942                	ld	s2,48(sp)
    80202506:	79a2                	ld	s3,40(sp)
    80202508:	7a02                	ld	s4,32(sp)
    8020250a:	6ae2                	ld	s5,24(sp)
    8020250c:	6b42                	ld	s6,16(sp)
    8020250e:	6ba2                	ld	s7,8(sp)
    80202510:	6c02                	ld	s8,0(sp)
    80202512:	6161                	addi	sp,sp,80
    80202514:	8082                	ret
    80202516:	85e2                	mv	a1,s8
    80202518:	854a                	mv	a0,s2
    8020251a:	00000097          	auipc	ra,0x0
    8020251e:	e88080e7          	jalr	-376(ra) # 802023a2 <sleep>
    80202522:	bf2d                	j	8020245c <wait+0x3c>

0000000080202524 <wakeup>:
    80202524:	7139                	addi	sp,sp,-64
    80202526:	fc06                	sd	ra,56(sp)
    80202528:	f822                	sd	s0,48(sp)
    8020252a:	f426                	sd	s1,40(sp)
    8020252c:	f04a                	sd	s2,32(sp)
    8020252e:	ec4e                	sd	s3,24(sp)
    80202530:	e852                	sd	s4,16(sp)
    80202532:	e456                	sd	s5,8(sp)
    80202534:	0080                	addi	s0,sp,64
    80202536:	8a2a                	mv	s4,a0
    80202538:	0021b497          	auipc	s1,0x21b
    8020253c:	dd048493          	addi	s1,s1,-560 # 8041d308 <proc>
    80202540:	4985                	li	s3,1
    80202542:	4a89                	li	s5,2
    80202544:	0021f917          	auipc	s2,0x21f
    80202548:	73490913          	addi	s2,s2,1844 # 80421c78 <initproc>
    8020254c:	a821                	j	80202564 <wakeup+0x40>
    8020254e:	0154ac23          	sw	s5,24(s1)
    80202552:	8526                	mv	a0,s1
    80202554:	ffffe097          	auipc	ra,0xffffe
    80202558:	1c6080e7          	jalr	454(ra) # 8020071a <release>
    8020255c:	17848493          	addi	s1,s1,376
    80202560:	01248e63          	beq	s1,s2,8020257c <wakeup+0x58>
    80202564:	8526                	mv	a0,s1
    80202566:	ffffe097          	auipc	ra,0xffffe
    8020256a:	160080e7          	jalr	352(ra) # 802006c6 <acquire>
    8020256e:	4c9c                	lw	a5,24(s1)
    80202570:	ff3791e3          	bne	a5,s3,80202552 <wakeup+0x2e>
    80202574:	749c                	ld	a5,40(s1)
    80202576:	fd479ee3          	bne	a5,s4,80202552 <wakeup+0x2e>
    8020257a:	bfd1                	j	8020254e <wakeup+0x2a>
    8020257c:	70e2                	ld	ra,56(sp)
    8020257e:	7442                	ld	s0,48(sp)
    80202580:	74a2                	ld	s1,40(sp)
    80202582:	7902                	ld	s2,32(sp)
    80202584:	69e2                	ld	s3,24(sp)
    80202586:	6a42                	ld	s4,16(sp)
    80202588:	6aa2                	ld	s5,8(sp)
    8020258a:	6121                	addi	sp,sp,64
    8020258c:	8082                	ret

000000008020258e <kill>:
    8020258e:	7179                	addi	sp,sp,-48
    80202590:	f406                	sd	ra,40(sp)
    80202592:	f022                	sd	s0,32(sp)
    80202594:	ec26                	sd	s1,24(sp)
    80202596:	e84a                	sd	s2,16(sp)
    80202598:	e44e                	sd	s3,8(sp)
    8020259a:	1800                	addi	s0,sp,48
    8020259c:	892a                	mv	s2,a0
    8020259e:	0021b497          	auipc	s1,0x21b
    802025a2:	d6a48493          	addi	s1,s1,-662 # 8041d308 <proc>
    802025a6:	0021f997          	auipc	s3,0x21f
    802025aa:	6d298993          	addi	s3,s3,1746 # 80421c78 <initproc>
    802025ae:	8526                	mv	a0,s1
    802025b0:	ffffe097          	auipc	ra,0xffffe
    802025b4:	116080e7          	jalr	278(ra) # 802006c6 <acquire>
    802025b8:	5c9c                	lw	a5,56(s1)
    802025ba:	01278d63          	beq	a5,s2,802025d4 <kill+0x46>
    802025be:	8526                	mv	a0,s1
    802025c0:	ffffe097          	auipc	ra,0xffffe
    802025c4:	15a080e7          	jalr	346(ra) # 8020071a <release>
    802025c8:	17848493          	addi	s1,s1,376
    802025cc:	ff3491e3          	bne	s1,s3,802025ae <kill+0x20>
    802025d0:	557d                	li	a0,-1
    802025d2:	a829                	j	802025ec <kill+0x5e>
    802025d4:	4785                	li	a5,1
    802025d6:	d89c                	sw	a5,48(s1)
    802025d8:	4c98                	lw	a4,24(s1)
    802025da:	4785                	li	a5,1
    802025dc:	00f70f63          	beq	a4,a5,802025fa <kill+0x6c>
    802025e0:	8526                	mv	a0,s1
    802025e2:	ffffe097          	auipc	ra,0xffffe
    802025e6:	138080e7          	jalr	312(ra) # 8020071a <release>
    802025ea:	4501                	li	a0,0
    802025ec:	70a2                	ld	ra,40(sp)
    802025ee:	7402                	ld	s0,32(sp)
    802025f0:	64e2                	ld	s1,24(sp)
    802025f2:	6942                	ld	s2,16(sp)
    802025f4:	69a2                	ld	s3,8(sp)
    802025f6:	6145                	addi	sp,sp,48
    802025f8:	8082                	ret
    802025fa:	4789                	li	a5,2
    802025fc:	cc9c                	sw	a5,24(s1)
    802025fe:	b7cd                	j	802025e0 <kill+0x52>

0000000080202600 <either_copyout>:
    80202600:	1101                	addi	sp,sp,-32
    80202602:	ec06                	sd	ra,24(sp)
    80202604:	e822                	sd	s0,16(sp)
    80202606:	e426                	sd	s1,8(sp)
    80202608:	1000                	addi	s0,sp,32
    8020260a:	84aa                	mv	s1,a0
    8020260c:	852e                	mv	a0,a1
    8020260e:	85b2                	mv	a1,a2
    80202610:	8636                	mv	a2,a3
    80202612:	c891                	beqz	s1,80202626 <either_copyout+0x26>
    80202614:	fffff097          	auipc	ra,0xfffff
    80202618:	e48080e7          	jalr	-440(ra) # 8020145c <copyout2>
    8020261c:	60e2                	ld	ra,24(sp)
    8020261e:	6442                	ld	s0,16(sp)
    80202620:	64a2                	ld	s1,8(sp)
    80202622:	6105                	addi	sp,sp,32
    80202624:	8082                	ret
    80202626:	0006861b          	sext.w	a2,a3
    8020262a:	ffffe097          	auipc	ra,0xffffe
    8020262e:	198080e7          	jalr	408(ra) # 802007c2 <memmove>
    80202632:	8526                	mv	a0,s1
    80202634:	b7e5                	j	8020261c <either_copyout+0x1c>

0000000080202636 <either_copyin>:
    80202636:	1101                	addi	sp,sp,-32
    80202638:	ec06                	sd	ra,24(sp)
    8020263a:	e822                	sd	s0,16(sp)
    8020263c:	e426                	sd	s1,8(sp)
    8020263e:	1000                	addi	s0,sp,32
    80202640:	84ae                	mv	s1,a1
    80202642:	85b2                	mv	a1,a2
    80202644:	8636                	mv	a2,a3
    80202646:	c891                	beqz	s1,8020265a <either_copyin+0x24>
    80202648:	fffff097          	auipc	ra,0xfffff
    8020264c:	ef2080e7          	jalr	-270(ra) # 8020153a <copyin2>
    80202650:	60e2                	ld	ra,24(sp)
    80202652:	6442                	ld	s0,16(sp)
    80202654:	64a2                	ld	s1,8(sp)
    80202656:	6105                	addi	sp,sp,32
    80202658:	8082                	ret
    8020265a:	0006861b          	sext.w	a2,a3
    8020265e:	ffffe097          	auipc	ra,0xffffe
    80202662:	164080e7          	jalr	356(ra) # 802007c2 <memmove>
    80202666:	8526                	mv	a0,s1
    80202668:	b7e5                	j	80202650 <either_copyin+0x1a>

000000008020266a <procdump>:
    8020266a:	715d                	addi	sp,sp,-80
    8020266c:	e486                	sd	ra,72(sp)
    8020266e:	e0a2                	sd	s0,64(sp)
    80202670:	fc26                	sd	s1,56(sp)
    80202672:	f84a                	sd	s2,48(sp)
    80202674:	f44e                	sd	s3,40(sp)
    80202676:	f052                	sd	s4,32(sp)
    80202678:	ec56                	sd	s5,24(sp)
    8020267a:	e85a                	sd	s6,16(sp)
    8020267c:	e45e                	sd	s7,8(sp)
    8020267e:	0880                	addi	s0,sp,80
    80202680:	00007517          	auipc	a0,0x7
    80202684:	03850513          	addi	a0,a0,56 # 802096b8 <digits+0x338>
    80202688:	ffffe097          	auipc	ra,0xffffe
    8020268c:	b06080e7          	jalr	-1274(ra) # 8020018e <printf>
    80202690:	0021b497          	auipc	s1,0x21b
    80202694:	dd848493          	addi	s1,s1,-552 # 8041d468 <proc+0x160>
    80202698:	0021f917          	auipc	s2,0x21f
    8020269c:	74090913          	addi	s2,s2,1856 # 80421dd8 <bcache+0x158>
    802026a0:	4b11                	li	s6,4
    802026a2:	00007997          	auipc	s3,0x7
    802026a6:	00e98993          	addi	s3,s3,14 # 802096b0 <digits+0x330>
    802026aa:	00007a97          	auipc	s5,0x7
    802026ae:	026a8a93          	addi	s5,s5,38 # 802096d0 <digits+0x350>
    802026b2:	00007a17          	auipc	s4,0x7
    802026b6:	a26a0a13          	addi	s4,s4,-1498 # 802090d8 <etext+0xd8>
    802026ba:	00007b97          	auipc	s7,0x7
    802026be:	04eb8b93          	addi	s7,s7,78 # 80209708 <states.1718>
    802026c2:	a01d                	j	802026e8 <procdump+0x7e>
    802026c4:	ee86b703          	ld	a4,-280(a3)
    802026c8:	ed86a583          	lw	a1,-296(a3)
    802026cc:	8556                	mv	a0,s5
    802026ce:	ffffe097          	auipc	ra,0xffffe
    802026d2:	ac0080e7          	jalr	-1344(ra) # 8020018e <printf>
    802026d6:	8552                	mv	a0,s4
    802026d8:	ffffe097          	auipc	ra,0xffffe
    802026dc:	ab6080e7          	jalr	-1354(ra) # 8020018e <printf>
    802026e0:	17848493          	addi	s1,s1,376
    802026e4:	03248163          	beq	s1,s2,80202706 <procdump+0x9c>
    802026e8:	86a6                	mv	a3,s1
    802026ea:	eb84a783          	lw	a5,-328(s1)
    802026ee:	dbed                	beqz	a5,802026e0 <procdump+0x76>
    802026f0:	864e                	mv	a2,s3
    802026f2:	fcfb69e3          	bltu	s6,a5,802026c4 <procdump+0x5a>
    802026f6:	1782                	slli	a5,a5,0x20
    802026f8:	9381                	srli	a5,a5,0x20
    802026fa:	078e                	slli	a5,a5,0x3
    802026fc:	97de                	add	a5,a5,s7
    802026fe:	6390                	ld	a2,0(a5)
    80202700:	f271                	bnez	a2,802026c4 <procdump+0x5a>
    80202702:	864e                	mv	a2,s3
    80202704:	b7c1                	j	802026c4 <procdump+0x5a>
    80202706:	60a6                	ld	ra,72(sp)
    80202708:	6406                	ld	s0,64(sp)
    8020270a:	74e2                	ld	s1,56(sp)
    8020270c:	7942                	ld	s2,48(sp)
    8020270e:	79a2                	ld	s3,40(sp)
    80202710:	7a02                	ld	s4,32(sp)
    80202712:	6ae2                	ld	s5,24(sp)
    80202714:	6b42                	ld	s6,16(sp)
    80202716:	6ba2                	ld	s7,8(sp)
    80202718:	6161                	addi	sp,sp,80
    8020271a:	8082                	ret

000000008020271c <procnum>:
    8020271c:	1141                	addi	sp,sp,-16
    8020271e:	e422                	sd	s0,8(sp)
    80202720:	0800                	addi	s0,sp,16
    80202722:	0021b797          	auipc	a5,0x21b
    80202726:	be678793          	addi	a5,a5,-1050 # 8041d308 <proc>
    8020272a:	4501                	li	a0,0
    8020272c:	0021f697          	auipc	a3,0x21f
    80202730:	54c68693          	addi	a3,a3,1356 # 80421c78 <initproc>
    80202734:	a029                	j	8020273e <procnum+0x22>
    80202736:	17878793          	addi	a5,a5,376
    8020273a:	00d78663          	beq	a5,a3,80202746 <procnum+0x2a>
    8020273e:	4f98                	lw	a4,24(a5)
    80202740:	db7d                	beqz	a4,80202736 <procnum+0x1a>
    80202742:	2505                	addiw	a0,a0,1
    80202744:	bfcd                	j	80202736 <procnum+0x1a>
    80202746:	6422                	ld	s0,8(sp)
    80202748:	0141                	addi	sp,sp,16
    8020274a:	8082                	ret

000000008020274c <swtch>:
    8020274c:	00153023          	sd	ra,0(a0)
    80202750:	00253423          	sd	sp,8(a0)
    80202754:	e900                	sd	s0,16(a0)
    80202756:	ed04                	sd	s1,24(a0)
    80202758:	03253023          	sd	s2,32(a0)
    8020275c:	03353423          	sd	s3,40(a0)
    80202760:	03453823          	sd	s4,48(a0)
    80202764:	03553c23          	sd	s5,56(a0)
    80202768:	05653023          	sd	s6,64(a0)
    8020276c:	05753423          	sd	s7,72(a0)
    80202770:	05853823          	sd	s8,80(a0)
    80202774:	05953c23          	sd	s9,88(a0)
    80202778:	07a53023          	sd	s10,96(a0)
    8020277c:	07b53423          	sd	s11,104(a0)
    80202780:	0005b083          	ld	ra,0(a1)
    80202784:	0085b103          	ld	sp,8(a1)
    80202788:	6980                	ld	s0,16(a1)
    8020278a:	6d84                	ld	s1,24(a1)
    8020278c:	0205b903          	ld	s2,32(a1)
    80202790:	0285b983          	ld	s3,40(a1)
    80202794:	0305ba03          	ld	s4,48(a1)
    80202798:	0385ba83          	ld	s5,56(a1)
    8020279c:	0405bb03          	ld	s6,64(a1)
    802027a0:	0485bb83          	ld	s7,72(a1)
    802027a4:	0505bc03          	ld	s8,80(a1)
    802027a8:	0585bc83          	ld	s9,88(a1)
    802027ac:	0605bd03          	ld	s10,96(a1)
    802027b0:	0685bd83          	ld	s11,104(a1)
    802027b4:	8082                	ret

00000000802027b6 <trapinithart>:
    802027b6:	1141                	addi	sp,sp,-16
    802027b8:	e406                	sd	ra,8(sp)
    802027ba:	e022                	sd	s0,0(sp)
    802027bc:	0800                	addi	s0,sp,16
    802027be:	00002797          	auipc	a5,0x2
    802027c2:	79278793          	addi	a5,a5,1938 # 80204f50 <kernelvec>
    802027c6:	10579073          	csrw	stvec,a5
    802027ca:	100027f3          	csrr	a5,sstatus
    802027ce:	0027e793          	ori	a5,a5,2
    802027d2:	10079073          	csrw	sstatus,a5
    802027d6:	104027f3          	csrr	a5,sie
    802027da:	2227e793          	ori	a5,a5,546
    802027de:	10479073          	csrw	sie,a5
    802027e2:	00003097          	auipc	ra,0x3
    802027e6:	824080e7          	jalr	-2012(ra) # 80205006 <set_next_timeout>
    802027ea:	60a2                	ld	ra,8(sp)
    802027ec:	6402                	ld	s0,0(sp)
    802027ee:	0141                	addi	sp,sp,16
    802027f0:	8082                	ret

00000000802027f2 <usertrapret>:
    802027f2:	1141                	addi	sp,sp,-16
    802027f4:	e406                	sd	ra,8(sp)
    802027f6:	e022                	sd	s0,0(sp)
    802027f8:	0800                	addi	s0,sp,16
    802027fa:	fffff097          	auipc	ra,0xfffff
    802027fe:	33e080e7          	jalr	830(ra) # 80201b38 <myproc>
    80202802:	100027f3          	csrr	a5,sstatus
    80202806:	9bf5                	andi	a5,a5,-3
    80202808:	10079073          	csrw	sstatus,a5
    8020280c:	00005617          	auipc	a2,0x5
    80202810:	7f460613          	addi	a2,a2,2036 # 80208000 <_trampoline>
    80202814:	00005697          	auipc	a3,0x5
    80202818:	7ec68693          	addi	a3,a3,2028 # 80208000 <_trampoline>
    8020281c:	8e91                	sub	a3,a3,a2
    8020281e:	040007b7          	lui	a5,0x4000
    80202822:	17fd                	addi	a5,a5,-1
    80202824:	07b2                	slli	a5,a5,0xc
    80202826:	96be                	add	a3,a3,a5
    80202828:	10569073          	csrw	stvec,a3
    8020282c:	7138                	ld	a4,96(a0)
    8020282e:	180026f3          	csrr	a3,satp
    80202832:	e314                	sd	a3,0(a4)
    80202834:	7138                	ld	a4,96(a0)
    80202836:	6134                	ld	a3,64(a0)
    80202838:	6585                	lui	a1,0x1
    8020283a:	96ae                	add	a3,a3,a1
    8020283c:	e714                	sd	a3,8(a4)
    8020283e:	7138                	ld	a4,96(a0)
    80202840:	00000697          	auipc	a3,0x0
    80202844:	11468693          	addi	a3,a3,276 # 80202954 <usertrap>
    80202848:	eb14                	sd	a3,16(a4)
    8020284a:	7138                	ld	a4,96(a0)
    8020284c:	8692                	mv	a3,tp
    8020284e:	f314                	sd	a3,32(a4)
    80202850:	100026f3          	csrr	a3,sstatus
    80202854:	eff6f693          	andi	a3,a3,-257
    80202858:	0206e693          	ori	a3,a3,32
    8020285c:	10069073          	csrw	sstatus,a3
    80202860:	7138                	ld	a4,96(a0)
    80202862:	6f18                	ld	a4,24(a4)
    80202864:	14171073          	csrw	sepc,a4
    80202868:	692c                	ld	a1,80(a0)
    8020286a:	81b1                	srli	a1,a1,0xc
    8020286c:	00006717          	auipc	a4,0x6
    80202870:	82470713          	addi	a4,a4,-2012 # 80208090 <userret>
    80202874:	8f11                	sub	a4,a4,a2
    80202876:	97ba                	add	a5,a5,a4
    80202878:	577d                	li	a4,-1
    8020287a:	177e                	slli	a4,a4,0x3f
    8020287c:	8dd9                	or	a1,a1,a4
    8020287e:	02000537          	lui	a0,0x2000
    80202882:	157d                	addi	a0,a0,-1
    80202884:	0536                	slli	a0,a0,0xd
    80202886:	9782                	jalr	a5
    80202888:	60a2                	ld	ra,8(sp)
    8020288a:	6402                	ld	s0,0(sp)
    8020288c:	0141                	addi	sp,sp,16
    8020288e:	8082                	ret

0000000080202890 <devintr>:
    80202890:	1101                	addi	sp,sp,-32
    80202892:	ec06                	sd	ra,24(sp)
    80202894:	e822                	sd	s0,16(sp)
    80202896:	e426                	sd	s1,8(sp)
    80202898:	1000                	addi	s0,sp,32
    8020289a:	14202773          	csrr	a4,scause
    8020289e:	00074d63          	bltz	a4,802028b8 <devintr+0x28>
    802028a2:	57fd                	li	a5,-1
    802028a4:	17fe                	slli	a5,a5,0x3f
    802028a6:	0795                	addi	a5,a5,5
    802028a8:	4501                	li	a0,0
    802028aa:	08f70f63          	beq	a4,a5,80202948 <devintr+0xb8>
    802028ae:	60e2                	ld	ra,24(sp)
    802028b0:	6442                	ld	s0,16(sp)
    802028b2:	64a2                	ld	s1,8(sp)
    802028b4:	6105                	addi	sp,sp,32
    802028b6:	8082                	ret
    802028b8:	0ff77793          	andi	a5,a4,255
    802028bc:	4695                	li	a3,5
    802028be:	fed792e3          	bne	a5,a3,802028a2 <devintr+0x12>
    802028c2:	00005097          	auipc	ra,0x5
    802028c6:	83e080e7          	jalr	-1986(ra) # 80207100 <plic_claim>
    802028ca:	84aa                	mv	s1,a0
    802028cc:	4505                	li	a0,1
    802028ce:	d0e5                	beqz	s1,802028ae <devintr+0x1e>
    802028d0:	85a6                	mv	a1,s1
    802028d2:	00007517          	auipc	a0,0x7
    802028d6:	e5e50513          	addi	a0,a0,-418 # 80209730 <states.1718+0x28>
    802028da:	ffffe097          	auipc	ra,0xffffe
    802028de:	8b4080e7          	jalr	-1868(ra) # 8020018e <printf>
    802028e2:	47a9                	li	a5,10
    802028e4:	02f48563          	beq	s1,a5,8020290e <devintr+0x7e>
    802028e8:	4785                	li	a5,1
    802028ea:	04f48a63          	beq	s1,a5,8020293e <devintr+0xae>
    802028ee:	85a6                	mv	a1,s1
    802028f0:	00007517          	auipc	a0,0x7
    802028f4:	e5050513          	addi	a0,a0,-432 # 80209740 <states.1718+0x38>
    802028f8:	ffffe097          	auipc	ra,0xffffe
    802028fc:	896080e7          	jalr	-1898(ra) # 8020018e <printf>
    80202900:	8526                	mv	a0,s1
    80202902:	00005097          	auipc	ra,0x5
    80202906:	828080e7          	jalr	-2008(ra) # 8020712a <plic_complete>
    8020290a:	4505                	li	a0,1
    8020290c:	b74d                	j	802028ae <devintr+0x1e>
    8020290e:	00007517          	auipc	a0,0x7
    80202912:	e2a50513          	addi	a0,a0,-470 # 80209738 <states.1718+0x30>
    80202916:	ffffe097          	auipc	ra,0xffffe
    8020291a:	878080e7          	jalr	-1928(ra) # 8020018e <printf>
    8020291e:	4501                	li	a0,0
    80202920:	4581                	li	a1,0
    80202922:	4601                	li	a2,0
    80202924:	4681                	li	a3,0
    80202926:	4889                	li	a7,2
    80202928:	00000073          	ecall
    8020292c:	2501                	sext.w	a0,a0
    8020292e:	57fd                	li	a5,-1
    80202930:	fcf508e3          	beq	a0,a5,80202900 <devintr+0x70>
    80202934:	00005097          	auipc	ra,0x5
    80202938:	a02080e7          	jalr	-1534(ra) # 80207336 <consoleintr>
    8020293c:	b7d1                	j	80202900 <devintr+0x70>
    8020293e:	00003097          	auipc	ra,0x3
    80202942:	e70080e7          	jalr	-400(ra) # 802057ae <disk_intr>
    80202946:	bf6d                	j	80202900 <devintr+0x70>
    80202948:	00002097          	auipc	ra,0x2
    8020294c:	6e4080e7          	jalr	1764(ra) # 8020502c <timer_tick>
    80202950:	4509                	li	a0,2
    80202952:	bfb1                	j	802028ae <devintr+0x1e>

0000000080202954 <usertrap>:
    80202954:	1101                	addi	sp,sp,-32
    80202956:	ec06                	sd	ra,24(sp)
    80202958:	e822                	sd	s0,16(sp)
    8020295a:	e426                	sd	s1,8(sp)
    8020295c:	e04a                	sd	s2,0(sp)
    8020295e:	1000                	addi	s0,sp,32
    80202960:	100027f3          	csrr	a5,sstatus
    80202964:	1007f793          	andi	a5,a5,256
    80202968:	e3ad                	bnez	a5,802029ca <usertrap+0x76>
    8020296a:	00002797          	auipc	a5,0x2
    8020296e:	5e678793          	addi	a5,a5,1510 # 80204f50 <kernelvec>
    80202972:	10579073          	csrw	stvec,a5
    80202976:	fffff097          	auipc	ra,0xfffff
    8020297a:	1c2080e7          	jalr	450(ra) # 80201b38 <myproc>
    8020297e:	84aa                	mv	s1,a0
    80202980:	713c                	ld	a5,96(a0)
    80202982:	14102773          	csrr	a4,sepc
    80202986:	ef98                	sd	a4,24(a5)
    80202988:	14202773          	csrr	a4,scause
    8020298c:	47a1                	li	a5,8
    8020298e:	04f71c63          	bne	a4,a5,802029e6 <usertrap+0x92>
    80202992:	591c                	lw	a5,48(a0)
    80202994:	e3b9                	bnez	a5,802029da <usertrap+0x86>
    80202996:	70b8                	ld	a4,96(s1)
    80202998:	6f1c                	ld	a5,24(a4)
    8020299a:	0791                	addi	a5,a5,4
    8020299c:	ef1c                	sd	a5,24(a4)
    8020299e:	100027f3          	csrr	a5,sstatus
    802029a2:	0027e793          	ori	a5,a5,2
    802029a6:	10079073          	csrw	sstatus,a5
    802029aa:	00000097          	auipc	ra,0x0
    802029ae:	5d4080e7          	jalr	1492(ra) # 80202f7e <syscall>
    802029b2:	589c                	lw	a5,48(s1)
    802029b4:	ebd1                	bnez	a5,80202a48 <usertrap+0xf4>
    802029b6:	00000097          	auipc	ra,0x0
    802029ba:	e3c080e7          	jalr	-452(ra) # 802027f2 <usertrapret>
    802029be:	60e2                	ld	ra,24(sp)
    802029c0:	6442                	ld	s0,16(sp)
    802029c2:	64a2                	ld	s1,8(sp)
    802029c4:	6902                	ld	s2,0(sp)
    802029c6:	6105                	addi	sp,sp,32
    802029c8:	8082                	ret
    802029ca:	00007517          	auipc	a0,0x7
    802029ce:	d9650513          	addi	a0,a0,-618 # 80209760 <states.1718+0x58>
    802029d2:	ffffd097          	auipc	ra,0xffffd
    802029d6:	772080e7          	jalr	1906(ra) # 80200144 <panic>
    802029da:	557d                	li	a0,-1
    802029dc:	00000097          	auipc	ra,0x0
    802029e0:	890080e7          	jalr	-1904(ra) # 8020226c <exit>
    802029e4:	bf4d                	j	80202996 <usertrap+0x42>
    802029e6:	00000097          	auipc	ra,0x0
    802029ea:	eaa080e7          	jalr	-342(ra) # 80202890 <devintr>
    802029ee:	892a                	mv	s2,a0
    802029f0:	c501                	beqz	a0,802029f8 <usertrap+0xa4>
    802029f2:	589c                	lw	a5,48(s1)
    802029f4:	c3b1                	beqz	a5,80202a38 <usertrap+0xe4>
    802029f6:	a825                	j	80202a2e <usertrap+0xda>
    802029f8:	142025f3          	csrr	a1,scause
    802029fc:	16048693          	addi	a3,s1,352
    80202a00:	5c90                	lw	a2,56(s1)
    80202a02:	00007517          	auipc	a0,0x7
    80202a06:	d7e50513          	addi	a0,a0,-642 # 80209780 <states.1718+0x78>
    80202a0a:	ffffd097          	auipc	ra,0xffffd
    80202a0e:	784080e7          	jalr	1924(ra) # 8020018e <printf>
    80202a12:	141025f3          	csrr	a1,sepc
    80202a16:	14302673          	csrr	a2,stval
    80202a1a:	00007517          	auipc	a0,0x7
    80202a1e:	d9650513          	addi	a0,a0,-618 # 802097b0 <states.1718+0xa8>
    80202a22:	ffffd097          	auipc	ra,0xffffd
    80202a26:	76c080e7          	jalr	1900(ra) # 8020018e <printf>
    80202a2a:	4785                	li	a5,1
    80202a2c:	d89c                	sw	a5,48(s1)
    80202a2e:	557d                	li	a0,-1
    80202a30:	00000097          	auipc	ra,0x0
    80202a34:	83c080e7          	jalr	-1988(ra) # 8020226c <exit>
    80202a38:	4789                	li	a5,2
    80202a3a:	f6f91ee3          	bne	s2,a5,802029b6 <usertrap+0x62>
    80202a3e:	00000097          	auipc	ra,0x0
    80202a42:	928080e7          	jalr	-1752(ra) # 80202366 <yield>
    80202a46:	bf85                	j	802029b6 <usertrap+0x62>
    80202a48:	4901                	li	s2,0
    80202a4a:	b7d5                	j	80202a2e <usertrap+0xda>

0000000080202a4c <kerneltrap>:
    80202a4c:	7179                	addi	sp,sp,-48
    80202a4e:	f406                	sd	ra,40(sp)
    80202a50:	f022                	sd	s0,32(sp)
    80202a52:	ec26                	sd	s1,24(sp)
    80202a54:	e84a                	sd	s2,16(sp)
    80202a56:	e44e                	sd	s3,8(sp)
    80202a58:	1800                	addi	s0,sp,48
    80202a5a:	14102973          	csrr	s2,sepc
    80202a5e:	100024f3          	csrr	s1,sstatus
    80202a62:	142029f3          	csrr	s3,scause
    80202a66:	1004f793          	andi	a5,s1,256
    80202a6a:	cb85                	beqz	a5,80202a9a <kerneltrap+0x4e>
    80202a6c:	100027f3          	csrr	a5,sstatus
    80202a70:	8b89                	andi	a5,a5,2
    80202a72:	ef85                	bnez	a5,80202aaa <kerneltrap+0x5e>
    80202a74:	00000097          	auipc	ra,0x0
    80202a78:	e1c080e7          	jalr	-484(ra) # 80202890 <devintr>
    80202a7c:	cd1d                	beqz	a0,80202aba <kerneltrap+0x6e>
    80202a7e:	4789                	li	a5,2
    80202a80:	08f50b63          	beq	a0,a5,80202b16 <kerneltrap+0xca>
    80202a84:	14191073          	csrw	sepc,s2
    80202a88:	10049073          	csrw	sstatus,s1
    80202a8c:	70a2                	ld	ra,40(sp)
    80202a8e:	7402                	ld	s0,32(sp)
    80202a90:	64e2                	ld	s1,24(sp)
    80202a92:	6942                	ld	s2,16(sp)
    80202a94:	69a2                	ld	s3,8(sp)
    80202a96:	6145                	addi	sp,sp,48
    80202a98:	8082                	ret
    80202a9a:	00007517          	auipc	a0,0x7
    80202a9e:	d3650513          	addi	a0,a0,-714 # 802097d0 <states.1718+0xc8>
    80202aa2:	ffffd097          	auipc	ra,0xffffd
    80202aa6:	6a2080e7          	jalr	1698(ra) # 80200144 <panic>
    80202aaa:	00007517          	auipc	a0,0x7
    80202aae:	d4e50513          	addi	a0,a0,-690 # 802097f8 <states.1718+0xf0>
    80202ab2:	ffffd097          	auipc	ra,0xffffd
    80202ab6:	692080e7          	jalr	1682(ra) # 80200144 <panic>
    80202aba:	85ce                	mv	a1,s3
    80202abc:	00007517          	auipc	a0,0x7
    80202ac0:	d5c50513          	addi	a0,a0,-676 # 80209818 <states.1718+0x110>
    80202ac4:	ffffd097          	auipc	ra,0xffffd
    80202ac8:	6ca080e7          	jalr	1738(ra) # 8020018e <printf>
    80202acc:	141025f3          	csrr	a1,sepc
    80202ad0:	14302673          	csrr	a2,stval
    80202ad4:	8692                	mv	a3,tp
    80202ad6:	00007517          	auipc	a0,0x7
    80202ada:	d5250513          	addi	a0,a0,-686 # 80209828 <states.1718+0x120>
    80202ade:	ffffd097          	auipc	ra,0xffffd
    80202ae2:	6b0080e7          	jalr	1712(ra) # 8020018e <printf>
    80202ae6:	fffff097          	auipc	ra,0xfffff
    80202aea:	052080e7          	jalr	82(ra) # 80201b38 <myproc>
    80202aee:	cd01                	beqz	a0,80202b06 <kerneltrap+0xba>
    80202af0:	16050613          	addi	a2,a0,352
    80202af4:	5d0c                	lw	a1,56(a0)
    80202af6:	00007517          	auipc	a0,0x7
    80202afa:	d5250513          	addi	a0,a0,-686 # 80209848 <states.1718+0x140>
    80202afe:	ffffd097          	auipc	ra,0xffffd
    80202b02:	690080e7          	jalr	1680(ra) # 8020018e <printf>
    80202b06:	00007517          	auipc	a0,0x7
    80202b0a:	d5a50513          	addi	a0,a0,-678 # 80209860 <states.1718+0x158>
    80202b0e:	ffffd097          	auipc	ra,0xffffd
    80202b12:	636080e7          	jalr	1590(ra) # 80200144 <panic>
    80202b16:	fffff097          	auipc	ra,0xfffff
    80202b1a:	022080e7          	jalr	34(ra) # 80201b38 <myproc>
    80202b1e:	d13d                	beqz	a0,80202a84 <kerneltrap+0x38>
    80202b20:	fffff097          	auipc	ra,0xfffff
    80202b24:	018080e7          	jalr	24(ra) # 80201b38 <myproc>
    80202b28:	4d18                	lw	a4,24(a0)
    80202b2a:	478d                	li	a5,3
    80202b2c:	f4f71ce3          	bne	a4,a5,80202a84 <kerneltrap+0x38>
    80202b30:	00000097          	auipc	ra,0x0
    80202b34:	836080e7          	jalr	-1994(ra) # 80202366 <yield>
    80202b38:	b7b1                	j	80202a84 <kerneltrap+0x38>

0000000080202b3a <trapframedump>:
    80202b3a:	1101                	addi	sp,sp,-32
    80202b3c:	ec06                	sd	ra,24(sp)
    80202b3e:	e822                	sd	s0,16(sp)
    80202b40:	e426                	sd	s1,8(sp)
    80202b42:	1000                	addi	s0,sp,32
    80202b44:	84aa                	mv	s1,a0
    80202b46:	792c                	ld	a1,112(a0)
    80202b48:	00007517          	auipc	a0,0x7
    80202b4c:	d2850513          	addi	a0,a0,-728 # 80209870 <states.1718+0x168>
    80202b50:	ffffd097          	auipc	ra,0xffffd
    80202b54:	63e080e7          	jalr	1598(ra) # 8020018e <printf>
    80202b58:	7cac                	ld	a1,120(s1)
    80202b5a:	00007517          	auipc	a0,0x7
    80202b5e:	d1e50513          	addi	a0,a0,-738 # 80209878 <states.1718+0x170>
    80202b62:	ffffd097          	auipc	ra,0xffffd
    80202b66:	62c080e7          	jalr	1580(ra) # 8020018e <printf>
    80202b6a:	60cc                	ld	a1,128(s1)
    80202b6c:	00007517          	auipc	a0,0x7
    80202b70:	d1450513          	addi	a0,a0,-748 # 80209880 <states.1718+0x178>
    80202b74:	ffffd097          	auipc	ra,0xffffd
    80202b78:	61a080e7          	jalr	1562(ra) # 8020018e <printf>
    80202b7c:	64cc                	ld	a1,136(s1)
    80202b7e:	00007517          	auipc	a0,0x7
    80202b82:	d0a50513          	addi	a0,a0,-758 # 80209888 <states.1718+0x180>
    80202b86:	ffffd097          	auipc	ra,0xffffd
    80202b8a:	608080e7          	jalr	1544(ra) # 8020018e <printf>
    80202b8e:	68cc                	ld	a1,144(s1)
    80202b90:	00007517          	auipc	a0,0x7
    80202b94:	d0050513          	addi	a0,a0,-768 # 80209890 <states.1718+0x188>
    80202b98:	ffffd097          	auipc	ra,0xffffd
    80202b9c:	5f6080e7          	jalr	1526(ra) # 8020018e <printf>
    80202ba0:	6ccc                	ld	a1,152(s1)
    80202ba2:	00007517          	auipc	a0,0x7
    80202ba6:	cf650513          	addi	a0,a0,-778 # 80209898 <states.1718+0x190>
    80202baa:	ffffd097          	auipc	ra,0xffffd
    80202bae:	5e4080e7          	jalr	1508(ra) # 8020018e <printf>
    80202bb2:	70cc                	ld	a1,160(s1)
    80202bb4:	00007517          	auipc	a0,0x7
    80202bb8:	cec50513          	addi	a0,a0,-788 # 802098a0 <states.1718+0x198>
    80202bbc:	ffffd097          	auipc	ra,0xffffd
    80202bc0:	5d2080e7          	jalr	1490(ra) # 8020018e <printf>
    80202bc4:	74cc                	ld	a1,168(s1)
    80202bc6:	00007517          	auipc	a0,0x7
    80202bca:	ce250513          	addi	a0,a0,-798 # 802098a8 <states.1718+0x1a0>
    80202bce:	ffffd097          	auipc	ra,0xffffd
    80202bd2:	5c0080e7          	jalr	1472(ra) # 8020018e <printf>
    80202bd6:	64ac                	ld	a1,72(s1)
    80202bd8:	00007517          	auipc	a0,0x7
    80202bdc:	cd850513          	addi	a0,a0,-808 # 802098b0 <states.1718+0x1a8>
    80202be0:	ffffd097          	auipc	ra,0xffffd
    80202be4:	5ae080e7          	jalr	1454(ra) # 8020018e <printf>
    80202be8:	68ac                	ld	a1,80(s1)
    80202bea:	00007517          	auipc	a0,0x7
    80202bee:	cce50513          	addi	a0,a0,-818 # 802098b8 <states.1718+0x1b0>
    80202bf2:	ffffd097          	auipc	ra,0xffffd
    80202bf6:	59c080e7          	jalr	1436(ra) # 8020018e <printf>
    80202bfa:	6cac                	ld	a1,88(s1)
    80202bfc:	00007517          	auipc	a0,0x7
    80202c00:	cc450513          	addi	a0,a0,-828 # 802098c0 <states.1718+0x1b8>
    80202c04:	ffffd097          	auipc	ra,0xffffd
    80202c08:	58a080e7          	jalr	1418(ra) # 8020018e <printf>
    80202c0c:	1004b583          	ld	a1,256(s1)
    80202c10:	00007517          	auipc	a0,0x7
    80202c14:	cb850513          	addi	a0,a0,-840 # 802098c8 <states.1718+0x1c0>
    80202c18:	ffffd097          	auipc	ra,0xffffd
    80202c1c:	576080e7          	jalr	1398(ra) # 8020018e <printf>
    80202c20:	1084b583          	ld	a1,264(s1)
    80202c24:	00007517          	auipc	a0,0x7
    80202c28:	cac50513          	addi	a0,a0,-852 # 802098d0 <states.1718+0x1c8>
    80202c2c:	ffffd097          	auipc	ra,0xffffd
    80202c30:	562080e7          	jalr	1378(ra) # 8020018e <printf>
    80202c34:	1104b583          	ld	a1,272(s1)
    80202c38:	00007517          	auipc	a0,0x7
    80202c3c:	ca050513          	addi	a0,a0,-864 # 802098d8 <states.1718+0x1d0>
    80202c40:	ffffd097          	auipc	ra,0xffffd
    80202c44:	54e080e7          	jalr	1358(ra) # 8020018e <printf>
    80202c48:	1184b583          	ld	a1,280(s1)
    80202c4c:	00007517          	auipc	a0,0x7
    80202c50:	c9450513          	addi	a0,a0,-876 # 802098e0 <states.1718+0x1d8>
    80202c54:	ffffd097          	auipc	ra,0xffffd
    80202c58:	53a080e7          	jalr	1338(ra) # 8020018e <printf>
    80202c5c:	70ac                	ld	a1,96(s1)
    80202c5e:	00007517          	auipc	a0,0x7
    80202c62:	c8a50513          	addi	a0,a0,-886 # 802098e8 <states.1718+0x1e0>
    80202c66:	ffffd097          	auipc	ra,0xffffd
    80202c6a:	528080e7          	jalr	1320(ra) # 8020018e <printf>
    80202c6e:	74ac                	ld	a1,104(s1)
    80202c70:	00007517          	auipc	a0,0x7
    80202c74:	c8050513          	addi	a0,a0,-896 # 802098f0 <states.1718+0x1e8>
    80202c78:	ffffd097          	auipc	ra,0xffffd
    80202c7c:	516080e7          	jalr	1302(ra) # 8020018e <printf>
    80202c80:	78cc                	ld	a1,176(s1)
    80202c82:	00007517          	auipc	a0,0x7
    80202c86:	c7650513          	addi	a0,a0,-906 # 802098f8 <states.1718+0x1f0>
    80202c8a:	ffffd097          	auipc	ra,0xffffd
    80202c8e:	504080e7          	jalr	1284(ra) # 8020018e <printf>
    80202c92:	7ccc                	ld	a1,184(s1)
    80202c94:	00007517          	auipc	a0,0x7
    80202c98:	c6c50513          	addi	a0,a0,-916 # 80209900 <states.1718+0x1f8>
    80202c9c:	ffffd097          	auipc	ra,0xffffd
    80202ca0:	4f2080e7          	jalr	1266(ra) # 8020018e <printf>
    80202ca4:	60ec                	ld	a1,192(s1)
    80202ca6:	00007517          	auipc	a0,0x7
    80202caa:	c6250513          	addi	a0,a0,-926 # 80209908 <states.1718+0x200>
    80202cae:	ffffd097          	auipc	ra,0xffffd
    80202cb2:	4e0080e7          	jalr	1248(ra) # 8020018e <printf>
    80202cb6:	64ec                	ld	a1,200(s1)
    80202cb8:	00007517          	auipc	a0,0x7
    80202cbc:	c5850513          	addi	a0,a0,-936 # 80209910 <states.1718+0x208>
    80202cc0:	ffffd097          	auipc	ra,0xffffd
    80202cc4:	4ce080e7          	jalr	1230(ra) # 8020018e <printf>
    80202cc8:	68ec                	ld	a1,208(s1)
    80202cca:	00007517          	auipc	a0,0x7
    80202cce:	c4e50513          	addi	a0,a0,-946 # 80209918 <states.1718+0x210>
    80202cd2:	ffffd097          	auipc	ra,0xffffd
    80202cd6:	4bc080e7          	jalr	1212(ra) # 8020018e <printf>
    80202cda:	6cec                	ld	a1,216(s1)
    80202cdc:	00007517          	auipc	a0,0x7
    80202ce0:	c4450513          	addi	a0,a0,-956 # 80209920 <states.1718+0x218>
    80202ce4:	ffffd097          	auipc	ra,0xffffd
    80202ce8:	4aa080e7          	jalr	1194(ra) # 8020018e <printf>
    80202cec:	70ec                	ld	a1,224(s1)
    80202cee:	00007517          	auipc	a0,0x7
    80202cf2:	c3a50513          	addi	a0,a0,-966 # 80209928 <states.1718+0x220>
    80202cf6:	ffffd097          	auipc	ra,0xffffd
    80202cfa:	498080e7          	jalr	1176(ra) # 8020018e <printf>
    80202cfe:	74ec                	ld	a1,232(s1)
    80202d00:	00007517          	auipc	a0,0x7
    80202d04:	c3050513          	addi	a0,a0,-976 # 80209930 <states.1718+0x228>
    80202d08:	ffffd097          	auipc	ra,0xffffd
    80202d0c:	486080e7          	jalr	1158(ra) # 8020018e <printf>
    80202d10:	78ec                	ld	a1,240(s1)
    80202d12:	00007517          	auipc	a0,0x7
    80202d16:	c2650513          	addi	a0,a0,-986 # 80209938 <states.1718+0x230>
    80202d1a:	ffffd097          	auipc	ra,0xffffd
    80202d1e:	474080e7          	jalr	1140(ra) # 8020018e <printf>
    80202d22:	7cec                	ld	a1,248(s1)
    80202d24:	00007517          	auipc	a0,0x7
    80202d28:	c2450513          	addi	a0,a0,-988 # 80209948 <states.1718+0x240>
    80202d2c:	ffffd097          	auipc	ra,0xffffd
    80202d30:	462080e7          	jalr	1122(ra) # 8020018e <printf>
    80202d34:	748c                	ld	a1,40(s1)
    80202d36:	00007517          	auipc	a0,0x7
    80202d3a:	8da50513          	addi	a0,a0,-1830 # 80209610 <digits+0x290>
    80202d3e:	ffffd097          	auipc	ra,0xffffd
    80202d42:	450080e7          	jalr	1104(ra) # 8020018e <printf>
    80202d46:	788c                	ld	a1,48(s1)
    80202d48:	00007517          	auipc	a0,0x7
    80202d4c:	c1050513          	addi	a0,a0,-1008 # 80209958 <states.1718+0x250>
    80202d50:	ffffd097          	auipc	ra,0xffffd
    80202d54:	43e080e7          	jalr	1086(ra) # 8020018e <printf>
    80202d58:	7c8c                	ld	a1,56(s1)
    80202d5a:	00007517          	auipc	a0,0x7
    80202d5e:	c0650513          	addi	a0,a0,-1018 # 80209960 <states.1718+0x258>
    80202d62:	ffffd097          	auipc	ra,0xffffd
    80202d66:	42c080e7          	jalr	1068(ra) # 8020018e <printf>
    80202d6a:	60ac                	ld	a1,64(s1)
    80202d6c:	00007517          	auipc	a0,0x7
    80202d70:	bfc50513          	addi	a0,a0,-1028 # 80209968 <states.1718+0x260>
    80202d74:	ffffd097          	auipc	ra,0xffffd
    80202d78:	41a080e7          	jalr	1050(ra) # 8020018e <printf>
    80202d7c:	6c8c                	ld	a1,24(s1)
    80202d7e:	00007517          	auipc	a0,0x7
    80202d82:	bf250513          	addi	a0,a0,-1038 # 80209970 <states.1718+0x268>
    80202d86:	ffffd097          	auipc	ra,0xffffd
    80202d8a:	408080e7          	jalr	1032(ra) # 8020018e <printf>
    80202d8e:	60e2                	ld	ra,24(sp)
    80202d90:	6442                	ld	s0,16(sp)
    80202d92:	64a2                	ld	s1,8(sp)
    80202d94:	6105                	addi	sp,sp,32
    80202d96:	8082                	ret

0000000080202d98 <argraw>:
    80202d98:	1101                	addi	sp,sp,-32
    80202d9a:	ec06                	sd	ra,24(sp)
    80202d9c:	e822                	sd	s0,16(sp)
    80202d9e:	e426                	sd	s1,8(sp)
    80202da0:	1000                	addi	s0,sp,32
    80202da2:	84aa                	mv	s1,a0
    80202da4:	fffff097          	auipc	ra,0xfffff
    80202da8:	d94080e7          	jalr	-620(ra) # 80201b38 <myproc>
    80202dac:	4795                	li	a5,5
    80202dae:	0497e163          	bltu	a5,s1,80202df0 <argraw+0x58>
    80202db2:	048a                	slli	s1,s1,0x2
    80202db4:	00007717          	auipc	a4,0x7
    80202db8:	d1470713          	addi	a4,a4,-748 # 80209ac8 <states.1718+0x3c0>
    80202dbc:	94ba                	add	s1,s1,a4
    80202dbe:	409c                	lw	a5,0(s1)
    80202dc0:	97ba                	add	a5,a5,a4
    80202dc2:	8782                	jr	a5
    80202dc4:	713c                	ld	a5,96(a0)
    80202dc6:	7ba8                	ld	a0,112(a5)
    80202dc8:	60e2                	ld	ra,24(sp)
    80202dca:	6442                	ld	s0,16(sp)
    80202dcc:	64a2                	ld	s1,8(sp)
    80202dce:	6105                	addi	sp,sp,32
    80202dd0:	8082                	ret
    80202dd2:	713c                	ld	a5,96(a0)
    80202dd4:	7fa8                	ld	a0,120(a5)
    80202dd6:	bfcd                	j	80202dc8 <argraw+0x30>
    80202dd8:	713c                	ld	a5,96(a0)
    80202dda:	63c8                	ld	a0,128(a5)
    80202ddc:	b7f5                	j	80202dc8 <argraw+0x30>
    80202dde:	713c                	ld	a5,96(a0)
    80202de0:	67c8                	ld	a0,136(a5)
    80202de2:	b7dd                	j	80202dc8 <argraw+0x30>
    80202de4:	713c                	ld	a5,96(a0)
    80202de6:	6bc8                	ld	a0,144(a5)
    80202de8:	b7c5                	j	80202dc8 <argraw+0x30>
    80202dea:	713c                	ld	a5,96(a0)
    80202dec:	6fc8                	ld	a0,152(a5)
    80202dee:	bfe9                	j	80202dc8 <argraw+0x30>
    80202df0:	00007517          	auipc	a0,0x7
    80202df4:	b9050513          	addi	a0,a0,-1136 # 80209980 <states.1718+0x278>
    80202df8:	ffffd097          	auipc	ra,0xffffd
    80202dfc:	34c080e7          	jalr	844(ra) # 80200144 <panic>

0000000080202e00 <sys_sysinfo>:
    80202e00:	7179                	addi	sp,sp,-48
    80202e02:	f406                	sd	ra,40(sp)
    80202e04:	f022                	sd	s0,32(sp)
    80202e06:	ec26                	sd	s1,24(sp)
    80202e08:	1800                	addi	s0,sp,48
    80202e0a:	4501                	li	a0,0
    80202e0c:	00000097          	auipc	ra,0x0
    80202e10:	f8c080e7          	jalr	-116(ra) # 80202d98 <argraw>
    80202e14:	84aa                	mv	s1,a0
    80202e16:	ffffd097          	auipc	ra,0xffffd
    80202e1a:	7aa080e7          	jalr	1962(ra) # 802005c0 <freemem_amount>
    80202e1e:	fca43823          	sd	a0,-48(s0)
    80202e22:	00000097          	auipc	ra,0x0
    80202e26:	8fa080e7          	jalr	-1798(ra) # 8020271c <procnum>
    80202e2a:	fca43c23          	sd	a0,-40(s0)
    80202e2e:	4641                	li	a2,16
    80202e30:	fd040593          	addi	a1,s0,-48
    80202e34:	8526                	mv	a0,s1
    80202e36:	ffffe097          	auipc	ra,0xffffe
    80202e3a:	626080e7          	jalr	1574(ra) # 8020145c <copyout2>
    80202e3e:	957d                	srai	a0,a0,0x3f
    80202e40:	70a2                	ld	ra,40(sp)
    80202e42:	7402                	ld	s0,32(sp)
    80202e44:	64e2                	ld	s1,24(sp)
    80202e46:	6145                	addi	sp,sp,48
    80202e48:	8082                	ret

0000000080202e4a <fetchaddr>:
    80202e4a:	1101                	addi	sp,sp,-32
    80202e4c:	ec06                	sd	ra,24(sp)
    80202e4e:	e822                	sd	s0,16(sp)
    80202e50:	e426                	sd	s1,8(sp)
    80202e52:	e04a                	sd	s2,0(sp)
    80202e54:	1000                	addi	s0,sp,32
    80202e56:	84aa                	mv	s1,a0
    80202e58:	892e                	mv	s2,a1
    80202e5a:	fffff097          	auipc	ra,0xfffff
    80202e5e:	cde080e7          	jalr	-802(ra) # 80201b38 <myproc>
    80202e62:	653c                	ld	a5,72(a0)
    80202e64:	02f4f763          	bgeu	s1,a5,80202e92 <fetchaddr+0x48>
    80202e68:	00848713          	addi	a4,s1,8
    80202e6c:	02e7e563          	bltu	a5,a4,80202e96 <fetchaddr+0x4c>
    80202e70:	4621                	li	a2,8
    80202e72:	85a6                	mv	a1,s1
    80202e74:	854a                	mv	a0,s2
    80202e76:	ffffe097          	auipc	ra,0xffffe
    80202e7a:	6c4080e7          	jalr	1732(ra) # 8020153a <copyin2>
    80202e7e:	00a03533          	snez	a0,a0
    80202e82:	40a00533          	neg	a0,a0
    80202e86:	60e2                	ld	ra,24(sp)
    80202e88:	6442                	ld	s0,16(sp)
    80202e8a:	64a2                	ld	s1,8(sp)
    80202e8c:	6902                	ld	s2,0(sp)
    80202e8e:	6105                	addi	sp,sp,32
    80202e90:	8082                	ret
    80202e92:	557d                	li	a0,-1
    80202e94:	bfcd                	j	80202e86 <fetchaddr+0x3c>
    80202e96:	557d                	li	a0,-1
    80202e98:	b7fd                	j	80202e86 <fetchaddr+0x3c>

0000000080202e9a <fetchstr>:
    80202e9a:	1101                	addi	sp,sp,-32
    80202e9c:	ec06                	sd	ra,24(sp)
    80202e9e:	e822                	sd	s0,16(sp)
    80202ea0:	e426                	sd	s1,8(sp)
    80202ea2:	1000                	addi	s0,sp,32
    80202ea4:	84ae                	mv	s1,a1
    80202ea6:	85aa                	mv	a1,a0
    80202ea8:	8526                	mv	a0,s1
    80202eaa:	ffffe097          	auipc	ra,0xffffe
    80202eae:	796080e7          	jalr	1942(ra) # 80201640 <copyinstr2>
    80202eb2:	00054763          	bltz	a0,80202ec0 <fetchstr+0x26>
    80202eb6:	8526                	mv	a0,s1
    80202eb8:	ffffe097          	auipc	ra,0xffffe
    80202ebc:	a32080e7          	jalr	-1486(ra) # 802008ea <strlen>
    80202ec0:	60e2                	ld	ra,24(sp)
    80202ec2:	6442                	ld	s0,16(sp)
    80202ec4:	64a2                	ld	s1,8(sp)
    80202ec6:	6105                	addi	sp,sp,32
    80202ec8:	8082                	ret

0000000080202eca <argint>:
    80202eca:	1101                	addi	sp,sp,-32
    80202ecc:	ec06                	sd	ra,24(sp)
    80202ece:	e822                	sd	s0,16(sp)
    80202ed0:	e426                	sd	s1,8(sp)
    80202ed2:	1000                	addi	s0,sp,32
    80202ed4:	84ae                	mv	s1,a1
    80202ed6:	00000097          	auipc	ra,0x0
    80202eda:	ec2080e7          	jalr	-318(ra) # 80202d98 <argraw>
    80202ede:	c088                	sw	a0,0(s1)
    80202ee0:	4501                	li	a0,0
    80202ee2:	60e2                	ld	ra,24(sp)
    80202ee4:	6442                	ld	s0,16(sp)
    80202ee6:	64a2                	ld	s1,8(sp)
    80202ee8:	6105                	addi	sp,sp,32
    80202eea:	8082                	ret

0000000080202eec <sys_test_proc>:
    80202eec:	1101                	addi	sp,sp,-32
    80202eee:	ec06                	sd	ra,24(sp)
    80202ef0:	e822                	sd	s0,16(sp)
    80202ef2:	1000                	addi	s0,sp,32
    80202ef4:	fec40593          	addi	a1,s0,-20
    80202ef8:	4501                	li	a0,0
    80202efa:	00000097          	auipc	ra,0x0
    80202efe:	fd0080e7          	jalr	-48(ra) # 80202eca <argint>
    80202f02:	fffff097          	auipc	ra,0xfffff
    80202f06:	c36080e7          	jalr	-970(ra) # 80201b38 <myproc>
    80202f0a:	8612                	mv	a2,tp
    80202f0c:	fec42683          	lw	a3,-20(s0)
    80202f10:	5d0c                	lw	a1,56(a0)
    80202f12:	00007517          	auipc	a0,0x7
    80202f16:	a7650513          	addi	a0,a0,-1418 # 80209988 <states.1718+0x280>
    80202f1a:	ffffd097          	auipc	ra,0xffffd
    80202f1e:	274080e7          	jalr	628(ra) # 8020018e <printf>
    80202f22:	4501                	li	a0,0
    80202f24:	60e2                	ld	ra,24(sp)
    80202f26:	6442                	ld	s0,16(sp)
    80202f28:	6105                	addi	sp,sp,32
    80202f2a:	8082                	ret

0000000080202f2c <argaddr>:
    80202f2c:	1101                	addi	sp,sp,-32
    80202f2e:	ec06                	sd	ra,24(sp)
    80202f30:	e822                	sd	s0,16(sp)
    80202f32:	e426                	sd	s1,8(sp)
    80202f34:	1000                	addi	s0,sp,32
    80202f36:	84ae                	mv	s1,a1
    80202f38:	00000097          	auipc	ra,0x0
    80202f3c:	e60080e7          	jalr	-416(ra) # 80202d98 <argraw>
    80202f40:	e088                	sd	a0,0(s1)
    80202f42:	4501                	li	a0,0
    80202f44:	60e2                	ld	ra,24(sp)
    80202f46:	6442                	ld	s0,16(sp)
    80202f48:	64a2                	ld	s1,8(sp)
    80202f4a:	6105                	addi	sp,sp,32
    80202f4c:	8082                	ret

0000000080202f4e <argstr>:
    80202f4e:	1101                	addi	sp,sp,-32
    80202f50:	ec06                	sd	ra,24(sp)
    80202f52:	e822                	sd	s0,16(sp)
    80202f54:	e426                	sd	s1,8(sp)
    80202f56:	e04a                	sd	s2,0(sp)
    80202f58:	1000                	addi	s0,sp,32
    80202f5a:	84ae                	mv	s1,a1
    80202f5c:	8932                	mv	s2,a2
    80202f5e:	00000097          	auipc	ra,0x0
    80202f62:	e3a080e7          	jalr	-454(ra) # 80202d98 <argraw>
    80202f66:	864a                	mv	a2,s2
    80202f68:	85a6                	mv	a1,s1
    80202f6a:	00000097          	auipc	ra,0x0
    80202f6e:	f30080e7          	jalr	-208(ra) # 80202e9a <fetchstr>
    80202f72:	60e2                	ld	ra,24(sp)
    80202f74:	6442                	ld	s0,16(sp)
    80202f76:	64a2                	ld	s1,8(sp)
    80202f78:	6902                	ld	s2,0(sp)
    80202f7a:	6105                	addi	sp,sp,32
    80202f7c:	8082                	ret

0000000080202f7e <syscall>:
    80202f7e:	7179                	addi	sp,sp,-48
    80202f80:	f406                	sd	ra,40(sp)
    80202f82:	f022                	sd	s0,32(sp)
    80202f84:	ec26                	sd	s1,24(sp)
    80202f86:	e84a                	sd	s2,16(sp)
    80202f88:	e44e                	sd	s3,8(sp)
    80202f8a:	1800                	addi	s0,sp,48
    80202f8c:	fffff097          	auipc	ra,0xfffff
    80202f90:	bac080e7          	jalr	-1108(ra) # 80201b38 <myproc>
    80202f94:	84aa                	mv	s1,a0
    80202f96:	06053903          	ld	s2,96(a0)
    80202f9a:	0a893783          	ld	a5,168(s2)
    80202f9e:	0007899b          	sext.w	s3,a5
    80202fa2:	37fd                	addiw	a5,a5,-1
    80202fa4:	4765                	li	a4,25
    80202fa6:	04f76863          	bltu	a4,a5,80202ff6 <syscall+0x78>
    80202faa:	00399713          	slli	a4,s3,0x3
    80202fae:	00007797          	auipc	a5,0x7
    80202fb2:	b3278793          	addi	a5,a5,-1230 # 80209ae0 <syscalls>
    80202fb6:	97ba                	add	a5,a5,a4
    80202fb8:	639c                	ld	a5,0(a5)
    80202fba:	cf95                	beqz	a5,80202ff6 <syscall+0x78>
    80202fbc:	9782                	jalr	a5
    80202fbe:	06a93823          	sd	a0,112(s2)
    80202fc2:	1704a783          	lw	a5,368(s1)
    80202fc6:	4137d7bb          	sraw	a5,a5,s3
    80202fca:	8b85                	andi	a5,a5,1
    80202fcc:	c7a1                	beqz	a5,80203014 <syscall+0x96>
    80202fce:	70b8                	ld	a4,96(s1)
    80202fd0:	098e                	slli	s3,s3,0x3
    80202fd2:	00007797          	auipc	a5,0x7
    80202fd6:	b0e78793          	addi	a5,a5,-1266 # 80209ae0 <syscalls>
    80202fda:	99be                	add	s3,s3,a5
    80202fdc:	7b34                	ld	a3,112(a4)
    80202fde:	0d89b603          	ld	a2,216(s3)
    80202fe2:	5c8c                	lw	a1,56(s1)
    80202fe4:	00007517          	auipc	a0,0x7
    80202fe8:	9d450513          	addi	a0,a0,-1580 # 802099b8 <states.1718+0x2b0>
    80202fec:	ffffd097          	auipc	ra,0xffffd
    80202ff0:	1a2080e7          	jalr	418(ra) # 8020018e <printf>
    80202ff4:	a005                	j	80203014 <syscall+0x96>
    80202ff6:	86ce                	mv	a3,s3
    80202ff8:	16048613          	addi	a2,s1,352
    80202ffc:	5c8c                	lw	a1,56(s1)
    80202ffe:	00007517          	auipc	a0,0x7
    80203002:	9d250513          	addi	a0,a0,-1582 # 802099d0 <states.1718+0x2c8>
    80203006:	ffffd097          	auipc	ra,0xffffd
    8020300a:	188080e7          	jalr	392(ra) # 8020018e <printf>
    8020300e:	70bc                	ld	a5,96(s1)
    80203010:	577d                	li	a4,-1
    80203012:	fbb8                	sd	a4,112(a5)
    80203014:	70a2                	ld	ra,40(sp)
    80203016:	7402                	ld	s0,32(sp)
    80203018:	64e2                	ld	s1,24(sp)
    8020301a:	6942                	ld	s2,16(sp)
    8020301c:	69a2                	ld	s3,8(sp)
    8020301e:	6145                	addi	sp,sp,48
    80203020:	8082                	ret

0000000080203022 <sys_exec>:
    80203022:	da010113          	addi	sp,sp,-608
    80203026:	24113c23          	sd	ra,600(sp)
    8020302a:	24813823          	sd	s0,592(sp)
    8020302e:	24913423          	sd	s1,584(sp)
    80203032:	25213023          	sd	s2,576(sp)
    80203036:	23313c23          	sd	s3,568(sp)
    8020303a:	23413823          	sd	s4,560(sp)
    8020303e:	23513423          	sd	s5,552(sp)
    80203042:	1480                	addi	s0,sp,608
    80203044:	10400613          	li	a2,260
    80203048:	eb840593          	addi	a1,s0,-328
    8020304c:	4501                	li	a0,0
    8020304e:	00000097          	auipc	ra,0x0
    80203052:	f00080e7          	jalr	-256(ra) # 80202f4e <argstr>
    80203056:	597d                	li	s2,-1
    80203058:	0c054a63          	bltz	a0,8020312c <sys_exec+0x10a>
    8020305c:	db040593          	addi	a1,s0,-592
    80203060:	4505                	li	a0,1
    80203062:	00000097          	auipc	ra,0x0
    80203066:	eca080e7          	jalr	-310(ra) # 80202f2c <argaddr>
    8020306a:	0c054163          	bltz	a0,8020312c <sys_exec+0x10a>
    8020306e:	10000613          	li	a2,256
    80203072:	4581                	li	a1,0
    80203074:	db840513          	addi	a0,s0,-584
    80203078:	ffffd097          	auipc	ra,0xffffd
    8020307c:	6ea080e7          	jalr	1770(ra) # 80200762 <memset>
    80203080:	db840493          	addi	s1,s0,-584
    80203084:	89a6                	mv	s3,s1
    80203086:	4901                	li	s2,0
    80203088:	02000a13          	li	s4,32
    8020308c:	00090a9b          	sext.w	s5,s2
    80203090:	00391513          	slli	a0,s2,0x3
    80203094:	da840593          	addi	a1,s0,-600
    80203098:	db043783          	ld	a5,-592(s0)
    8020309c:	953e                	add	a0,a0,a5
    8020309e:	00000097          	auipc	ra,0x0
    802030a2:	dac080e7          	jalr	-596(ra) # 80202e4a <fetchaddr>
    802030a6:	02054a63          	bltz	a0,802030da <sys_exec+0xb8>
    802030aa:	da843783          	ld	a5,-600(s0)
    802030ae:	c3b9                	beqz	a5,802030f4 <sys_exec+0xd2>
    802030b0:	ffffd097          	auipc	ra,0xffffd
    802030b4:	4aa080e7          	jalr	1194(ra) # 8020055a <kalloc>
    802030b8:	85aa                	mv	a1,a0
    802030ba:	00a9b023          	sd	a0,0(s3)
    802030be:	cd11                	beqz	a0,802030da <sys_exec+0xb8>
    802030c0:	6605                	lui	a2,0x1
    802030c2:	da843503          	ld	a0,-600(s0)
    802030c6:	00000097          	auipc	ra,0x0
    802030ca:	dd4080e7          	jalr	-556(ra) # 80202e9a <fetchstr>
    802030ce:	00054663          	bltz	a0,802030da <sys_exec+0xb8>
    802030d2:	0905                	addi	s2,s2,1
    802030d4:	09a1                	addi	s3,s3,8
    802030d6:	fb491be3          	bne	s2,s4,8020308c <sys_exec+0x6a>
    802030da:	10048913          	addi	s2,s1,256
    802030de:	6088                	ld	a0,0(s1)
    802030e0:	c529                	beqz	a0,8020312a <sys_exec+0x108>
    802030e2:	ffffd097          	auipc	ra,0xffffd
    802030e6:	364080e7          	jalr	868(ra) # 80200446 <kfree>
    802030ea:	04a1                	addi	s1,s1,8
    802030ec:	ff2499e3          	bne	s1,s2,802030de <sys_exec+0xbc>
    802030f0:	597d                	li	s2,-1
    802030f2:	a82d                	j	8020312c <sys_exec+0x10a>
    802030f4:	0a8e                	slli	s5,s5,0x3
    802030f6:	fc040793          	addi	a5,s0,-64
    802030fa:	9abe                	add	s5,s5,a5
    802030fc:	de0abc23          	sd	zero,-520(s5)
    80203100:	db840593          	addi	a1,s0,-584
    80203104:	eb840513          	addi	a0,s0,-328
    80203108:	00001097          	auipc	ra,0x1
    8020310c:	e58080e7          	jalr	-424(ra) # 80203f60 <exec>
    80203110:	892a                	mv	s2,a0
    80203112:	10048993          	addi	s3,s1,256
    80203116:	6088                	ld	a0,0(s1)
    80203118:	c911                	beqz	a0,8020312c <sys_exec+0x10a>
    8020311a:	ffffd097          	auipc	ra,0xffffd
    8020311e:	32c080e7          	jalr	812(ra) # 80200446 <kfree>
    80203122:	04a1                	addi	s1,s1,8
    80203124:	ff3499e3          	bne	s1,s3,80203116 <sys_exec+0xf4>
    80203128:	a011                	j	8020312c <sys_exec+0x10a>
    8020312a:	597d                	li	s2,-1
    8020312c:	854a                	mv	a0,s2
    8020312e:	25813083          	ld	ra,600(sp)
    80203132:	25013403          	ld	s0,592(sp)
    80203136:	24813483          	ld	s1,584(sp)
    8020313a:	24013903          	ld	s2,576(sp)
    8020313e:	23813983          	ld	s3,568(sp)
    80203142:	23013a03          	ld	s4,560(sp)
    80203146:	22813a83          	ld	s5,552(sp)
    8020314a:	26010113          	addi	sp,sp,608
    8020314e:	8082                	ret

0000000080203150 <sys_exit>:
    80203150:	1101                	addi	sp,sp,-32
    80203152:	ec06                	sd	ra,24(sp)
    80203154:	e822                	sd	s0,16(sp)
    80203156:	1000                	addi	s0,sp,32
    80203158:	fec40593          	addi	a1,s0,-20
    8020315c:	4501                	li	a0,0
    8020315e:	00000097          	auipc	ra,0x0
    80203162:	d6c080e7          	jalr	-660(ra) # 80202eca <argint>
    80203166:	57fd                	li	a5,-1
    80203168:	00054963          	bltz	a0,8020317a <sys_exit+0x2a>
    8020316c:	fec42503          	lw	a0,-20(s0)
    80203170:	fffff097          	auipc	ra,0xfffff
    80203174:	0fc080e7          	jalr	252(ra) # 8020226c <exit>
    80203178:	4781                	li	a5,0
    8020317a:	853e                	mv	a0,a5
    8020317c:	60e2                	ld	ra,24(sp)
    8020317e:	6442                	ld	s0,16(sp)
    80203180:	6105                	addi	sp,sp,32
    80203182:	8082                	ret

0000000080203184 <sys_getpid>:
    80203184:	1141                	addi	sp,sp,-16
    80203186:	e406                	sd	ra,8(sp)
    80203188:	e022                	sd	s0,0(sp)
    8020318a:	0800                	addi	s0,sp,16
    8020318c:	fffff097          	auipc	ra,0xfffff
    80203190:	9ac080e7          	jalr	-1620(ra) # 80201b38 <myproc>
    80203194:	5d08                	lw	a0,56(a0)
    80203196:	60a2                	ld	ra,8(sp)
    80203198:	6402                	ld	s0,0(sp)
    8020319a:	0141                	addi	sp,sp,16
    8020319c:	8082                	ret

000000008020319e <sys_fork>:
    8020319e:	1141                	addi	sp,sp,-16
    802031a0:	e406                	sd	ra,8(sp)
    802031a2:	e022                	sd	s0,0(sp)
    802031a4:	0800                	addi	s0,sp,16
    802031a6:	fffff097          	auipc	ra,0xfffff
    802031aa:	d8c080e7          	jalr	-628(ra) # 80201f32 <fork>
    802031ae:	60a2                	ld	ra,8(sp)
    802031b0:	6402                	ld	s0,0(sp)
    802031b2:	0141                	addi	sp,sp,16
    802031b4:	8082                	ret

00000000802031b6 <sys_wait>:
    802031b6:	1101                	addi	sp,sp,-32
    802031b8:	ec06                	sd	ra,24(sp)
    802031ba:	e822                	sd	s0,16(sp)
    802031bc:	1000                	addi	s0,sp,32
    802031be:	fe840593          	addi	a1,s0,-24
    802031c2:	4501                	li	a0,0
    802031c4:	00000097          	auipc	ra,0x0
    802031c8:	d68080e7          	jalr	-664(ra) # 80202f2c <argaddr>
    802031cc:	87aa                	mv	a5,a0
    802031ce:	557d                	li	a0,-1
    802031d0:	0007c863          	bltz	a5,802031e0 <sys_wait+0x2a>
    802031d4:	fe843503          	ld	a0,-24(s0)
    802031d8:	fffff097          	auipc	ra,0xfffff
    802031dc:	248080e7          	jalr	584(ra) # 80202420 <wait>
    802031e0:	60e2                	ld	ra,24(sp)
    802031e2:	6442                	ld	s0,16(sp)
    802031e4:	6105                	addi	sp,sp,32
    802031e6:	8082                	ret

00000000802031e8 <sys_sbrk>:
    802031e8:	7179                	addi	sp,sp,-48
    802031ea:	f406                	sd	ra,40(sp)
    802031ec:	f022                	sd	s0,32(sp)
    802031ee:	ec26                	sd	s1,24(sp)
    802031f0:	1800                	addi	s0,sp,48
    802031f2:	fdc40593          	addi	a1,s0,-36
    802031f6:	4501                	li	a0,0
    802031f8:	00000097          	auipc	ra,0x0
    802031fc:	cd2080e7          	jalr	-814(ra) # 80202eca <argint>
    80203200:	87aa                	mv	a5,a0
    80203202:	557d                	li	a0,-1
    80203204:	0207c063          	bltz	a5,80203224 <sys_sbrk+0x3c>
    80203208:	fffff097          	auipc	ra,0xfffff
    8020320c:	930080e7          	jalr	-1744(ra) # 80201b38 <myproc>
    80203210:	4524                	lw	s1,72(a0)
    80203212:	fdc42503          	lw	a0,-36(s0)
    80203216:	fffff097          	auipc	ra,0xfffff
    8020321a:	ca4080e7          	jalr	-860(ra) # 80201eba <growproc>
    8020321e:	00054863          	bltz	a0,8020322e <sys_sbrk+0x46>
    80203222:	8526                	mv	a0,s1
    80203224:	70a2                	ld	ra,40(sp)
    80203226:	7402                	ld	s0,32(sp)
    80203228:	64e2                	ld	s1,24(sp)
    8020322a:	6145                	addi	sp,sp,48
    8020322c:	8082                	ret
    8020322e:	557d                	li	a0,-1
    80203230:	bfd5                	j	80203224 <sys_sbrk+0x3c>

0000000080203232 <sys_sleep>:
    80203232:	7139                	addi	sp,sp,-64
    80203234:	fc06                	sd	ra,56(sp)
    80203236:	f822                	sd	s0,48(sp)
    80203238:	f426                	sd	s1,40(sp)
    8020323a:	f04a                	sd	s2,32(sp)
    8020323c:	ec4e                	sd	s3,24(sp)
    8020323e:	0080                	addi	s0,sp,64
    80203240:	fcc40593          	addi	a1,s0,-52
    80203244:	4501                	li	a0,0
    80203246:	00000097          	auipc	ra,0x0
    8020324a:	c84080e7          	jalr	-892(ra) # 80202eca <argint>
    8020324e:	57fd                	li	a5,-1
    80203250:	06054563          	bltz	a0,802032ba <sys_sleep+0x88>
    80203254:	00224517          	auipc	a0,0x224
    80203258:	34450513          	addi	a0,a0,836 # 80427598 <tickslock>
    8020325c:	ffffd097          	auipc	ra,0xffffd
    80203260:	46a080e7          	jalr	1130(ra) # 802006c6 <acquire>
    80203264:	00224917          	auipc	s2,0x224
    80203268:	34c92903          	lw	s2,844(s2) # 804275b0 <ticks>
    8020326c:	fcc42783          	lw	a5,-52(s0)
    80203270:	cf85                	beqz	a5,802032a8 <sys_sleep+0x76>
    80203272:	00224997          	auipc	s3,0x224
    80203276:	32698993          	addi	s3,s3,806 # 80427598 <tickslock>
    8020327a:	00224497          	auipc	s1,0x224
    8020327e:	33648493          	addi	s1,s1,822 # 804275b0 <ticks>
    80203282:	fffff097          	auipc	ra,0xfffff
    80203286:	8b6080e7          	jalr	-1866(ra) # 80201b38 <myproc>
    8020328a:	591c                	lw	a5,48(a0)
    8020328c:	ef9d                	bnez	a5,802032ca <sys_sleep+0x98>
    8020328e:	85ce                	mv	a1,s3
    80203290:	8526                	mv	a0,s1
    80203292:	fffff097          	auipc	ra,0xfffff
    80203296:	110080e7          	jalr	272(ra) # 802023a2 <sleep>
    8020329a:	409c                	lw	a5,0(s1)
    8020329c:	412787bb          	subw	a5,a5,s2
    802032a0:	fcc42703          	lw	a4,-52(s0)
    802032a4:	fce7efe3          	bltu	a5,a4,80203282 <sys_sleep+0x50>
    802032a8:	00224517          	auipc	a0,0x224
    802032ac:	2f050513          	addi	a0,a0,752 # 80427598 <tickslock>
    802032b0:	ffffd097          	auipc	ra,0xffffd
    802032b4:	46a080e7          	jalr	1130(ra) # 8020071a <release>
    802032b8:	4781                	li	a5,0
    802032ba:	853e                	mv	a0,a5
    802032bc:	70e2                	ld	ra,56(sp)
    802032be:	7442                	ld	s0,48(sp)
    802032c0:	74a2                	ld	s1,40(sp)
    802032c2:	7902                	ld	s2,32(sp)
    802032c4:	69e2                	ld	s3,24(sp)
    802032c6:	6121                	addi	sp,sp,64
    802032c8:	8082                	ret
    802032ca:	00224517          	auipc	a0,0x224
    802032ce:	2ce50513          	addi	a0,a0,718 # 80427598 <tickslock>
    802032d2:	ffffd097          	auipc	ra,0xffffd
    802032d6:	448080e7          	jalr	1096(ra) # 8020071a <release>
    802032da:	57fd                	li	a5,-1
    802032dc:	bff9                	j	802032ba <sys_sleep+0x88>

00000000802032de <sys_kill>:
    802032de:	1101                	addi	sp,sp,-32
    802032e0:	ec06                	sd	ra,24(sp)
    802032e2:	e822                	sd	s0,16(sp)
    802032e4:	1000                	addi	s0,sp,32
    802032e6:	fec40593          	addi	a1,s0,-20
    802032ea:	4501                	li	a0,0
    802032ec:	00000097          	auipc	ra,0x0
    802032f0:	bde080e7          	jalr	-1058(ra) # 80202eca <argint>
    802032f4:	87aa                	mv	a5,a0
    802032f6:	557d                	li	a0,-1
    802032f8:	0007c863          	bltz	a5,80203308 <sys_kill+0x2a>
    802032fc:	fec42503          	lw	a0,-20(s0)
    80203300:	fffff097          	auipc	ra,0xfffff
    80203304:	28e080e7          	jalr	654(ra) # 8020258e <kill>
    80203308:	60e2                	ld	ra,24(sp)
    8020330a:	6442                	ld	s0,16(sp)
    8020330c:	6105                	addi	sp,sp,32
    8020330e:	8082                	ret

0000000080203310 <sys_uptime>:
    80203310:	1101                	addi	sp,sp,-32
    80203312:	ec06                	sd	ra,24(sp)
    80203314:	e822                	sd	s0,16(sp)
    80203316:	e426                	sd	s1,8(sp)
    80203318:	1000                	addi	s0,sp,32
    8020331a:	00224517          	auipc	a0,0x224
    8020331e:	27e50513          	addi	a0,a0,638 # 80427598 <tickslock>
    80203322:	ffffd097          	auipc	ra,0xffffd
    80203326:	3a4080e7          	jalr	932(ra) # 802006c6 <acquire>
    8020332a:	00224497          	auipc	s1,0x224
    8020332e:	2864a483          	lw	s1,646(s1) # 804275b0 <ticks>
    80203332:	00224517          	auipc	a0,0x224
    80203336:	26650513          	addi	a0,a0,614 # 80427598 <tickslock>
    8020333a:	ffffd097          	auipc	ra,0xffffd
    8020333e:	3e0080e7          	jalr	992(ra) # 8020071a <release>
    80203342:	02049513          	slli	a0,s1,0x20
    80203346:	9101                	srli	a0,a0,0x20
    80203348:	60e2                	ld	ra,24(sp)
    8020334a:	6442                	ld	s0,16(sp)
    8020334c:	64a2                	ld	s1,8(sp)
    8020334e:	6105                	addi	sp,sp,32
    80203350:	8082                	ret

0000000080203352 <sys_trace>:
    80203352:	1101                	addi	sp,sp,-32
    80203354:	ec06                	sd	ra,24(sp)
    80203356:	e822                	sd	s0,16(sp)
    80203358:	1000                	addi	s0,sp,32
    8020335a:	fec40593          	addi	a1,s0,-20
    8020335e:	4501                	li	a0,0
    80203360:	00000097          	auipc	ra,0x0
    80203364:	b6a080e7          	jalr	-1174(ra) # 80202eca <argint>
    80203368:	57fd                	li	a5,-1
    8020336a:	00054b63          	bltz	a0,80203380 <sys_trace+0x2e>
    8020336e:	ffffe097          	auipc	ra,0xffffe
    80203372:	7ca080e7          	jalr	1994(ra) # 80201b38 <myproc>
    80203376:	fec42783          	lw	a5,-20(s0)
    8020337a:	16f52823          	sw	a5,368(a0)
    8020337e:	4781                	li	a5,0
    80203380:	853e                	mv	a0,a5
    80203382:	60e2                	ld	ra,24(sp)
    80203384:	6442                	ld	s0,16(sp)
    80203386:	6105                	addi	sp,sp,32
    80203388:	8082                	ret

000000008020338a <binit>:
    8020338a:	7139                	addi	sp,sp,-64
    8020338c:	fc06                	sd	ra,56(sp)
    8020338e:	f822                	sd	s0,48(sp)
    80203390:	f426                	sd	s1,40(sp)
    80203392:	f04a                	sd	s2,32(sp)
    80203394:	ec4e                	sd	s3,24(sp)
    80203396:	e852                	sd	s4,16(sp)
    80203398:	e456                	sd	s5,8(sp)
    8020339a:	0080                	addi	s0,sp,64
    8020339c:	00007597          	auipc	a1,0x7
    802033a0:	8f458593          	addi	a1,a1,-1804 # 80209c90 <sysnames+0xd8>
    802033a4:	0021f517          	auipc	a0,0x21f
    802033a8:	8dc50513          	addi	a0,a0,-1828 # 80421c80 <bcache>
    802033ac:	ffffd097          	auipc	ra,0xffffd
    802033b0:	2d6080e7          	jalr	726(ra) # 80200682 <initlock>
    802033b4:	00223797          	auipc	a5,0x223
    802033b8:	8cc78793          	addi	a5,a5,-1844 # 80425c80 <bcache+0x4000>
    802033bc:	00223717          	auipc	a4,0x223
    802033c0:	f2c70713          	addi	a4,a4,-212 # 804262e8 <bcache+0x4668>
    802033c4:	6ae7b823          	sd	a4,1712(a5)
    802033c8:	6ae7bc23          	sd	a4,1720(a5)
    802033cc:	0021f497          	auipc	s1,0x21f
    802033d0:	8cc48493          	addi	s1,s1,-1844 # 80421c98 <bcache+0x18>
    802033d4:	5a7d                	li	s4,-1
    802033d6:	893e                	mv	s2,a5
    802033d8:	89ba                	mv	s3,a4
    802033da:	00007a97          	auipc	s5,0x7
    802033de:	8bea8a93          	addi	s5,s5,-1858 # 80209c98 <sysnames+0xe0>
    802033e2:	0404a023          	sw	zero,64(s1)
    802033e6:	0144a623          	sw	s4,12(s1)
    802033ea:	0144a423          	sw	s4,8(s1)
    802033ee:	6b893783          	ld	a5,1720(s2)
    802033f2:	e8bc                	sd	a5,80(s1)
    802033f4:	0534b423          	sd	s3,72(s1)
    802033f8:	85d6                	mv	a1,s5
    802033fa:	01048513          	addi	a0,s1,16
    802033fe:	00000097          	auipc	ra,0x0
    80203402:	26e080e7          	jalr	622(ra) # 8020366c <initsleeplock>
    80203406:	6b893783          	ld	a5,1720(s2)
    8020340a:	e7a4                	sd	s1,72(a5)
    8020340c:	6a993c23          	sd	s1,1720(s2)
    80203410:	25848493          	addi	s1,s1,600
    80203414:	fd3497e3          	bne	s1,s3,802033e2 <binit+0x58>
    80203418:	70e2                	ld	ra,56(sp)
    8020341a:	7442                	ld	s0,48(sp)
    8020341c:	74a2                	ld	s1,40(sp)
    8020341e:	7902                	ld	s2,32(sp)
    80203420:	69e2                	ld	s3,24(sp)
    80203422:	6a42                	ld	s4,16(sp)
    80203424:	6aa2                	ld	s5,8(sp)
    80203426:	6121                	addi	sp,sp,64
    80203428:	8082                	ret

000000008020342a <bread>:
    8020342a:	7179                	addi	sp,sp,-48
    8020342c:	f406                	sd	ra,40(sp)
    8020342e:	f022                	sd	s0,32(sp)
    80203430:	ec26                	sd	s1,24(sp)
    80203432:	e84a                	sd	s2,16(sp)
    80203434:	e44e                	sd	s3,8(sp)
    80203436:	1800                	addi	s0,sp,48
    80203438:	89aa                	mv	s3,a0
    8020343a:	892e                	mv	s2,a1
    8020343c:	0021f517          	auipc	a0,0x21f
    80203440:	84450513          	addi	a0,a0,-1980 # 80421c80 <bcache>
    80203444:	ffffd097          	auipc	ra,0xffffd
    80203448:	282080e7          	jalr	642(ra) # 802006c6 <acquire>
    8020344c:	00223497          	auipc	s1,0x223
    80203450:	eec4b483          	ld	s1,-276(s1) # 80426338 <bcache+0x46b8>
    80203454:	00223797          	auipc	a5,0x223
    80203458:	e9478793          	addi	a5,a5,-364 # 804262e8 <bcache+0x4668>
    8020345c:	02f48f63          	beq	s1,a5,8020349a <bread+0x70>
    80203460:	873e                	mv	a4,a5
    80203462:	a021                	j	8020346a <bread+0x40>
    80203464:	68a4                	ld	s1,80(s1)
    80203466:	02e48a63          	beq	s1,a4,8020349a <bread+0x70>
    8020346a:	449c                	lw	a5,8(s1)
    8020346c:	ff379ce3          	bne	a5,s3,80203464 <bread+0x3a>
    80203470:	44dc                	lw	a5,12(s1)
    80203472:	ff2799e3          	bne	a5,s2,80203464 <bread+0x3a>
    80203476:	40bc                	lw	a5,64(s1)
    80203478:	2785                	addiw	a5,a5,1
    8020347a:	c0bc                	sw	a5,64(s1)
    8020347c:	0021f517          	auipc	a0,0x21f
    80203480:	80450513          	addi	a0,a0,-2044 # 80421c80 <bcache>
    80203484:	ffffd097          	auipc	ra,0xffffd
    80203488:	296080e7          	jalr	662(ra) # 8020071a <release>
    8020348c:	01048513          	addi	a0,s1,16
    80203490:	00000097          	auipc	ra,0x0
    80203494:	216080e7          	jalr	534(ra) # 802036a6 <acquiresleep>
    80203498:	a8b9                	j	802034f6 <bread+0xcc>
    8020349a:	00223497          	auipc	s1,0x223
    8020349e:	e964b483          	ld	s1,-362(s1) # 80426330 <bcache+0x46b0>
    802034a2:	00223797          	auipc	a5,0x223
    802034a6:	e4678793          	addi	a5,a5,-442 # 804262e8 <bcache+0x4668>
    802034aa:	00f48863          	beq	s1,a5,802034ba <bread+0x90>
    802034ae:	873e                	mv	a4,a5
    802034b0:	40bc                	lw	a5,64(s1)
    802034b2:	cf81                	beqz	a5,802034ca <bread+0xa0>
    802034b4:	64a4                	ld	s1,72(s1)
    802034b6:	fee49de3          	bne	s1,a4,802034b0 <bread+0x86>
    802034ba:	00006517          	auipc	a0,0x6
    802034be:	7e650513          	addi	a0,a0,2022 # 80209ca0 <sysnames+0xe8>
    802034c2:	ffffd097          	auipc	ra,0xffffd
    802034c6:	c82080e7          	jalr	-894(ra) # 80200144 <panic>
    802034ca:	0134a423          	sw	s3,8(s1)
    802034ce:	0124a623          	sw	s2,12(s1)
    802034d2:	0004a023          	sw	zero,0(s1)
    802034d6:	4785                	li	a5,1
    802034d8:	c0bc                	sw	a5,64(s1)
    802034da:	0021e517          	auipc	a0,0x21e
    802034de:	7a650513          	addi	a0,a0,1958 # 80421c80 <bcache>
    802034e2:	ffffd097          	auipc	ra,0xffffd
    802034e6:	238080e7          	jalr	568(ra) # 8020071a <release>
    802034ea:	01048513          	addi	a0,s1,16
    802034ee:	00000097          	auipc	ra,0x0
    802034f2:	1b8080e7          	jalr	440(ra) # 802036a6 <acquiresleep>
    802034f6:	409c                	lw	a5,0(s1)
    802034f8:	cb89                	beqz	a5,8020350a <bread+0xe0>
    802034fa:	8526                	mv	a0,s1
    802034fc:	70a2                	ld	ra,40(sp)
    802034fe:	7402                	ld	s0,32(sp)
    80203500:	64e2                	ld	s1,24(sp)
    80203502:	6942                	ld	s2,16(sp)
    80203504:	69a2                	ld	s3,8(sp)
    80203506:	6145                	addi	sp,sp,48
    80203508:	8082                	ret
    8020350a:	8526                	mv	a0,s1
    8020350c:	00002097          	auipc	ra,0x2
    80203510:	26e080e7          	jalr	622(ra) # 8020577a <disk_read>
    80203514:	4785                	li	a5,1
    80203516:	c09c                	sw	a5,0(s1)
    80203518:	b7cd                	j	802034fa <bread+0xd0>

000000008020351a <bwrite>:
    8020351a:	1101                	addi	sp,sp,-32
    8020351c:	ec06                	sd	ra,24(sp)
    8020351e:	e822                	sd	s0,16(sp)
    80203520:	e426                	sd	s1,8(sp)
    80203522:	1000                	addi	s0,sp,32
    80203524:	84aa                	mv	s1,a0
    80203526:	0541                	addi	a0,a0,16
    80203528:	00000097          	auipc	ra,0x0
    8020352c:	218080e7          	jalr	536(ra) # 80203740 <holdingsleep>
    80203530:	c919                	beqz	a0,80203546 <bwrite+0x2c>
    80203532:	8526                	mv	a0,s1
    80203534:	00002097          	auipc	ra,0x2
    80203538:	260080e7          	jalr	608(ra) # 80205794 <disk_write>
    8020353c:	60e2                	ld	ra,24(sp)
    8020353e:	6442                	ld	s0,16(sp)
    80203540:	64a2                	ld	s1,8(sp)
    80203542:	6105                	addi	sp,sp,32
    80203544:	8082                	ret
    80203546:	00006517          	auipc	a0,0x6
    8020354a:	77250513          	addi	a0,a0,1906 # 80209cb8 <sysnames+0x100>
    8020354e:	ffffd097          	auipc	ra,0xffffd
    80203552:	bf6080e7          	jalr	-1034(ra) # 80200144 <panic>

0000000080203556 <brelse>:
    80203556:	1101                	addi	sp,sp,-32
    80203558:	ec06                	sd	ra,24(sp)
    8020355a:	e822                	sd	s0,16(sp)
    8020355c:	e426                	sd	s1,8(sp)
    8020355e:	e04a                	sd	s2,0(sp)
    80203560:	1000                	addi	s0,sp,32
    80203562:	84aa                	mv	s1,a0
    80203564:	01050913          	addi	s2,a0,16
    80203568:	854a                	mv	a0,s2
    8020356a:	00000097          	auipc	ra,0x0
    8020356e:	1d6080e7          	jalr	470(ra) # 80203740 <holdingsleep>
    80203572:	c92d                	beqz	a0,802035e4 <brelse+0x8e>
    80203574:	854a                	mv	a0,s2
    80203576:	00000097          	auipc	ra,0x0
    8020357a:	186080e7          	jalr	390(ra) # 802036fc <releasesleep>
    8020357e:	0021e517          	auipc	a0,0x21e
    80203582:	70250513          	addi	a0,a0,1794 # 80421c80 <bcache>
    80203586:	ffffd097          	auipc	ra,0xffffd
    8020358a:	140080e7          	jalr	320(ra) # 802006c6 <acquire>
    8020358e:	40bc                	lw	a5,64(s1)
    80203590:	37fd                	addiw	a5,a5,-1
    80203592:	0007871b          	sext.w	a4,a5
    80203596:	c0bc                	sw	a5,64(s1)
    80203598:	eb05                	bnez	a4,802035c8 <brelse+0x72>
    8020359a:	68bc                	ld	a5,80(s1)
    8020359c:	64b8                	ld	a4,72(s1)
    8020359e:	e7b8                	sd	a4,72(a5)
    802035a0:	64bc                	ld	a5,72(s1)
    802035a2:	68b8                	ld	a4,80(s1)
    802035a4:	ebb8                	sd	a4,80(a5)
    802035a6:	00222797          	auipc	a5,0x222
    802035aa:	6da78793          	addi	a5,a5,1754 # 80425c80 <bcache+0x4000>
    802035ae:	6b87b703          	ld	a4,1720(a5)
    802035b2:	e8b8                	sd	a4,80(s1)
    802035b4:	00223717          	auipc	a4,0x223
    802035b8:	d3470713          	addi	a4,a4,-716 # 804262e8 <bcache+0x4668>
    802035bc:	e4b8                	sd	a4,72(s1)
    802035be:	6b87b703          	ld	a4,1720(a5)
    802035c2:	e724                	sd	s1,72(a4)
    802035c4:	6a97bc23          	sd	s1,1720(a5)
    802035c8:	0021e517          	auipc	a0,0x21e
    802035cc:	6b850513          	addi	a0,a0,1720 # 80421c80 <bcache>
    802035d0:	ffffd097          	auipc	ra,0xffffd
    802035d4:	14a080e7          	jalr	330(ra) # 8020071a <release>
    802035d8:	60e2                	ld	ra,24(sp)
    802035da:	6442                	ld	s0,16(sp)
    802035dc:	64a2                	ld	s1,8(sp)
    802035de:	6902                	ld	s2,0(sp)
    802035e0:	6105                	addi	sp,sp,32
    802035e2:	8082                	ret
    802035e4:	00006517          	auipc	a0,0x6
    802035e8:	6dc50513          	addi	a0,a0,1756 # 80209cc0 <sysnames+0x108>
    802035ec:	ffffd097          	auipc	ra,0xffffd
    802035f0:	b58080e7          	jalr	-1192(ra) # 80200144 <panic>

00000000802035f4 <bpin>:
    802035f4:	1101                	addi	sp,sp,-32
    802035f6:	ec06                	sd	ra,24(sp)
    802035f8:	e822                	sd	s0,16(sp)
    802035fa:	e426                	sd	s1,8(sp)
    802035fc:	1000                	addi	s0,sp,32
    802035fe:	84aa                	mv	s1,a0
    80203600:	0021e517          	auipc	a0,0x21e
    80203604:	68050513          	addi	a0,a0,1664 # 80421c80 <bcache>
    80203608:	ffffd097          	auipc	ra,0xffffd
    8020360c:	0be080e7          	jalr	190(ra) # 802006c6 <acquire>
    80203610:	40bc                	lw	a5,64(s1)
    80203612:	2785                	addiw	a5,a5,1
    80203614:	c0bc                	sw	a5,64(s1)
    80203616:	0021e517          	auipc	a0,0x21e
    8020361a:	66a50513          	addi	a0,a0,1642 # 80421c80 <bcache>
    8020361e:	ffffd097          	auipc	ra,0xffffd
    80203622:	0fc080e7          	jalr	252(ra) # 8020071a <release>
    80203626:	60e2                	ld	ra,24(sp)
    80203628:	6442                	ld	s0,16(sp)
    8020362a:	64a2                	ld	s1,8(sp)
    8020362c:	6105                	addi	sp,sp,32
    8020362e:	8082                	ret

0000000080203630 <bunpin>:
    80203630:	1101                	addi	sp,sp,-32
    80203632:	ec06                	sd	ra,24(sp)
    80203634:	e822                	sd	s0,16(sp)
    80203636:	e426                	sd	s1,8(sp)
    80203638:	1000                	addi	s0,sp,32
    8020363a:	84aa                	mv	s1,a0
    8020363c:	0021e517          	auipc	a0,0x21e
    80203640:	64450513          	addi	a0,a0,1604 # 80421c80 <bcache>
    80203644:	ffffd097          	auipc	ra,0xffffd
    80203648:	082080e7          	jalr	130(ra) # 802006c6 <acquire>
    8020364c:	40bc                	lw	a5,64(s1)
    8020364e:	37fd                	addiw	a5,a5,-1
    80203650:	c0bc                	sw	a5,64(s1)
    80203652:	0021e517          	auipc	a0,0x21e
    80203656:	62e50513          	addi	a0,a0,1582 # 80421c80 <bcache>
    8020365a:	ffffd097          	auipc	ra,0xffffd
    8020365e:	0c0080e7          	jalr	192(ra) # 8020071a <release>
    80203662:	60e2                	ld	ra,24(sp)
    80203664:	6442                	ld	s0,16(sp)
    80203666:	64a2                	ld	s1,8(sp)
    80203668:	6105                	addi	sp,sp,32
    8020366a:	8082                	ret

000000008020366c <initsleeplock>:
    8020366c:	1101                	addi	sp,sp,-32
    8020366e:	ec06                	sd	ra,24(sp)
    80203670:	e822                	sd	s0,16(sp)
    80203672:	e426                	sd	s1,8(sp)
    80203674:	e04a                	sd	s2,0(sp)
    80203676:	1000                	addi	s0,sp,32
    80203678:	84aa                	mv	s1,a0
    8020367a:	892e                	mv	s2,a1
    8020367c:	00006597          	auipc	a1,0x6
    80203680:	64c58593          	addi	a1,a1,1612 # 80209cc8 <sysnames+0x110>
    80203684:	0521                	addi	a0,a0,8
    80203686:	ffffd097          	auipc	ra,0xffffd
    8020368a:	ffc080e7          	jalr	-4(ra) # 80200682 <initlock>
    8020368e:	0324b023          	sd	s2,32(s1)
    80203692:	0004a023          	sw	zero,0(s1)
    80203696:	0204a423          	sw	zero,40(s1)
    8020369a:	60e2                	ld	ra,24(sp)
    8020369c:	6442                	ld	s0,16(sp)
    8020369e:	64a2                	ld	s1,8(sp)
    802036a0:	6902                	ld	s2,0(sp)
    802036a2:	6105                	addi	sp,sp,32
    802036a4:	8082                	ret

00000000802036a6 <acquiresleep>:
    802036a6:	1101                	addi	sp,sp,-32
    802036a8:	ec06                	sd	ra,24(sp)
    802036aa:	e822                	sd	s0,16(sp)
    802036ac:	e426                	sd	s1,8(sp)
    802036ae:	e04a                	sd	s2,0(sp)
    802036b0:	1000                	addi	s0,sp,32
    802036b2:	84aa                	mv	s1,a0
    802036b4:	00850913          	addi	s2,a0,8
    802036b8:	854a                	mv	a0,s2
    802036ba:	ffffd097          	auipc	ra,0xffffd
    802036be:	00c080e7          	jalr	12(ra) # 802006c6 <acquire>
    802036c2:	409c                	lw	a5,0(s1)
    802036c4:	cb89                	beqz	a5,802036d6 <acquiresleep+0x30>
    802036c6:	85ca                	mv	a1,s2
    802036c8:	8526                	mv	a0,s1
    802036ca:	fffff097          	auipc	ra,0xfffff
    802036ce:	cd8080e7          	jalr	-808(ra) # 802023a2 <sleep>
    802036d2:	409c                	lw	a5,0(s1)
    802036d4:	fbed                	bnez	a5,802036c6 <acquiresleep+0x20>
    802036d6:	4785                	li	a5,1
    802036d8:	c09c                	sw	a5,0(s1)
    802036da:	ffffe097          	auipc	ra,0xffffe
    802036de:	45e080e7          	jalr	1118(ra) # 80201b38 <myproc>
    802036e2:	5d1c                	lw	a5,56(a0)
    802036e4:	d49c                	sw	a5,40(s1)
    802036e6:	854a                	mv	a0,s2
    802036e8:	ffffd097          	auipc	ra,0xffffd
    802036ec:	032080e7          	jalr	50(ra) # 8020071a <release>
    802036f0:	60e2                	ld	ra,24(sp)
    802036f2:	6442                	ld	s0,16(sp)
    802036f4:	64a2                	ld	s1,8(sp)
    802036f6:	6902                	ld	s2,0(sp)
    802036f8:	6105                	addi	sp,sp,32
    802036fa:	8082                	ret

00000000802036fc <releasesleep>:
    802036fc:	1101                	addi	sp,sp,-32
    802036fe:	ec06                	sd	ra,24(sp)
    80203700:	e822                	sd	s0,16(sp)
    80203702:	e426                	sd	s1,8(sp)
    80203704:	e04a                	sd	s2,0(sp)
    80203706:	1000                	addi	s0,sp,32
    80203708:	84aa                	mv	s1,a0
    8020370a:	00850913          	addi	s2,a0,8
    8020370e:	854a                	mv	a0,s2
    80203710:	ffffd097          	auipc	ra,0xffffd
    80203714:	fb6080e7          	jalr	-74(ra) # 802006c6 <acquire>
    80203718:	0004a023          	sw	zero,0(s1)
    8020371c:	0204a423          	sw	zero,40(s1)
    80203720:	8526                	mv	a0,s1
    80203722:	fffff097          	auipc	ra,0xfffff
    80203726:	e02080e7          	jalr	-510(ra) # 80202524 <wakeup>
    8020372a:	854a                	mv	a0,s2
    8020372c:	ffffd097          	auipc	ra,0xffffd
    80203730:	fee080e7          	jalr	-18(ra) # 8020071a <release>
    80203734:	60e2                	ld	ra,24(sp)
    80203736:	6442                	ld	s0,16(sp)
    80203738:	64a2                	ld	s1,8(sp)
    8020373a:	6902                	ld	s2,0(sp)
    8020373c:	6105                	addi	sp,sp,32
    8020373e:	8082                	ret

0000000080203740 <holdingsleep>:
    80203740:	7179                	addi	sp,sp,-48
    80203742:	f406                	sd	ra,40(sp)
    80203744:	f022                	sd	s0,32(sp)
    80203746:	ec26                	sd	s1,24(sp)
    80203748:	e84a                	sd	s2,16(sp)
    8020374a:	e44e                	sd	s3,8(sp)
    8020374c:	1800                	addi	s0,sp,48
    8020374e:	84aa                	mv	s1,a0
    80203750:	00850913          	addi	s2,a0,8
    80203754:	854a                	mv	a0,s2
    80203756:	ffffd097          	auipc	ra,0xffffd
    8020375a:	f70080e7          	jalr	-144(ra) # 802006c6 <acquire>
    8020375e:	409c                	lw	a5,0(s1)
    80203760:	ef99                	bnez	a5,8020377e <holdingsleep+0x3e>
    80203762:	4481                	li	s1,0
    80203764:	854a                	mv	a0,s2
    80203766:	ffffd097          	auipc	ra,0xffffd
    8020376a:	fb4080e7          	jalr	-76(ra) # 8020071a <release>
    8020376e:	8526                	mv	a0,s1
    80203770:	70a2                	ld	ra,40(sp)
    80203772:	7402                	ld	s0,32(sp)
    80203774:	64e2                	ld	s1,24(sp)
    80203776:	6942                	ld	s2,16(sp)
    80203778:	69a2                	ld	s3,8(sp)
    8020377a:	6145                	addi	sp,sp,48
    8020377c:	8082                	ret
    8020377e:	0284a983          	lw	s3,40(s1)
    80203782:	ffffe097          	auipc	ra,0xffffe
    80203786:	3b6080e7          	jalr	950(ra) # 80201b38 <myproc>
    8020378a:	5d04                	lw	s1,56(a0)
    8020378c:	413484b3          	sub	s1,s1,s3
    80203790:	0014b493          	seqz	s1,s1
    80203794:	bfc1                	j	80203764 <holdingsleep+0x24>

0000000080203796 <fileinit>:
    80203796:	1101                	addi	sp,sp,-32
    80203798:	ec06                	sd	ra,24(sp)
    8020379a:	e822                	sd	s0,16(sp)
    8020379c:	e426                	sd	s1,8(sp)
    8020379e:	e04a                	sd	s2,0(sp)
    802037a0:	1000                	addi	s0,sp,32
    802037a2:	00006597          	auipc	a1,0x6
    802037a6:	53658593          	addi	a1,a1,1334 # 80209cd8 <sysnames+0x120>
    802037aa:	00223517          	auipc	a0,0x223
    802037ae:	e3650513          	addi	a0,a0,-458 # 804265e0 <ftable>
    802037b2:	ffffd097          	auipc	ra,0xffffd
    802037b6:	ed0080e7          	jalr	-304(ra) # 80200682 <initlock>
    802037ba:	00223497          	auipc	s1,0x223
    802037be:	e3e48493          	addi	s1,s1,-450 # 804265f8 <ftable+0x18>
    802037c2:	00224917          	auipc	s2,0x224
    802037c6:	dd690913          	addi	s2,s2,-554 # 80427598 <tickslock>
    802037ca:	02800613          	li	a2,40
    802037ce:	4581                	li	a1,0
    802037d0:	8526                	mv	a0,s1
    802037d2:	ffffd097          	auipc	ra,0xffffd
    802037d6:	f90080e7          	jalr	-112(ra) # 80200762 <memset>
    802037da:	02848493          	addi	s1,s1,40
    802037de:	ff2496e3          	bne	s1,s2,802037ca <fileinit+0x34>
    802037e2:	60e2                	ld	ra,24(sp)
    802037e4:	6442                	ld	s0,16(sp)
    802037e6:	64a2                	ld	s1,8(sp)
    802037e8:	6902                	ld	s2,0(sp)
    802037ea:	6105                	addi	sp,sp,32
    802037ec:	8082                	ret

00000000802037ee <filealloc>:
    802037ee:	1101                	addi	sp,sp,-32
    802037f0:	ec06                	sd	ra,24(sp)
    802037f2:	e822                	sd	s0,16(sp)
    802037f4:	e426                	sd	s1,8(sp)
    802037f6:	1000                	addi	s0,sp,32
    802037f8:	00223517          	auipc	a0,0x223
    802037fc:	de850513          	addi	a0,a0,-536 # 804265e0 <ftable>
    80203800:	ffffd097          	auipc	ra,0xffffd
    80203804:	ec6080e7          	jalr	-314(ra) # 802006c6 <acquire>
    80203808:	00223497          	auipc	s1,0x223
    8020380c:	df048493          	addi	s1,s1,-528 # 804265f8 <ftable+0x18>
    80203810:	00224717          	auipc	a4,0x224
    80203814:	d8870713          	addi	a4,a4,-632 # 80427598 <tickslock>
    80203818:	40dc                	lw	a5,4(s1)
    8020381a:	cf99                	beqz	a5,80203838 <filealloc+0x4a>
    8020381c:	02848493          	addi	s1,s1,40
    80203820:	fee49ce3          	bne	s1,a4,80203818 <filealloc+0x2a>
    80203824:	00223517          	auipc	a0,0x223
    80203828:	dbc50513          	addi	a0,a0,-580 # 804265e0 <ftable>
    8020382c:	ffffd097          	auipc	ra,0xffffd
    80203830:	eee080e7          	jalr	-274(ra) # 8020071a <release>
    80203834:	4481                	li	s1,0
    80203836:	a819                	j	8020384c <filealloc+0x5e>
    80203838:	4785                	li	a5,1
    8020383a:	c0dc                	sw	a5,4(s1)
    8020383c:	00223517          	auipc	a0,0x223
    80203840:	da450513          	addi	a0,a0,-604 # 804265e0 <ftable>
    80203844:	ffffd097          	auipc	ra,0xffffd
    80203848:	ed6080e7          	jalr	-298(ra) # 8020071a <release>
    8020384c:	8526                	mv	a0,s1
    8020384e:	60e2                	ld	ra,24(sp)
    80203850:	6442                	ld	s0,16(sp)
    80203852:	64a2                	ld	s1,8(sp)
    80203854:	6105                	addi	sp,sp,32
    80203856:	8082                	ret

0000000080203858 <filedup>:
    80203858:	1101                	addi	sp,sp,-32
    8020385a:	ec06                	sd	ra,24(sp)
    8020385c:	e822                	sd	s0,16(sp)
    8020385e:	e426                	sd	s1,8(sp)
    80203860:	1000                	addi	s0,sp,32
    80203862:	84aa                	mv	s1,a0
    80203864:	00223517          	auipc	a0,0x223
    80203868:	d7c50513          	addi	a0,a0,-644 # 804265e0 <ftable>
    8020386c:	ffffd097          	auipc	ra,0xffffd
    80203870:	e5a080e7          	jalr	-422(ra) # 802006c6 <acquire>
    80203874:	40dc                	lw	a5,4(s1)
    80203876:	02f05263          	blez	a5,8020389a <filedup+0x42>
    8020387a:	2785                	addiw	a5,a5,1
    8020387c:	c0dc                	sw	a5,4(s1)
    8020387e:	00223517          	auipc	a0,0x223
    80203882:	d6250513          	addi	a0,a0,-670 # 804265e0 <ftable>
    80203886:	ffffd097          	auipc	ra,0xffffd
    8020388a:	e94080e7          	jalr	-364(ra) # 8020071a <release>
    8020388e:	8526                	mv	a0,s1
    80203890:	60e2                	ld	ra,24(sp)
    80203892:	6442                	ld	s0,16(sp)
    80203894:	64a2                	ld	s1,8(sp)
    80203896:	6105                	addi	sp,sp,32
    80203898:	8082                	ret
    8020389a:	00006517          	auipc	a0,0x6
    8020389e:	44650513          	addi	a0,a0,1094 # 80209ce0 <sysnames+0x128>
    802038a2:	ffffd097          	auipc	ra,0xffffd
    802038a6:	8a2080e7          	jalr	-1886(ra) # 80200144 <panic>

00000000802038aa <fileclose>:
    802038aa:	7139                	addi	sp,sp,-64
    802038ac:	fc06                	sd	ra,56(sp)
    802038ae:	f822                	sd	s0,48(sp)
    802038b0:	f426                	sd	s1,40(sp)
    802038b2:	f04a                	sd	s2,32(sp)
    802038b4:	ec4e                	sd	s3,24(sp)
    802038b6:	e852                	sd	s4,16(sp)
    802038b8:	e456                	sd	s5,8(sp)
    802038ba:	0080                	addi	s0,sp,64
    802038bc:	84aa                	mv	s1,a0
    802038be:	00223517          	auipc	a0,0x223
    802038c2:	d2250513          	addi	a0,a0,-734 # 804265e0 <ftable>
    802038c6:	ffffd097          	auipc	ra,0xffffd
    802038ca:	e00080e7          	jalr	-512(ra) # 802006c6 <acquire>
    802038ce:	40dc                	lw	a5,4(s1)
    802038d0:	04f05863          	blez	a5,80203920 <fileclose+0x76>
    802038d4:	37fd                	addiw	a5,a5,-1
    802038d6:	0007871b          	sext.w	a4,a5
    802038da:	c0dc                	sw	a5,4(s1)
    802038dc:	04e04a63          	bgtz	a4,80203930 <fileclose+0x86>
    802038e0:	0004a903          	lw	s2,0(s1)
    802038e4:	0094ca03          	lbu	s4,9(s1)
    802038e8:	0104b983          	ld	s3,16(s1)
    802038ec:	0184ba83          	ld	s5,24(s1)
    802038f0:	0004a223          	sw	zero,4(s1)
    802038f4:	0004a023          	sw	zero,0(s1)
    802038f8:	00223517          	auipc	a0,0x223
    802038fc:	ce850513          	addi	a0,a0,-792 # 804265e0 <ftable>
    80203900:	ffffd097          	auipc	ra,0xffffd
    80203904:	e1a080e7          	jalr	-486(ra) # 8020071a <release>
    80203908:	4785                	li	a5,1
    8020390a:	04f90463          	beq	s2,a5,80203952 <fileclose+0xa8>
    8020390e:	4789                	li	a5,2
    80203910:	02f91863          	bne	s2,a5,80203940 <fileclose+0x96>
    80203914:	8556                	mv	a0,s5
    80203916:	00003097          	auipc	ra,0x3
    8020391a:	038080e7          	jalr	56(ra) # 8020694e <eput>
    8020391e:	a00d                	j	80203940 <fileclose+0x96>
    80203920:	00006517          	auipc	a0,0x6
    80203924:	3c850513          	addi	a0,a0,968 # 80209ce8 <sysnames+0x130>
    80203928:	ffffd097          	auipc	ra,0xffffd
    8020392c:	81c080e7          	jalr	-2020(ra) # 80200144 <panic>
    80203930:	00223517          	auipc	a0,0x223
    80203934:	cb050513          	addi	a0,a0,-848 # 804265e0 <ftable>
    80203938:	ffffd097          	auipc	ra,0xffffd
    8020393c:	de2080e7          	jalr	-542(ra) # 8020071a <release>
    80203940:	70e2                	ld	ra,56(sp)
    80203942:	7442                	ld	s0,48(sp)
    80203944:	74a2                	ld	s1,40(sp)
    80203946:	7902                	ld	s2,32(sp)
    80203948:	69e2                	ld	s3,24(sp)
    8020394a:	6a42                	ld	s4,16(sp)
    8020394c:	6aa2                	ld	s5,8(sp)
    8020394e:	6121                	addi	sp,sp,64
    80203950:	8082                	ret
    80203952:	85d2                	mv	a1,s4
    80203954:	854e                	mv	a0,s3
    80203956:	00000097          	auipc	ra,0x0
    8020395a:	392080e7          	jalr	914(ra) # 80203ce8 <pipeclose>
    8020395e:	b7cd                	j	80203940 <fileclose+0x96>

0000000080203960 <filestat>:
    80203960:	4118                	lw	a4,0(a0)
    80203962:	4789                	li	a5,2
    80203964:	04f71c63          	bne	a4,a5,802039bc <filestat+0x5c>
    80203968:	711d                	addi	sp,sp,-96
    8020396a:	ec86                	sd	ra,88(sp)
    8020396c:	e8a2                	sd	s0,80(sp)
    8020396e:	e4a6                	sd	s1,72(sp)
    80203970:	e0ca                	sd	s2,64(sp)
    80203972:	1080                	addi	s0,sp,96
    80203974:	84aa                	mv	s1,a0
    80203976:	892e                	mv	s2,a1
    80203978:	6d08                	ld	a0,24(a0)
    8020397a:	00003097          	auipc	ra,0x3
    8020397e:	f50080e7          	jalr	-176(ra) # 802068ca <elock>
    80203982:	fa840593          	addi	a1,s0,-88
    80203986:	6c88                	ld	a0,24(s1)
    80203988:	00003097          	auipc	ra,0x3
    8020398c:	0fe080e7          	jalr	254(ra) # 80206a86 <estat>
    80203990:	6c88                	ld	a0,24(s1)
    80203992:	00003097          	auipc	ra,0x3
    80203996:	f6e080e7          	jalr	-146(ra) # 80206900 <eunlock>
    8020399a:	03800613          	li	a2,56
    8020399e:	fa840593          	addi	a1,s0,-88
    802039a2:	854a                	mv	a0,s2
    802039a4:	ffffe097          	auipc	ra,0xffffe
    802039a8:	ab8080e7          	jalr	-1352(ra) # 8020145c <copyout2>
    802039ac:	41f5551b          	sraiw	a0,a0,0x1f
    802039b0:	60e6                	ld	ra,88(sp)
    802039b2:	6446                	ld	s0,80(sp)
    802039b4:	64a6                	ld	s1,72(sp)
    802039b6:	6906                	ld	s2,64(sp)
    802039b8:	6125                	addi	sp,sp,96
    802039ba:	8082                	ret
    802039bc:	557d                	li	a0,-1
    802039be:	8082                	ret

00000000802039c0 <fileread>:
    802039c0:	7179                	addi	sp,sp,-48
    802039c2:	f406                	sd	ra,40(sp)
    802039c4:	f022                	sd	s0,32(sp)
    802039c6:	ec26                	sd	s1,24(sp)
    802039c8:	e84a                	sd	s2,16(sp)
    802039ca:	e44e                	sd	s3,8(sp)
    802039cc:	1800                	addi	s0,sp,48
    802039ce:	00854783          	lbu	a5,8(a0)
    802039d2:	c3d5                	beqz	a5,80203a76 <fileread+0xb6>
    802039d4:	84aa                	mv	s1,a0
    802039d6:	89ae                	mv	s3,a1
    802039d8:	8932                	mv	s2,a2
    802039da:	411c                	lw	a5,0(a0)
    802039dc:	4709                	li	a4,2
    802039de:	06e78263          	beq	a5,a4,80203a42 <fileread+0x82>
    802039e2:	470d                	li	a4,3
    802039e4:	02e78b63          	beq	a5,a4,80203a1a <fileread+0x5a>
    802039e8:	4705                	li	a4,1
    802039ea:	00e78a63          	beq	a5,a4,802039fe <fileread+0x3e>
    802039ee:	00006517          	auipc	a0,0x6
    802039f2:	30a50513          	addi	a0,a0,778 # 80209cf8 <sysnames+0x140>
    802039f6:	ffffc097          	auipc	ra,0xffffc
    802039fa:	74e080e7          	jalr	1870(ra) # 80200144 <panic>
    802039fe:	6908                	ld	a0,16(a0)
    80203a00:	00000097          	auipc	ra,0x0
    80203a04:	478080e7          	jalr	1144(ra) # 80203e78 <piperead>
    80203a08:	892a                	mv	s2,a0
    80203a0a:	854a                	mv	a0,s2
    80203a0c:	70a2                	ld	ra,40(sp)
    80203a0e:	7402                	ld	s0,32(sp)
    80203a10:	64e2                	ld	s1,24(sp)
    80203a12:	6942                	ld	s2,16(sp)
    80203a14:	69a2                	ld	s3,8(sp)
    80203a16:	6145                	addi	sp,sp,48
    80203a18:	8082                	ret
    80203a1a:	02451783          	lh	a5,36(a0)
    80203a1e:	03079693          	slli	a3,a5,0x30
    80203a22:	92c1                	srli	a3,a3,0x30
    80203a24:	4725                	li	a4,9
    80203a26:	04d76a63          	bltu	a4,a3,80203a7a <fileread+0xba>
    80203a2a:	0792                	slli	a5,a5,0x4
    80203a2c:	00223717          	auipc	a4,0x223
    80203a30:	b1470713          	addi	a4,a4,-1260 # 80426540 <devsw>
    80203a34:	97ba                	add	a5,a5,a4
    80203a36:	639c                	ld	a5,0(a5)
    80203a38:	c3b9                	beqz	a5,80203a7e <fileread+0xbe>
    80203a3a:	4505                	li	a0,1
    80203a3c:	9782                	jalr	a5
    80203a3e:	892a                	mv	s2,a0
    80203a40:	b7e9                	j	80203a0a <fileread+0x4a>
    80203a42:	6d08                	ld	a0,24(a0)
    80203a44:	00003097          	auipc	ra,0x3
    80203a48:	e86080e7          	jalr	-378(ra) # 802068ca <elock>
    80203a4c:	874a                	mv	a4,s2
    80203a4e:	5094                	lw	a3,32(s1)
    80203a50:	864e                	mv	a2,s3
    80203a52:	4585                	li	a1,1
    80203a54:	6c88                	ld	a0,24(s1)
    80203a56:	00002097          	auipc	ra,0x2
    80203a5a:	5aa080e7          	jalr	1450(ra) # 80206000 <eread>
    80203a5e:	892a                	mv	s2,a0
    80203a60:	00a05563          	blez	a0,80203a6a <fileread+0xaa>
    80203a64:	509c                	lw	a5,32(s1)
    80203a66:	9fa9                	addw	a5,a5,a0
    80203a68:	d09c                	sw	a5,32(s1)
    80203a6a:	6c88                	ld	a0,24(s1)
    80203a6c:	00003097          	auipc	ra,0x3
    80203a70:	e94080e7          	jalr	-364(ra) # 80206900 <eunlock>
    80203a74:	bf59                	j	80203a0a <fileread+0x4a>
    80203a76:	597d                	li	s2,-1
    80203a78:	bf49                	j	80203a0a <fileread+0x4a>
    80203a7a:	597d                	li	s2,-1
    80203a7c:	b779                	j	80203a0a <fileread+0x4a>
    80203a7e:	597d                	li	s2,-1
    80203a80:	b769                	j	80203a0a <fileread+0x4a>

0000000080203a82 <filewrite>:
    80203a82:	7179                	addi	sp,sp,-48
    80203a84:	f406                	sd	ra,40(sp)
    80203a86:	f022                	sd	s0,32(sp)
    80203a88:	ec26                	sd	s1,24(sp)
    80203a8a:	e84a                	sd	s2,16(sp)
    80203a8c:	e44e                	sd	s3,8(sp)
    80203a8e:	e052                	sd	s4,0(sp)
    80203a90:	1800                	addi	s0,sp,48
    80203a92:	00954783          	lbu	a5,9(a0)
    80203a96:	cbcd                	beqz	a5,80203b48 <filewrite+0xc6>
    80203a98:	84aa                	mv	s1,a0
    80203a9a:	892e                	mv	s2,a1
    80203a9c:	89b2                	mv	s3,a2
    80203a9e:	411c                	lw	a5,0(a0)
    80203aa0:	4705                	li	a4,1
    80203aa2:	04e78963          	beq	a5,a4,80203af4 <filewrite+0x72>
    80203aa6:	470d                	li	a4,3
    80203aa8:	04e78d63          	beq	a5,a4,80203b02 <filewrite+0x80>
    80203aac:	4709                	li	a4,2
    80203aae:	08e79563          	bne	a5,a4,80203b38 <filewrite+0xb6>
    80203ab2:	6d08                	ld	a0,24(a0)
    80203ab4:	00003097          	auipc	ra,0x3
    80203ab8:	e16080e7          	jalr	-490(ra) # 802068ca <elock>
    80203abc:	00098a1b          	sext.w	s4,s3
    80203ac0:	8752                	mv	a4,s4
    80203ac2:	5094                	lw	a3,32(s1)
    80203ac4:	864a                	mv	a2,s2
    80203ac6:	4585                	li	a1,1
    80203ac8:	6c88                	ld	a0,24(s1)
    80203aca:	00002097          	auipc	ra,0x2
    80203ace:	62e080e7          	jalr	1582(ra) # 802060f8 <ewrite>
    80203ad2:	597d                	li	s2,-1
    80203ad4:	05350b63          	beq	a0,s3,80203b2a <filewrite+0xa8>
    80203ad8:	6c88                	ld	a0,24(s1)
    80203ada:	00003097          	auipc	ra,0x3
    80203ade:	e26080e7          	jalr	-474(ra) # 80206900 <eunlock>
    80203ae2:	854a                	mv	a0,s2
    80203ae4:	70a2                	ld	ra,40(sp)
    80203ae6:	7402                	ld	s0,32(sp)
    80203ae8:	64e2                	ld	s1,24(sp)
    80203aea:	6942                	ld	s2,16(sp)
    80203aec:	69a2                	ld	s3,8(sp)
    80203aee:	6a02                	ld	s4,0(sp)
    80203af0:	6145                	addi	sp,sp,48
    80203af2:	8082                	ret
    80203af4:	6908                	ld	a0,16(a0)
    80203af6:	00000097          	auipc	ra,0x0
    80203afa:	262080e7          	jalr	610(ra) # 80203d58 <pipewrite>
    80203afe:	892a                	mv	s2,a0
    80203b00:	b7cd                	j	80203ae2 <filewrite+0x60>
    80203b02:	02451783          	lh	a5,36(a0)
    80203b06:	03079693          	slli	a3,a5,0x30
    80203b0a:	92c1                	srli	a3,a3,0x30
    80203b0c:	4725                	li	a4,9
    80203b0e:	02d76f63          	bltu	a4,a3,80203b4c <filewrite+0xca>
    80203b12:	0792                	slli	a5,a5,0x4
    80203b14:	00223717          	auipc	a4,0x223
    80203b18:	a2c70713          	addi	a4,a4,-1492 # 80426540 <devsw>
    80203b1c:	97ba                	add	a5,a5,a4
    80203b1e:	679c                	ld	a5,8(a5)
    80203b20:	cb85                	beqz	a5,80203b50 <filewrite+0xce>
    80203b22:	4505                	li	a0,1
    80203b24:	9782                	jalr	a5
    80203b26:	892a                	mv	s2,a0
    80203b28:	bf6d                	j	80203ae2 <filewrite+0x60>
    80203b2a:	509c                	lw	a5,32(s1)
    80203b2c:	01478a3b          	addw	s4,a5,s4
    80203b30:	0344a023          	sw	s4,32(s1)
    80203b34:	894e                	mv	s2,s3
    80203b36:	b74d                	j	80203ad8 <filewrite+0x56>
    80203b38:	00006517          	auipc	a0,0x6
    80203b3c:	1d050513          	addi	a0,a0,464 # 80209d08 <sysnames+0x150>
    80203b40:	ffffc097          	auipc	ra,0xffffc
    80203b44:	604080e7          	jalr	1540(ra) # 80200144 <panic>
    80203b48:	597d                	li	s2,-1
    80203b4a:	bf61                	j	80203ae2 <filewrite+0x60>
    80203b4c:	597d                	li	s2,-1
    80203b4e:	bf51                	j	80203ae2 <filewrite+0x60>
    80203b50:	597d                	li	s2,-1
    80203b52:	bf41                	j	80203ae2 <filewrite+0x60>

0000000080203b54 <dirnext>:
    80203b54:	00854783          	lbu	a5,8(a0)
    80203b58:	cbcd                	beqz	a5,80203c0a <dirnext+0xb6>
    80203b5a:	7105                	addi	sp,sp,-480
    80203b5c:	ef86                	sd	ra,472(sp)
    80203b5e:	eba2                	sd	s0,464(sp)
    80203b60:	e7a6                	sd	s1,456(sp)
    80203b62:	e3ca                	sd	s2,448(sp)
    80203b64:	ff4e                	sd	s3,440(sp)
    80203b66:	1380                	addi	s0,sp,480
    80203b68:	84aa                	mv	s1,a0
    80203b6a:	89ae                	mv	s3,a1
    80203b6c:	6d18                	ld	a4,24(a0)
    80203b6e:	10074783          	lbu	a5,256(a4)
    80203b72:	8bc1                	andi	a5,a5,16
    80203b74:	557d                	li	a0,-1
    80203b76:	eb81                	bnez	a5,80203b86 <dirnext+0x32>
    80203b78:	60fe                	ld	ra,472(sp)
    80203b7a:	645e                	ld	s0,464(sp)
    80203b7c:	64be                	ld	s1,456(sp)
    80203b7e:	691e                	ld	s2,448(sp)
    80203b80:	79fa                	ld	s3,440(sp)
    80203b82:	613d                	addi	sp,sp,480
    80203b84:	8082                	ret
    80203b86:	e2042623          	sw	zero,-468(s0)
    80203b8a:	853a                	mv	a0,a4
    80203b8c:	00003097          	auipc	ra,0x3
    80203b90:	d3e080e7          	jalr	-706(ra) # 802068ca <elock>
    80203b94:	a801                	j	80203ba4 <dirnext+0x50>
    80203b96:	e2c42783          	lw	a5,-468(s0)
    80203b9a:	0057971b          	slliw	a4,a5,0x5
    80203b9e:	509c                	lw	a5,32(s1)
    80203ba0:	9fb9                	addw	a5,a5,a4
    80203ba2:	d09c                	sw	a5,32(s1)
    80203ba4:	e2c40693          	addi	a3,s0,-468
    80203ba8:	5090                	lw	a2,32(s1)
    80203baa:	e6840593          	addi	a1,s0,-408
    80203bae:	6c88                	ld	a0,24(s1)
    80203bb0:	00003097          	auipc	ra,0x3
    80203bb4:	f1e080e7          	jalr	-226(ra) # 80206ace <enext>
    80203bb8:	892a                	mv	s2,a0
    80203bba:	dd71                	beqz	a0,80203b96 <dirnext+0x42>
    80203bbc:	6c88                	ld	a0,24(s1)
    80203bbe:	00003097          	auipc	ra,0x3
    80203bc2:	d42080e7          	jalr	-702(ra) # 80206900 <eunlock>
    80203bc6:	57fd                	li	a5,-1
    80203bc8:	4501                	li	a0,0
    80203bca:	faf907e3          	beq	s2,a5,80203b78 <dirnext+0x24>
    80203bce:	e2c42783          	lw	a5,-468(s0)
    80203bd2:	0057971b          	slliw	a4,a5,0x5
    80203bd6:	509c                	lw	a5,32(s1)
    80203bd8:	9fb9                	addw	a5,a5,a4
    80203bda:	d09c                	sw	a5,32(s1)
    80203bdc:	e3040593          	addi	a1,s0,-464
    80203be0:	e6840513          	addi	a0,s0,-408
    80203be4:	00003097          	auipc	ra,0x3
    80203be8:	ea2080e7          	jalr	-350(ra) # 80206a86 <estat>
    80203bec:	03800613          	li	a2,56
    80203bf0:	e3040593          	addi	a1,s0,-464
    80203bf4:	854e                	mv	a0,s3
    80203bf6:	ffffe097          	auipc	ra,0xffffe
    80203bfa:	866080e7          	jalr	-1946(ra) # 8020145c <copyout2>
    80203bfe:	87aa                	mv	a5,a0
    80203c00:	4505                	li	a0,1
    80203c02:	f607dbe3          	bgez	a5,80203b78 <dirnext+0x24>
    80203c06:	557d                	li	a0,-1
    80203c08:	bf85                	j	80203b78 <dirnext+0x24>
    80203c0a:	557d                	li	a0,-1
    80203c0c:	8082                	ret

0000000080203c0e <pipealloc>:
    80203c0e:	7179                	addi	sp,sp,-48
    80203c10:	f406                	sd	ra,40(sp)
    80203c12:	f022                	sd	s0,32(sp)
    80203c14:	ec26                	sd	s1,24(sp)
    80203c16:	e84a                	sd	s2,16(sp)
    80203c18:	e44e                	sd	s3,8(sp)
    80203c1a:	e052                	sd	s4,0(sp)
    80203c1c:	1800                	addi	s0,sp,48
    80203c1e:	84aa                	mv	s1,a0
    80203c20:	8a2e                	mv	s4,a1
    80203c22:	0005b023          	sd	zero,0(a1)
    80203c26:	00053023          	sd	zero,0(a0)
    80203c2a:	00000097          	auipc	ra,0x0
    80203c2e:	bc4080e7          	jalr	-1084(ra) # 802037ee <filealloc>
    80203c32:	e088                	sd	a0,0(s1)
    80203c34:	c551                	beqz	a0,80203cc0 <pipealloc+0xb2>
    80203c36:	00000097          	auipc	ra,0x0
    80203c3a:	bb8080e7          	jalr	-1096(ra) # 802037ee <filealloc>
    80203c3e:	00aa3023          	sd	a0,0(s4)
    80203c42:	c92d                	beqz	a0,80203cb4 <pipealloc+0xa6>
    80203c44:	ffffd097          	auipc	ra,0xffffd
    80203c48:	916080e7          	jalr	-1770(ra) # 8020055a <kalloc>
    80203c4c:	892a                	mv	s2,a0
    80203c4e:	c125                	beqz	a0,80203cae <pipealloc+0xa0>
    80203c50:	4985                	li	s3,1
    80203c52:	23352023          	sw	s3,544(a0)
    80203c56:	23352223          	sw	s3,548(a0)
    80203c5a:	20052e23          	sw	zero,540(a0)
    80203c5e:	20052c23          	sw	zero,536(a0)
    80203c62:	00006597          	auipc	a1,0x6
    80203c66:	da658593          	addi	a1,a1,-602 # 80209a08 <states.1718+0x300>
    80203c6a:	ffffd097          	auipc	ra,0xffffd
    80203c6e:	a18080e7          	jalr	-1512(ra) # 80200682 <initlock>
    80203c72:	609c                	ld	a5,0(s1)
    80203c74:	0137a023          	sw	s3,0(a5)
    80203c78:	609c                	ld	a5,0(s1)
    80203c7a:	01378423          	sb	s3,8(a5)
    80203c7e:	609c                	ld	a5,0(s1)
    80203c80:	000784a3          	sb	zero,9(a5)
    80203c84:	609c                	ld	a5,0(s1)
    80203c86:	0127b823          	sd	s2,16(a5)
    80203c8a:	000a3783          	ld	a5,0(s4)
    80203c8e:	0137a023          	sw	s3,0(a5)
    80203c92:	000a3783          	ld	a5,0(s4)
    80203c96:	00078423          	sb	zero,8(a5)
    80203c9a:	000a3783          	ld	a5,0(s4)
    80203c9e:	013784a3          	sb	s3,9(a5)
    80203ca2:	000a3783          	ld	a5,0(s4)
    80203ca6:	0127b823          	sd	s2,16(a5)
    80203caa:	4501                	li	a0,0
    80203cac:	a025                	j	80203cd4 <pipealloc+0xc6>
    80203cae:	6088                	ld	a0,0(s1)
    80203cb0:	e501                	bnez	a0,80203cb8 <pipealloc+0xaa>
    80203cb2:	a039                	j	80203cc0 <pipealloc+0xb2>
    80203cb4:	6088                	ld	a0,0(s1)
    80203cb6:	c51d                	beqz	a0,80203ce4 <pipealloc+0xd6>
    80203cb8:	00000097          	auipc	ra,0x0
    80203cbc:	bf2080e7          	jalr	-1038(ra) # 802038aa <fileclose>
    80203cc0:	000a3783          	ld	a5,0(s4)
    80203cc4:	557d                	li	a0,-1
    80203cc6:	c799                	beqz	a5,80203cd4 <pipealloc+0xc6>
    80203cc8:	853e                	mv	a0,a5
    80203cca:	00000097          	auipc	ra,0x0
    80203cce:	be0080e7          	jalr	-1056(ra) # 802038aa <fileclose>
    80203cd2:	557d                	li	a0,-1
    80203cd4:	70a2                	ld	ra,40(sp)
    80203cd6:	7402                	ld	s0,32(sp)
    80203cd8:	64e2                	ld	s1,24(sp)
    80203cda:	6942                	ld	s2,16(sp)
    80203cdc:	69a2                	ld	s3,8(sp)
    80203cde:	6a02                	ld	s4,0(sp)
    80203ce0:	6145                	addi	sp,sp,48
    80203ce2:	8082                	ret
    80203ce4:	557d                	li	a0,-1
    80203ce6:	b7fd                	j	80203cd4 <pipealloc+0xc6>

0000000080203ce8 <pipeclose>:
    80203ce8:	1101                	addi	sp,sp,-32
    80203cea:	ec06                	sd	ra,24(sp)
    80203cec:	e822                	sd	s0,16(sp)
    80203cee:	e426                	sd	s1,8(sp)
    80203cf0:	e04a                	sd	s2,0(sp)
    80203cf2:	1000                	addi	s0,sp,32
    80203cf4:	84aa                	mv	s1,a0
    80203cf6:	892e                	mv	s2,a1
    80203cf8:	ffffd097          	auipc	ra,0xffffd
    80203cfc:	9ce080e7          	jalr	-1586(ra) # 802006c6 <acquire>
    80203d00:	02090d63          	beqz	s2,80203d3a <pipeclose+0x52>
    80203d04:	2204a223          	sw	zero,548(s1)
    80203d08:	21848513          	addi	a0,s1,536
    80203d0c:	fffff097          	auipc	ra,0xfffff
    80203d10:	818080e7          	jalr	-2024(ra) # 80202524 <wakeup>
    80203d14:	2204b783          	ld	a5,544(s1)
    80203d18:	eb95                	bnez	a5,80203d4c <pipeclose+0x64>
    80203d1a:	8526                	mv	a0,s1
    80203d1c:	ffffd097          	auipc	ra,0xffffd
    80203d20:	9fe080e7          	jalr	-1538(ra) # 8020071a <release>
    80203d24:	8526                	mv	a0,s1
    80203d26:	ffffc097          	auipc	ra,0xffffc
    80203d2a:	720080e7          	jalr	1824(ra) # 80200446 <kfree>
    80203d2e:	60e2                	ld	ra,24(sp)
    80203d30:	6442                	ld	s0,16(sp)
    80203d32:	64a2                	ld	s1,8(sp)
    80203d34:	6902                	ld	s2,0(sp)
    80203d36:	6105                	addi	sp,sp,32
    80203d38:	8082                	ret
    80203d3a:	2204a023          	sw	zero,544(s1)
    80203d3e:	21c48513          	addi	a0,s1,540
    80203d42:	ffffe097          	auipc	ra,0xffffe
    80203d46:	7e2080e7          	jalr	2018(ra) # 80202524 <wakeup>
    80203d4a:	b7e9                	j	80203d14 <pipeclose+0x2c>
    80203d4c:	8526                	mv	a0,s1
    80203d4e:	ffffd097          	auipc	ra,0xffffd
    80203d52:	9cc080e7          	jalr	-1588(ra) # 8020071a <release>
    80203d56:	bfe1                	j	80203d2e <pipeclose+0x46>

0000000080203d58 <pipewrite>:
    80203d58:	7119                	addi	sp,sp,-128
    80203d5a:	fc86                	sd	ra,120(sp)
    80203d5c:	f8a2                	sd	s0,112(sp)
    80203d5e:	f4a6                	sd	s1,104(sp)
    80203d60:	f0ca                	sd	s2,96(sp)
    80203d62:	ecce                	sd	s3,88(sp)
    80203d64:	e8d2                	sd	s4,80(sp)
    80203d66:	e4d6                	sd	s5,72(sp)
    80203d68:	e0da                	sd	s6,64(sp)
    80203d6a:	fc5e                	sd	s7,56(sp)
    80203d6c:	f862                	sd	s8,48(sp)
    80203d6e:	f466                	sd	s9,40(sp)
    80203d70:	f06a                	sd	s10,32(sp)
    80203d72:	ec6e                	sd	s11,24(sp)
    80203d74:	0100                	addi	s0,sp,128
    80203d76:	84aa                	mv	s1,a0
    80203d78:	8cae                	mv	s9,a1
    80203d7a:	8b32                	mv	s6,a2
    80203d7c:	ffffe097          	auipc	ra,0xffffe
    80203d80:	dbc080e7          	jalr	-580(ra) # 80201b38 <myproc>
    80203d84:	892a                	mv	s2,a0
    80203d86:	8526                	mv	a0,s1
    80203d88:	ffffd097          	auipc	ra,0xffffd
    80203d8c:	93e080e7          	jalr	-1730(ra) # 802006c6 <acquire>
    80203d90:	0d605763          	blez	s6,80203e5e <pipewrite+0x106>
    80203d94:	89a6                	mv	s3,s1
    80203d96:	3b7d                	addiw	s6,s6,-1
    80203d98:	1b02                	slli	s6,s6,0x20
    80203d9a:	020b5b13          	srli	s6,s6,0x20
    80203d9e:	4b81                	li	s7,0
    80203da0:	21848a93          	addi	s5,s1,536
    80203da4:	21c48a13          	addi	s4,s1,540
    80203da8:	5dfd                	li	s11,-1
    80203daa:	000b8d1b          	sext.w	s10,s7
    80203dae:	8c6a                	mv	s8,s10
    80203db0:	2184a783          	lw	a5,536(s1)
    80203db4:	21c4a703          	lw	a4,540(s1)
    80203db8:	2007879b          	addiw	a5,a5,512
    80203dbc:	02f71b63          	bne	a4,a5,80203df2 <pipewrite+0x9a>
    80203dc0:	2204a783          	lw	a5,544(s1)
    80203dc4:	c7bd                	beqz	a5,80203e32 <pipewrite+0xda>
    80203dc6:	03092783          	lw	a5,48(s2)
    80203dca:	e7a5                	bnez	a5,80203e32 <pipewrite+0xda>
    80203dcc:	8556                	mv	a0,s5
    80203dce:	ffffe097          	auipc	ra,0xffffe
    80203dd2:	756080e7          	jalr	1878(ra) # 80202524 <wakeup>
    80203dd6:	85ce                	mv	a1,s3
    80203dd8:	8552                	mv	a0,s4
    80203dda:	ffffe097          	auipc	ra,0xffffe
    80203dde:	5c8080e7          	jalr	1480(ra) # 802023a2 <sleep>
    80203de2:	2184a783          	lw	a5,536(s1)
    80203de6:	21c4a703          	lw	a4,540(s1)
    80203dea:	2007879b          	addiw	a5,a5,512
    80203dee:	fcf709e3          	beq	a4,a5,80203dc0 <pipewrite+0x68>
    80203df2:	4605                	li	a2,1
    80203df4:	019b85b3          	add	a1,s7,s9
    80203df8:	f8f40513          	addi	a0,s0,-113
    80203dfc:	ffffd097          	auipc	ra,0xffffd
    80203e00:	73e080e7          	jalr	1854(ra) # 8020153a <copyin2>
    80203e04:	05b50e63          	beq	a0,s11,80203e60 <pipewrite+0x108>
    80203e08:	21c4a783          	lw	a5,540(s1)
    80203e0c:	0017871b          	addiw	a4,a5,1
    80203e10:	20e4ae23          	sw	a4,540(s1)
    80203e14:	1ff7f793          	andi	a5,a5,511
    80203e18:	97a6                	add	a5,a5,s1
    80203e1a:	f8f44703          	lbu	a4,-113(s0)
    80203e1e:	00e78c23          	sb	a4,24(a5)
    80203e22:	001d0c1b          	addiw	s8,s10,1
    80203e26:	001b8793          	addi	a5,s7,1
    80203e2a:	036b8b63          	beq	s7,s6,80203e60 <pipewrite+0x108>
    80203e2e:	8bbe                	mv	s7,a5
    80203e30:	bfad                	j	80203daa <pipewrite+0x52>
    80203e32:	8526                	mv	a0,s1
    80203e34:	ffffd097          	auipc	ra,0xffffd
    80203e38:	8e6080e7          	jalr	-1818(ra) # 8020071a <release>
    80203e3c:	5c7d                	li	s8,-1
    80203e3e:	8562                	mv	a0,s8
    80203e40:	70e6                	ld	ra,120(sp)
    80203e42:	7446                	ld	s0,112(sp)
    80203e44:	74a6                	ld	s1,104(sp)
    80203e46:	7906                	ld	s2,96(sp)
    80203e48:	69e6                	ld	s3,88(sp)
    80203e4a:	6a46                	ld	s4,80(sp)
    80203e4c:	6aa6                	ld	s5,72(sp)
    80203e4e:	6b06                	ld	s6,64(sp)
    80203e50:	7be2                	ld	s7,56(sp)
    80203e52:	7c42                	ld	s8,48(sp)
    80203e54:	7ca2                	ld	s9,40(sp)
    80203e56:	7d02                	ld	s10,32(sp)
    80203e58:	6de2                	ld	s11,24(sp)
    80203e5a:	6109                	addi	sp,sp,128
    80203e5c:	8082                	ret
    80203e5e:	4c01                	li	s8,0
    80203e60:	21848513          	addi	a0,s1,536
    80203e64:	ffffe097          	auipc	ra,0xffffe
    80203e68:	6c0080e7          	jalr	1728(ra) # 80202524 <wakeup>
    80203e6c:	8526                	mv	a0,s1
    80203e6e:	ffffd097          	auipc	ra,0xffffd
    80203e72:	8ac080e7          	jalr	-1876(ra) # 8020071a <release>
    80203e76:	b7e1                	j	80203e3e <pipewrite+0xe6>

0000000080203e78 <piperead>:
    80203e78:	715d                	addi	sp,sp,-80
    80203e7a:	e486                	sd	ra,72(sp)
    80203e7c:	e0a2                	sd	s0,64(sp)
    80203e7e:	fc26                	sd	s1,56(sp)
    80203e80:	f84a                	sd	s2,48(sp)
    80203e82:	f44e                	sd	s3,40(sp)
    80203e84:	f052                	sd	s4,32(sp)
    80203e86:	ec56                	sd	s5,24(sp)
    80203e88:	e85a                	sd	s6,16(sp)
    80203e8a:	0880                	addi	s0,sp,80
    80203e8c:	84aa                	mv	s1,a0
    80203e8e:	892e                	mv	s2,a1
    80203e90:	8a32                	mv	s4,a2
    80203e92:	ffffe097          	auipc	ra,0xffffe
    80203e96:	ca6080e7          	jalr	-858(ra) # 80201b38 <myproc>
    80203e9a:	89aa                	mv	s3,a0
    80203e9c:	8b26                	mv	s6,s1
    80203e9e:	8526                	mv	a0,s1
    80203ea0:	ffffd097          	auipc	ra,0xffffd
    80203ea4:	826080e7          	jalr	-2010(ra) # 802006c6 <acquire>
    80203ea8:	2184a703          	lw	a4,536(s1)
    80203eac:	21c4a783          	lw	a5,540(s1)
    80203eb0:	21848a93          	addi	s5,s1,536
    80203eb4:	02f71463          	bne	a4,a5,80203edc <piperead+0x64>
    80203eb8:	2244a783          	lw	a5,548(s1)
    80203ebc:	c385                	beqz	a5,80203edc <piperead+0x64>
    80203ebe:	0309a783          	lw	a5,48(s3)
    80203ec2:	e7d1                	bnez	a5,80203f4e <piperead+0xd6>
    80203ec4:	85da                	mv	a1,s6
    80203ec6:	8556                	mv	a0,s5
    80203ec8:	ffffe097          	auipc	ra,0xffffe
    80203ecc:	4da080e7          	jalr	1242(ra) # 802023a2 <sleep>
    80203ed0:	2184a703          	lw	a4,536(s1)
    80203ed4:	21c4a783          	lw	a5,540(s1)
    80203ed8:	fef700e3          	beq	a4,a5,80203eb8 <piperead+0x40>
    80203edc:	09405063          	blez	s4,80203f5c <piperead+0xe4>
    80203ee0:	4981                	li	s3,0
    80203ee2:	5afd                	li	s5,-1
    80203ee4:	2184a783          	lw	a5,536(s1)
    80203ee8:	21c4a703          	lw	a4,540(s1)
    80203eec:	02f70b63          	beq	a4,a5,80203f22 <piperead+0xaa>
    80203ef0:	0017871b          	addiw	a4,a5,1
    80203ef4:	20e4ac23          	sw	a4,536(s1)
    80203ef8:	1ff7f793          	andi	a5,a5,511
    80203efc:	97a6                	add	a5,a5,s1
    80203efe:	0187c783          	lbu	a5,24(a5)
    80203f02:	faf40fa3          	sb	a5,-65(s0)
    80203f06:	4605                	li	a2,1
    80203f08:	fbf40593          	addi	a1,s0,-65
    80203f0c:	854a                	mv	a0,s2
    80203f0e:	ffffd097          	auipc	ra,0xffffd
    80203f12:	54e080e7          	jalr	1358(ra) # 8020145c <copyout2>
    80203f16:	01550663          	beq	a0,s5,80203f22 <piperead+0xaa>
    80203f1a:	2985                	addiw	s3,s3,1
    80203f1c:	0905                	addi	s2,s2,1
    80203f1e:	fd3a13e3          	bne	s4,s3,80203ee4 <piperead+0x6c>
    80203f22:	21c48513          	addi	a0,s1,540
    80203f26:	ffffe097          	auipc	ra,0xffffe
    80203f2a:	5fe080e7          	jalr	1534(ra) # 80202524 <wakeup>
    80203f2e:	8526                	mv	a0,s1
    80203f30:	ffffc097          	auipc	ra,0xffffc
    80203f34:	7ea080e7          	jalr	2026(ra) # 8020071a <release>
    80203f38:	854e                	mv	a0,s3
    80203f3a:	60a6                	ld	ra,72(sp)
    80203f3c:	6406                	ld	s0,64(sp)
    80203f3e:	74e2                	ld	s1,56(sp)
    80203f40:	7942                	ld	s2,48(sp)
    80203f42:	79a2                	ld	s3,40(sp)
    80203f44:	7a02                	ld	s4,32(sp)
    80203f46:	6ae2                	ld	s5,24(sp)
    80203f48:	6b42                	ld	s6,16(sp)
    80203f4a:	6161                	addi	sp,sp,80
    80203f4c:	8082                	ret
    80203f4e:	8526                	mv	a0,s1
    80203f50:	ffffc097          	auipc	ra,0xffffc
    80203f54:	7ca080e7          	jalr	1994(ra) # 8020071a <release>
    80203f58:	59fd                	li	s3,-1
    80203f5a:	bff9                	j	80203f38 <piperead+0xc0>
    80203f5c:	4981                	li	s3,0
    80203f5e:	b7d1                	j	80203f22 <piperead+0xaa>

0000000080203f60 <exec>:
    80203f60:	dd010113          	addi	sp,sp,-560
    80203f64:	22113423          	sd	ra,552(sp)
    80203f68:	22813023          	sd	s0,544(sp)
    80203f6c:	20913c23          	sd	s1,536(sp)
    80203f70:	21213823          	sd	s2,528(sp)
    80203f74:	21313423          	sd	s3,520(sp)
    80203f78:	21413023          	sd	s4,512(sp)
    80203f7c:	ffd6                	sd	s5,504(sp)
    80203f7e:	fbda                	sd	s6,496(sp)
    80203f80:	f7de                	sd	s7,488(sp)
    80203f82:	f3e2                	sd	s8,480(sp)
    80203f84:	efe6                	sd	s9,472(sp)
    80203f86:	ebea                	sd	s10,464(sp)
    80203f88:	e7ee                	sd	s11,456(sp)
    80203f8a:	1c00                	addi	s0,sp,560
    80203f8c:	892a                	mv	s2,a0
    80203f8e:	dea43023          	sd	a0,-544(s0)
    80203f92:	deb43423          	sd	a1,-536(s0)
    80203f96:	ffffe097          	auipc	ra,0xffffe
    80203f9a:	ba2080e7          	jalr	-1118(ra) # 80201b38 <myproc>
    80203f9e:	84aa                	mv	s1,a0
    80203fa0:	ffffc097          	auipc	ra,0xffffc
    80203fa4:	5ba080e7          	jalr	1466(ra) # 8020055a <kalloc>
    80203fa8:	2a050363          	beqz	a0,8020424e <exec+0x2ee>
    80203fac:	8aaa                	mv	s5,a0
    80203fae:	6605                	lui	a2,0x1
    80203fb0:	6cac                	ld	a1,88(s1)
    80203fb2:	ffffd097          	auipc	ra,0xffffd
    80203fb6:	810080e7          	jalr	-2032(ra) # 802007c2 <memmove>
    80203fba:	000ab023          	sd	zero,0(s5)
    80203fbe:	000ab423          	sd	zero,8(s5)
    80203fc2:	854a                	mv	a0,s2
    80203fc4:	00003097          	auipc	ra,0x3
    80203fc8:	0a6080e7          	jalr	166(ra) # 8020706a <ename>
    80203fcc:	8a2a                	mv	s4,a0
    80203fce:	3a050963          	beqz	a0,80204380 <exec+0x420>
    80203fd2:	00003097          	auipc	ra,0x3
    80203fd6:	8f8080e7          	jalr	-1800(ra) # 802068ca <elock>
    80203fda:	04000713          	li	a4,64
    80203fde:	4681                	li	a3,0
    80203fe0:	e4840613          	addi	a2,s0,-440
    80203fe4:	4581                	li	a1,0
    80203fe6:	8552                	mv	a0,s4
    80203fe8:	00002097          	auipc	ra,0x2
    80203fec:	018080e7          	jalr	24(ra) # 80206000 <eread>
    80203ff0:	04000793          	li	a5,64
    80203ff4:	00f51a63          	bne	a0,a5,80204008 <exec+0xa8>
    80203ff8:	e4842703          	lw	a4,-440(s0)
    80203ffc:	464c47b7          	lui	a5,0x464c4
    80204000:	57f78793          	addi	a5,a5,1407 # 464c457f <_entry-0x39d3ba81>
    80204004:	00f70963          	beq	a4,a5,80204016 <exec+0xb6>
    80204008:	4581                	li	a1,0
    8020400a:	8556                	mv	a0,s5
    8020400c:	ffffd097          	auipc	ra,0xffffd
    80204010:	752080e7          	jalr	1874(ra) # 8020175e <kvmfree>
    80204014:	a495                	j	80204278 <exec+0x318>
    80204016:	8526                	mv	a0,s1
    80204018:	ffffe097          	auipc	ra,0xffffe
    8020401c:	c04080e7          	jalr	-1020(ra) # 80201c1c <proc_pagetable>
    80204020:	e0a43423          	sd	a0,-504(s0)
    80204024:	d175                	beqz	a0,80204008 <exec+0xa8>
    80204026:	e6842783          	lw	a5,-408(s0)
    8020402a:	e8045703          	lhu	a4,-384(s0)
    8020402e:	c73d                	beqz	a4,8020409c <exec+0x13c>
    80204030:	4481                	li	s1,0
    80204032:	e0043023          	sd	zero,-512(s0)
    80204036:	6b05                	lui	s6,0x1
    80204038:	fffb0713          	addi	a4,s6,-1 # fff <_entry-0x801ff001>
    8020403c:	dce43c23          	sd	a4,-552(s0)
    80204040:	6d85                	lui	s11,0x1
    80204042:	7bfd                	lui	s7,0xfffff
    80204044:	a4c1                	j	80204304 <exec+0x3a4>
    80204046:	00006517          	auipc	a0,0x6
    8020404a:	cd250513          	addi	a0,a0,-814 # 80209d18 <sysnames+0x160>
    8020404e:	ffffc097          	auipc	ra,0xffffc
    80204052:	0f6080e7          	jalr	246(ra) # 80200144 <panic>
    80204056:	874e                	mv	a4,s3
    80204058:	009d06bb          	addw	a3,s10,s1
    8020405c:	4581                	li	a1,0
    8020405e:	8552                	mv	a0,s4
    80204060:	00002097          	auipc	ra,0x2
    80204064:	fa0080e7          	jalr	-96(ra) # 80206000 <eread>
    80204068:	2501                	sext.w	a0,a0
    8020406a:	1ea99663          	bne	s3,a0,80204256 <exec+0x2f6>
    8020406e:	009d84bb          	addw	s1,s11,s1
    80204072:	012b893b          	addw	s2,s7,s2
    80204076:	2784f763          	bgeu	s1,s8,802042e4 <exec+0x384>
    8020407a:	02049593          	slli	a1,s1,0x20
    8020407e:	9181                	srli	a1,a1,0x20
    80204080:	95e6                	add	a1,a1,s9
    80204082:	e0843503          	ld	a0,-504(s0)
    80204086:	ffffd097          	auipc	ra,0xffffd
    8020408a:	b8a080e7          	jalr	-1142(ra) # 80200c10 <walkaddr>
    8020408e:	862a                	mv	a2,a0
    80204090:	d95d                	beqz	a0,80204046 <exec+0xe6>
    80204092:	89da                	mv	s3,s6
    80204094:	fd6971e3          	bgeu	s2,s6,80204056 <exec+0xf6>
    80204098:	89ca                	mv	s3,s2
    8020409a:	bf75                	j	80204056 <exec+0xf6>
    8020409c:	4481                	li	s1,0
    8020409e:	8552                	mv	a0,s4
    802040a0:	00003097          	auipc	ra,0x3
    802040a4:	860080e7          	jalr	-1952(ra) # 80206900 <eunlock>
    802040a8:	8552                	mv	a0,s4
    802040aa:	00003097          	auipc	ra,0x3
    802040ae:	8a4080e7          	jalr	-1884(ra) # 8020694e <eput>
    802040b2:	ffffe097          	auipc	ra,0xffffe
    802040b6:	a86080e7          	jalr	-1402(ra) # 80201b38 <myproc>
    802040ba:	8b2a                	mv	s6,a0
    802040bc:	04853d83          	ld	s11,72(a0)
    802040c0:	6785                	lui	a5,0x1
    802040c2:	17fd                	addi	a5,a5,-1
    802040c4:	94be                	add	s1,s1,a5
    802040c6:	77fd                	lui	a5,0xfffff
    802040c8:	8fe5                	and	a5,a5,s1
    802040ca:	def43823          	sd	a5,-528(s0)
    802040ce:	6689                	lui	a3,0x2
    802040d0:	96be                	add	a3,a3,a5
    802040d2:	863e                	mv	a2,a5
    802040d4:	85d6                	mv	a1,s5
    802040d6:	e0843483          	ld	s1,-504(s0)
    802040da:	8526                	mv	a0,s1
    802040dc:	ffffd097          	auipc	ra,0xffffd
    802040e0:	01c080e7          	jalr	28(ra) # 802010f8 <uvmalloc>
    802040e4:	8d2a                	mv	s10,a0
    802040e6:	4a01                	li	s4,0
    802040e8:	16050763          	beqz	a0,80204256 <exec+0x2f6>
    802040ec:	75f9                	lui	a1,0xffffe
    802040ee:	95aa                	add	a1,a1,a0
    802040f0:	8526                	mv	a0,s1
    802040f2:	ffffd097          	auipc	ra,0xffffd
    802040f6:	2ac080e7          	jalr	684(ra) # 8020139e <uvmclear>
    802040fa:	7c7d                	lui	s8,0xfffff
    802040fc:	9c6a                	add	s8,s8,s10
    802040fe:	de843783          	ld	a5,-536(s0)
    80204102:	6388                	ld	a0,0(a5)
    80204104:	c925                	beqz	a0,80204174 <exec+0x214>
    80204106:	e8840993          	addi	s3,s0,-376
    8020410a:	f8840c93          	addi	s9,s0,-120
    8020410e:	896a                	mv	s2,s10
    80204110:	4481                	li	s1,0
    80204112:	ffffc097          	auipc	ra,0xffffc
    80204116:	7d8080e7          	jalr	2008(ra) # 802008ea <strlen>
    8020411a:	2505                	addiw	a0,a0,1
    8020411c:	40a90933          	sub	s2,s2,a0
    80204120:	ff097913          	andi	s2,s2,-16
    80204124:	1b896463          	bltu	s2,s8,802042cc <exec+0x36c>
    80204128:	de843b83          	ld	s7,-536(s0)
    8020412c:	000bba03          	ld	s4,0(s7) # fffffffffffff000 <kernel_end+0xffffffff7fbcf000>
    80204130:	8552                	mv	a0,s4
    80204132:	ffffc097          	auipc	ra,0xffffc
    80204136:	7b8080e7          	jalr	1976(ra) # 802008ea <strlen>
    8020413a:	0015069b          	addiw	a3,a0,1
    8020413e:	8652                	mv	a2,s4
    80204140:	85ca                	mv	a1,s2
    80204142:	e0843503          	ld	a0,-504(s0)
    80204146:	ffffd097          	auipc	ra,0xffffd
    8020414a:	28a080e7          	jalr	650(ra) # 802013d0 <copyout>
    8020414e:	18054363          	bltz	a0,802042d4 <exec+0x374>
    80204152:	0129b023          	sd	s2,0(s3)
    80204156:	0485                	addi	s1,s1,1
    80204158:	008b8793          	addi	a5,s7,8
    8020415c:	def43423          	sd	a5,-536(s0)
    80204160:	008bb503          	ld	a0,8(s7)
    80204164:	c911                	beqz	a0,80204178 <exec+0x218>
    80204166:	09a1                	addi	s3,s3,8
    80204168:	fb3c95e3          	bne	s9,s3,80204112 <exec+0x1b2>
    8020416c:	dfa43823          	sd	s10,-528(s0)
    80204170:	4a01                	li	s4,0
    80204172:	a0d5                	j	80204256 <exec+0x2f6>
    80204174:	896a                	mv	s2,s10
    80204176:	4481                	li	s1,0
    80204178:	00349793          	slli	a5,s1,0x3
    8020417c:	f9040713          	addi	a4,s0,-112
    80204180:	97ba                	add	a5,a5,a4
    80204182:	ee07bc23          	sd	zero,-264(a5) # ffffffffffffeef8 <kernel_end+0xffffffff7fbceef8>
    80204186:	00148693          	addi	a3,s1,1
    8020418a:	068e                	slli	a3,a3,0x3
    8020418c:	40d90933          	sub	s2,s2,a3
    80204190:	ff097913          	andi	s2,s2,-16
    80204194:	01897663          	bgeu	s2,s8,802041a0 <exec+0x240>
    80204198:	dfa43823          	sd	s10,-528(s0)
    8020419c:	4a01                	li	s4,0
    8020419e:	a865                	j	80204256 <exec+0x2f6>
    802041a0:	e8840613          	addi	a2,s0,-376
    802041a4:	85ca                	mv	a1,s2
    802041a6:	e0843503          	ld	a0,-504(s0)
    802041aa:	ffffd097          	auipc	ra,0xffffd
    802041ae:	226080e7          	jalr	550(ra) # 802013d0 <copyout>
    802041b2:	12054563          	bltz	a0,802042dc <exec+0x37c>
    802041b6:	060b3783          	ld	a5,96(s6)
    802041ba:	0727bc23          	sd	s2,120(a5)
    802041be:	de043783          	ld	a5,-544(s0)
    802041c2:	0007c703          	lbu	a4,0(a5)
    802041c6:	cf11                	beqz	a4,802041e2 <exec+0x282>
    802041c8:	0785                	addi	a5,a5,1
    802041ca:	02f00693          	li	a3,47
    802041ce:	a029                	j	802041d8 <exec+0x278>
    802041d0:	0785                	addi	a5,a5,1
    802041d2:	fff7c703          	lbu	a4,-1(a5)
    802041d6:	c711                	beqz	a4,802041e2 <exec+0x282>
    802041d8:	fed71ce3          	bne	a4,a3,802041d0 <exec+0x270>
    802041dc:	def43023          	sd	a5,-544(s0)
    802041e0:	bfc5                	j	802041d0 <exec+0x270>
    802041e2:	4641                	li	a2,16
    802041e4:	de043583          	ld	a1,-544(s0)
    802041e8:	160b0513          	addi	a0,s6,352
    802041ec:	ffffc097          	auipc	ra,0xffffc
    802041f0:	6cc080e7          	jalr	1740(ra) # 802008b8 <safestrcpy>
    802041f4:	050b3503          	ld	a0,80(s6)
    802041f8:	058b3983          	ld	s3,88(s6)
    802041fc:	e0843783          	ld	a5,-504(s0)
    80204200:	04fb3823          	sd	a5,80(s6)
    80204204:	055b3c23          	sd	s5,88(s6)
    80204208:	05ab3423          	sd	s10,72(s6)
    8020420c:	060b3783          	ld	a5,96(s6)
    80204210:	e6043703          	ld	a4,-416(s0)
    80204214:	ef98                	sd	a4,24(a5)
    80204216:	060b3783          	ld	a5,96(s6)
    8020421a:	0327b823          	sd	s2,48(a5)
    8020421e:	85ee                	mv	a1,s11
    80204220:	ffffe097          	auipc	ra,0xffffe
    80204224:	a98080e7          	jalr	-1384(ra) # 80201cb8 <proc_freepagetable>
    80204228:	058b3783          	ld	a5,88(s6)
    8020422c:	83b1                	srli	a5,a5,0xc
    8020422e:	577d                	li	a4,-1
    80204230:	177e                	slli	a4,a4,0x3f
    80204232:	8fd9                	or	a5,a5,a4
    80204234:	18079073          	csrw	satp,a5
    80204238:	12000073          	sfence.vma
    8020423c:	4581                	li	a1,0
    8020423e:	854e                	mv	a0,s3
    80204240:	ffffd097          	auipc	ra,0xffffd
    80204244:	51e080e7          	jalr	1310(ra) # 8020175e <kvmfree>
    80204248:	0004851b          	sext.w	a0,s1
    8020424c:	a089                	j	8020428e <exec+0x32e>
    8020424e:	557d                	li	a0,-1
    80204250:	a83d                	j	8020428e <exec+0x32e>
    80204252:	de943823          	sd	s1,-528(s0)
    80204256:	df043583          	ld	a1,-528(s0)
    8020425a:	e0843503          	ld	a0,-504(s0)
    8020425e:	ffffe097          	auipc	ra,0xffffe
    80204262:	a5a080e7          	jalr	-1446(ra) # 80201cb8 <proc_freepagetable>
    80204266:	4581                	li	a1,0
    80204268:	8556                	mv	a0,s5
    8020426a:	ffffd097          	auipc	ra,0xffffd
    8020426e:	4f4080e7          	jalr	1268(ra) # 8020175e <kvmfree>
    80204272:	557d                	li	a0,-1
    80204274:	000a0d63          	beqz	s4,8020428e <exec+0x32e>
    80204278:	8552                	mv	a0,s4
    8020427a:	00002097          	auipc	ra,0x2
    8020427e:	686080e7          	jalr	1670(ra) # 80206900 <eunlock>
    80204282:	8552                	mv	a0,s4
    80204284:	00002097          	auipc	ra,0x2
    80204288:	6ca080e7          	jalr	1738(ra) # 8020694e <eput>
    8020428c:	557d                	li	a0,-1
    8020428e:	22813083          	ld	ra,552(sp)
    80204292:	22013403          	ld	s0,544(sp)
    80204296:	21813483          	ld	s1,536(sp)
    8020429a:	21013903          	ld	s2,528(sp)
    8020429e:	20813983          	ld	s3,520(sp)
    802042a2:	20013a03          	ld	s4,512(sp)
    802042a6:	7afe                	ld	s5,504(sp)
    802042a8:	7b5e                	ld	s6,496(sp)
    802042aa:	7bbe                	ld	s7,488(sp)
    802042ac:	7c1e                	ld	s8,480(sp)
    802042ae:	6cfe                	ld	s9,472(sp)
    802042b0:	6d5e                	ld	s10,464(sp)
    802042b2:	6dbe                	ld	s11,456(sp)
    802042b4:	23010113          	addi	sp,sp,560
    802042b8:	8082                	ret
    802042ba:	de943823          	sd	s1,-528(s0)
    802042be:	bf61                	j	80204256 <exec+0x2f6>
    802042c0:	de943823          	sd	s1,-528(s0)
    802042c4:	bf49                	j	80204256 <exec+0x2f6>
    802042c6:	de943823          	sd	s1,-528(s0)
    802042ca:	b771                	j	80204256 <exec+0x2f6>
    802042cc:	dfa43823          	sd	s10,-528(s0)
    802042d0:	4a01                	li	s4,0
    802042d2:	b751                	j	80204256 <exec+0x2f6>
    802042d4:	dfa43823          	sd	s10,-528(s0)
    802042d8:	4a01                	li	s4,0
    802042da:	bfb5                	j	80204256 <exec+0x2f6>
    802042dc:	dfa43823          	sd	s10,-528(s0)
    802042e0:	4a01                	li	s4,0
    802042e2:	bf95                	j	80204256 <exec+0x2f6>
    802042e4:	df043483          	ld	s1,-528(s0)
    802042e8:	e0043783          	ld	a5,-512(s0)
    802042ec:	0017869b          	addiw	a3,a5,1
    802042f0:	e0d43023          	sd	a3,-512(s0)
    802042f4:	df843783          	ld	a5,-520(s0)
    802042f8:	0387879b          	addiw	a5,a5,56
    802042fc:	e8045703          	lhu	a4,-384(s0)
    80204300:	d8e6dfe3          	bge	a3,a4,8020409e <exec+0x13e>
    80204304:	2781                	sext.w	a5,a5
    80204306:	def43c23          	sd	a5,-520(s0)
    8020430a:	03800713          	li	a4,56
    8020430e:	86be                	mv	a3,a5
    80204310:	e1040613          	addi	a2,s0,-496
    80204314:	4581                	li	a1,0
    80204316:	8552                	mv	a0,s4
    80204318:	00002097          	auipc	ra,0x2
    8020431c:	ce8080e7          	jalr	-792(ra) # 80206000 <eread>
    80204320:	03800793          	li	a5,56
    80204324:	f2f517e3          	bne	a0,a5,80204252 <exec+0x2f2>
    80204328:	e1042783          	lw	a5,-496(s0)
    8020432c:	4705                	li	a4,1
    8020432e:	fae79de3          	bne	a5,a4,802042e8 <exec+0x388>
    80204332:	e3843683          	ld	a3,-456(s0)
    80204336:	e3043783          	ld	a5,-464(s0)
    8020433a:	f8f6e0e3          	bltu	a3,a5,802042ba <exec+0x35a>
    8020433e:	e2043783          	ld	a5,-480(s0)
    80204342:	96be                	add	a3,a3,a5
    80204344:	f6f6eee3          	bltu	a3,a5,802042c0 <exec+0x360>
    80204348:	8626                	mv	a2,s1
    8020434a:	85d6                	mv	a1,s5
    8020434c:	e0843503          	ld	a0,-504(s0)
    80204350:	ffffd097          	auipc	ra,0xffffd
    80204354:	da8080e7          	jalr	-600(ra) # 802010f8 <uvmalloc>
    80204358:	dea43823          	sd	a0,-528(s0)
    8020435c:	d52d                	beqz	a0,802042c6 <exec+0x366>
    8020435e:	e2043c83          	ld	s9,-480(s0)
    80204362:	dd843783          	ld	a5,-552(s0)
    80204366:	00fcf7b3          	and	a5,s9,a5
    8020436a:	ee0796e3          	bnez	a5,80204256 <exec+0x2f6>
    8020436e:	e1842d03          	lw	s10,-488(s0)
    80204372:	e3042c03          	lw	s8,-464(s0)
    80204376:	f60c07e3          	beqz	s8,802042e4 <exec+0x384>
    8020437a:	8962                	mv	s2,s8
    8020437c:	4481                	li	s1,0
    8020437e:	b9f5                	j	8020407a <exec+0x11a>
    80204380:	4581                	li	a1,0
    80204382:	8556                	mv	a0,s5
    80204384:	ffffd097          	auipc	ra,0xffffd
    80204388:	3da080e7          	jalr	986(ra) # 8020175e <kvmfree>
    8020438c:	557d                	li	a0,-1
    8020438e:	b701                	j	8020428e <exec+0x32e>

0000000080204390 <argfd>:
    80204390:	7179                	addi	sp,sp,-48
    80204392:	f406                	sd	ra,40(sp)
    80204394:	f022                	sd	s0,32(sp)
    80204396:	ec26                	sd	s1,24(sp)
    80204398:	e84a                	sd	s2,16(sp)
    8020439a:	1800                	addi	s0,sp,48
    8020439c:	892e                	mv	s2,a1
    8020439e:	84b2                	mv	s1,a2
    802043a0:	fdc40593          	addi	a1,s0,-36
    802043a4:	fffff097          	auipc	ra,0xfffff
    802043a8:	b26080e7          	jalr	-1242(ra) # 80202eca <argint>
    802043ac:	04054063          	bltz	a0,802043ec <argfd+0x5c>
    802043b0:	fdc42703          	lw	a4,-36(s0)
    802043b4:	47bd                	li	a5,15
    802043b6:	02e7ed63          	bltu	a5,a4,802043f0 <argfd+0x60>
    802043ba:	ffffd097          	auipc	ra,0xffffd
    802043be:	77e080e7          	jalr	1918(ra) # 80201b38 <myproc>
    802043c2:	fdc42703          	lw	a4,-36(s0)
    802043c6:	01a70793          	addi	a5,a4,26
    802043ca:	078e                	slli	a5,a5,0x3
    802043cc:	953e                	add	a0,a0,a5
    802043ce:	651c                	ld	a5,8(a0)
    802043d0:	c395                	beqz	a5,802043f4 <argfd+0x64>
    802043d2:	00090463          	beqz	s2,802043da <argfd+0x4a>
    802043d6:	00e92023          	sw	a4,0(s2)
    802043da:	4501                	li	a0,0
    802043dc:	c091                	beqz	s1,802043e0 <argfd+0x50>
    802043de:	e09c                	sd	a5,0(s1)
    802043e0:	70a2                	ld	ra,40(sp)
    802043e2:	7402                	ld	s0,32(sp)
    802043e4:	64e2                	ld	s1,24(sp)
    802043e6:	6942                	ld	s2,16(sp)
    802043e8:	6145                	addi	sp,sp,48
    802043ea:	8082                	ret
    802043ec:	557d                	li	a0,-1
    802043ee:	bfcd                	j	802043e0 <argfd+0x50>
    802043f0:	557d                	li	a0,-1
    802043f2:	b7fd                	j	802043e0 <argfd+0x50>
    802043f4:	557d                	li	a0,-1
    802043f6:	b7ed                	j	802043e0 <argfd+0x50>

00000000802043f8 <fdalloc>:
    802043f8:	1101                	addi	sp,sp,-32
    802043fa:	ec06                	sd	ra,24(sp)
    802043fc:	e822                	sd	s0,16(sp)
    802043fe:	e426                	sd	s1,8(sp)
    80204400:	1000                	addi	s0,sp,32
    80204402:	84aa                	mv	s1,a0
    80204404:	ffffd097          	auipc	ra,0xffffd
    80204408:	734080e7          	jalr	1844(ra) # 80201b38 <myproc>
    8020440c:	862a                	mv	a2,a0
    8020440e:	0d850793          	addi	a5,a0,216
    80204412:	4501                	li	a0,0
    80204414:	46c1                	li	a3,16
    80204416:	6398                	ld	a4,0(a5)
    80204418:	cb19                	beqz	a4,8020442e <fdalloc+0x36>
    8020441a:	2505                	addiw	a0,a0,1
    8020441c:	07a1                	addi	a5,a5,8
    8020441e:	fed51ce3          	bne	a0,a3,80204416 <fdalloc+0x1e>
    80204422:	557d                	li	a0,-1
    80204424:	60e2                	ld	ra,24(sp)
    80204426:	6442                	ld	s0,16(sp)
    80204428:	64a2                	ld	s1,8(sp)
    8020442a:	6105                	addi	sp,sp,32
    8020442c:	8082                	ret
    8020442e:	01a50793          	addi	a5,a0,26
    80204432:	078e                	slli	a5,a5,0x3
    80204434:	963e                	add	a2,a2,a5
    80204436:	e604                	sd	s1,8(a2)
    80204438:	b7f5                	j	80204424 <fdalloc+0x2c>

000000008020443a <create>:
    8020443a:	7169                	addi	sp,sp,-304
    8020443c:	f606                	sd	ra,296(sp)
    8020443e:	f222                	sd	s0,288(sp)
    80204440:	ee26                	sd	s1,280(sp)
    80204442:	ea4a                	sd	s2,272(sp)
    80204444:	e64e                	sd	s3,264(sp)
    80204446:	1a00                	addi	s0,sp,304
    80204448:	89ae                	mv	s3,a1
    8020444a:	ed040593          	addi	a1,s0,-304
    8020444e:	00003097          	auipc	ra,0x3
    80204452:	c3a080e7          	jalr	-966(ra) # 80207088 <enameparent>
    80204456:	84aa                	mv	s1,a0
    80204458:	cd3d                	beqz	a0,802044d6 <create+0x9c>
    8020445a:	0009879b          	sext.w	a5,s3
    8020445e:	4705                	li	a4,1
    80204460:	06e78d63          	beq	a5,a4,802044da <create+0xa0>
    80204464:	00002097          	auipc	ra,0x2
    80204468:	466080e7          	jalr	1126(ra) # 802068ca <elock>
    8020446c:	4601                	li	a2,0
    8020446e:	ed040593          	addi	a1,s0,-304
    80204472:	8526                	mv	a0,s1
    80204474:	00003097          	auipc	ra,0x3
    80204478:	93e080e7          	jalr	-1730(ra) # 80206db2 <ealloc>
    8020447c:	892a                	mv	s2,a0
    8020447e:	c121                	beqz	a0,802044be <create+0x84>
    80204480:	2981                	sext.w	s3,s3
    80204482:	4789                	li	a5,2
    80204484:	00f99663          	bne	s3,a5,80204490 <create+0x56>
    80204488:	10094783          	lbu	a5,256(s2)
    8020448c:	8bc1                	andi	a5,a5,16
    8020448e:	eba5                	bnez	a5,802044fe <create+0xc4>
    80204490:	8526                	mv	a0,s1
    80204492:	00002097          	auipc	ra,0x2
    80204496:	46e080e7          	jalr	1134(ra) # 80206900 <eunlock>
    8020449a:	8526                	mv	a0,s1
    8020449c:	00002097          	auipc	ra,0x2
    802044a0:	4b2080e7          	jalr	1202(ra) # 8020694e <eput>
    802044a4:	854a                	mv	a0,s2
    802044a6:	00002097          	auipc	ra,0x2
    802044aa:	424080e7          	jalr	1060(ra) # 802068ca <elock>
    802044ae:	854a                	mv	a0,s2
    802044b0:	70b2                	ld	ra,296(sp)
    802044b2:	7412                	ld	s0,288(sp)
    802044b4:	64f2                	ld	s1,280(sp)
    802044b6:	6952                	ld	s2,272(sp)
    802044b8:	69b2                	ld	s3,264(sp)
    802044ba:	6155                	addi	sp,sp,304
    802044bc:	8082                	ret
    802044be:	8526                	mv	a0,s1
    802044c0:	00002097          	auipc	ra,0x2
    802044c4:	440080e7          	jalr	1088(ra) # 80206900 <eunlock>
    802044c8:	8526                	mv	a0,s1
    802044ca:	00002097          	auipc	ra,0x2
    802044ce:	484080e7          	jalr	1156(ra) # 8020694e <eput>
    802044d2:	4901                	li	s2,0
    802044d4:	bfe9                	j	802044ae <create+0x74>
    802044d6:	892a                	mv	s2,a0
    802044d8:	bfd9                	j	802044ae <create+0x74>
    802044da:	00002097          	auipc	ra,0x2
    802044de:	3f0080e7          	jalr	1008(ra) # 802068ca <elock>
    802044e2:	4641                	li	a2,16
    802044e4:	ed040593          	addi	a1,s0,-304
    802044e8:	8526                	mv	a0,s1
    802044ea:	00003097          	auipc	ra,0x3
    802044ee:	8c8080e7          	jalr	-1848(ra) # 80206db2 <ealloc>
    802044f2:	892a                	mv	s2,a0
    802044f4:	d569                	beqz	a0,802044be <create+0x84>
    802044f6:	10094783          	lbu	a5,256(s2)
    802044fa:	8bc1                	andi	a5,a5,16
    802044fc:	fbd1                	bnez	a5,80204490 <create+0x56>
    802044fe:	8526                	mv	a0,s1
    80204500:	00002097          	auipc	ra,0x2
    80204504:	400080e7          	jalr	1024(ra) # 80206900 <eunlock>
    80204508:	854a                	mv	a0,s2
    8020450a:	00002097          	auipc	ra,0x2
    8020450e:	444080e7          	jalr	1092(ra) # 8020694e <eput>
    80204512:	8526                	mv	a0,s1
    80204514:	00002097          	auipc	ra,0x2
    80204518:	43a080e7          	jalr	1082(ra) # 8020694e <eput>
    8020451c:	4901                	li	s2,0
    8020451e:	bf41                	j	802044ae <create+0x74>

0000000080204520 <sys_dup>:
    80204520:	7179                	addi	sp,sp,-48
    80204522:	f406                	sd	ra,40(sp)
    80204524:	f022                	sd	s0,32(sp)
    80204526:	ec26                	sd	s1,24(sp)
    80204528:	1800                	addi	s0,sp,48
    8020452a:	fd840613          	addi	a2,s0,-40
    8020452e:	4581                	li	a1,0
    80204530:	4501                	li	a0,0
    80204532:	00000097          	auipc	ra,0x0
    80204536:	e5e080e7          	jalr	-418(ra) # 80204390 <argfd>
    8020453a:	57fd                	li	a5,-1
    8020453c:	02054363          	bltz	a0,80204562 <sys_dup+0x42>
    80204540:	fd843503          	ld	a0,-40(s0)
    80204544:	00000097          	auipc	ra,0x0
    80204548:	eb4080e7          	jalr	-332(ra) # 802043f8 <fdalloc>
    8020454c:	84aa                	mv	s1,a0
    8020454e:	57fd                	li	a5,-1
    80204550:	00054963          	bltz	a0,80204562 <sys_dup+0x42>
    80204554:	fd843503          	ld	a0,-40(s0)
    80204558:	fffff097          	auipc	ra,0xfffff
    8020455c:	300080e7          	jalr	768(ra) # 80203858 <filedup>
    80204560:	87a6                	mv	a5,s1
    80204562:	853e                	mv	a0,a5
    80204564:	70a2                	ld	ra,40(sp)
    80204566:	7402                	ld	s0,32(sp)
    80204568:	64e2                	ld	s1,24(sp)
    8020456a:	6145                	addi	sp,sp,48
    8020456c:	8082                	ret

000000008020456e <sys_read>:
    8020456e:	7179                	addi	sp,sp,-48
    80204570:	f406                	sd	ra,40(sp)
    80204572:	f022                	sd	s0,32(sp)
    80204574:	1800                	addi	s0,sp,48
    80204576:	fe840613          	addi	a2,s0,-24
    8020457a:	4581                	li	a1,0
    8020457c:	4501                	li	a0,0
    8020457e:	00000097          	auipc	ra,0x0
    80204582:	e12080e7          	jalr	-494(ra) # 80204390 <argfd>
    80204586:	57fd                	li	a5,-1
    80204588:	04054163          	bltz	a0,802045ca <sys_read+0x5c>
    8020458c:	fe440593          	addi	a1,s0,-28
    80204590:	4509                	li	a0,2
    80204592:	fffff097          	auipc	ra,0xfffff
    80204596:	938080e7          	jalr	-1736(ra) # 80202eca <argint>
    8020459a:	57fd                	li	a5,-1
    8020459c:	02054763          	bltz	a0,802045ca <sys_read+0x5c>
    802045a0:	fd840593          	addi	a1,s0,-40
    802045a4:	4505                	li	a0,1
    802045a6:	fffff097          	auipc	ra,0xfffff
    802045aa:	986080e7          	jalr	-1658(ra) # 80202f2c <argaddr>
    802045ae:	57fd                	li	a5,-1
    802045b0:	00054d63          	bltz	a0,802045ca <sys_read+0x5c>
    802045b4:	fe442603          	lw	a2,-28(s0)
    802045b8:	fd843583          	ld	a1,-40(s0)
    802045bc:	fe843503          	ld	a0,-24(s0)
    802045c0:	fffff097          	auipc	ra,0xfffff
    802045c4:	400080e7          	jalr	1024(ra) # 802039c0 <fileread>
    802045c8:	87aa                	mv	a5,a0
    802045ca:	853e                	mv	a0,a5
    802045cc:	70a2                	ld	ra,40(sp)
    802045ce:	7402                	ld	s0,32(sp)
    802045d0:	6145                	addi	sp,sp,48
    802045d2:	8082                	ret

00000000802045d4 <sys_write>:
    802045d4:	7179                	addi	sp,sp,-48
    802045d6:	f406                	sd	ra,40(sp)
    802045d8:	f022                	sd	s0,32(sp)
    802045da:	1800                	addi	s0,sp,48
    802045dc:	fe840613          	addi	a2,s0,-24
    802045e0:	4581                	li	a1,0
    802045e2:	4501                	li	a0,0
    802045e4:	00000097          	auipc	ra,0x0
    802045e8:	dac080e7          	jalr	-596(ra) # 80204390 <argfd>
    802045ec:	57fd                	li	a5,-1
    802045ee:	04054163          	bltz	a0,80204630 <sys_write+0x5c>
    802045f2:	fe440593          	addi	a1,s0,-28
    802045f6:	4509                	li	a0,2
    802045f8:	fffff097          	auipc	ra,0xfffff
    802045fc:	8d2080e7          	jalr	-1838(ra) # 80202eca <argint>
    80204600:	57fd                	li	a5,-1
    80204602:	02054763          	bltz	a0,80204630 <sys_write+0x5c>
    80204606:	fd840593          	addi	a1,s0,-40
    8020460a:	4505                	li	a0,1
    8020460c:	fffff097          	auipc	ra,0xfffff
    80204610:	920080e7          	jalr	-1760(ra) # 80202f2c <argaddr>
    80204614:	57fd                	li	a5,-1
    80204616:	00054d63          	bltz	a0,80204630 <sys_write+0x5c>
    8020461a:	fe442603          	lw	a2,-28(s0)
    8020461e:	fd843583          	ld	a1,-40(s0)
    80204622:	fe843503          	ld	a0,-24(s0)
    80204626:	fffff097          	auipc	ra,0xfffff
    8020462a:	45c080e7          	jalr	1116(ra) # 80203a82 <filewrite>
    8020462e:	87aa                	mv	a5,a0
    80204630:	853e                	mv	a0,a5
    80204632:	70a2                	ld	ra,40(sp)
    80204634:	7402                	ld	s0,32(sp)
    80204636:	6145                	addi	sp,sp,48
    80204638:	8082                	ret

000000008020463a <sys_close>:
    8020463a:	1101                	addi	sp,sp,-32
    8020463c:	ec06                	sd	ra,24(sp)
    8020463e:	e822                	sd	s0,16(sp)
    80204640:	1000                	addi	s0,sp,32
    80204642:	fe040613          	addi	a2,s0,-32
    80204646:	fec40593          	addi	a1,s0,-20
    8020464a:	4501                	li	a0,0
    8020464c:	00000097          	auipc	ra,0x0
    80204650:	d44080e7          	jalr	-700(ra) # 80204390 <argfd>
    80204654:	57fd                	li	a5,-1
    80204656:	02054463          	bltz	a0,8020467e <sys_close+0x44>
    8020465a:	ffffd097          	auipc	ra,0xffffd
    8020465e:	4de080e7          	jalr	1246(ra) # 80201b38 <myproc>
    80204662:	fec42783          	lw	a5,-20(s0)
    80204666:	07e9                	addi	a5,a5,26
    80204668:	078e                	slli	a5,a5,0x3
    8020466a:	97aa                	add	a5,a5,a0
    8020466c:	0007b423          	sd	zero,8(a5)
    80204670:	fe043503          	ld	a0,-32(s0)
    80204674:	fffff097          	auipc	ra,0xfffff
    80204678:	236080e7          	jalr	566(ra) # 802038aa <fileclose>
    8020467c:	4781                	li	a5,0
    8020467e:	853e                	mv	a0,a5
    80204680:	60e2                	ld	ra,24(sp)
    80204682:	6442                	ld	s0,16(sp)
    80204684:	6105                	addi	sp,sp,32
    80204686:	8082                	ret

0000000080204688 <sys_fstat>:
    80204688:	1101                	addi	sp,sp,-32
    8020468a:	ec06                	sd	ra,24(sp)
    8020468c:	e822                	sd	s0,16(sp)
    8020468e:	1000                	addi	s0,sp,32
    80204690:	fe840613          	addi	a2,s0,-24
    80204694:	4581                	li	a1,0
    80204696:	4501                	li	a0,0
    80204698:	00000097          	auipc	ra,0x0
    8020469c:	cf8080e7          	jalr	-776(ra) # 80204390 <argfd>
    802046a0:	57fd                	li	a5,-1
    802046a2:	02054563          	bltz	a0,802046cc <sys_fstat+0x44>
    802046a6:	fe040593          	addi	a1,s0,-32
    802046aa:	4505                	li	a0,1
    802046ac:	fffff097          	auipc	ra,0xfffff
    802046b0:	880080e7          	jalr	-1920(ra) # 80202f2c <argaddr>
    802046b4:	57fd                	li	a5,-1
    802046b6:	00054b63          	bltz	a0,802046cc <sys_fstat+0x44>
    802046ba:	fe043583          	ld	a1,-32(s0)
    802046be:	fe843503          	ld	a0,-24(s0)
    802046c2:	fffff097          	auipc	ra,0xfffff
    802046c6:	29e080e7          	jalr	670(ra) # 80203960 <filestat>
    802046ca:	87aa                	mv	a5,a0
    802046cc:	853e                	mv	a0,a5
    802046ce:	60e2                	ld	ra,24(sp)
    802046d0:	6442                	ld	s0,16(sp)
    802046d2:	6105                	addi	sp,sp,32
    802046d4:	8082                	ret

00000000802046d6 <sys_open>:
    802046d6:	7129                	addi	sp,sp,-320
    802046d8:	fe06                	sd	ra,312(sp)
    802046da:	fa22                	sd	s0,304(sp)
    802046dc:	f626                	sd	s1,296(sp)
    802046de:	f24a                	sd	s2,288(sp)
    802046e0:	ee4e                	sd	s3,280(sp)
    802046e2:	0280                	addi	s0,sp,320
    802046e4:	10400613          	li	a2,260
    802046e8:	ec840593          	addi	a1,s0,-312
    802046ec:	4501                	li	a0,0
    802046ee:	fffff097          	auipc	ra,0xfffff
    802046f2:	860080e7          	jalr	-1952(ra) # 80202f4e <argstr>
    802046f6:	87aa                	mv	a5,a0
    802046f8:	557d                	li	a0,-1
    802046fa:	0807ce63          	bltz	a5,80204796 <sys_open+0xc0>
    802046fe:	ec440593          	addi	a1,s0,-316
    80204702:	4505                	li	a0,1
    80204704:	ffffe097          	auipc	ra,0xffffe
    80204708:	7c6080e7          	jalr	1990(ra) # 80202eca <argint>
    8020470c:	0e054163          	bltz	a0,802047ee <sys_open+0x118>
    80204710:	ec442603          	lw	a2,-316(s0)
    80204714:	20067793          	andi	a5,a2,512
    80204718:	c7d1                	beqz	a5,802047a4 <sys_open+0xce>
    8020471a:	4589                	li	a1,2
    8020471c:	ec840513          	addi	a0,s0,-312
    80204720:	00000097          	auipc	ra,0x0
    80204724:	d1a080e7          	jalr	-742(ra) # 8020443a <create>
    80204728:	892a                	mv	s2,a0
    8020472a:	c561                	beqz	a0,802047f2 <sys_open+0x11c>
    8020472c:	fffff097          	auipc	ra,0xfffff
    80204730:	0c2080e7          	jalr	194(ra) # 802037ee <filealloc>
    80204734:	89aa                	mv	s3,a0
    80204736:	c579                	beqz	a0,80204804 <sys_open+0x12e>
    80204738:	00000097          	auipc	ra,0x0
    8020473c:	cc0080e7          	jalr	-832(ra) # 802043f8 <fdalloc>
    80204740:	84aa                	mv	s1,a0
    80204742:	0a054c63          	bltz	a0,802047fa <sys_open+0x124>
    80204746:	10094783          	lbu	a5,256(s2)
    8020474a:	8bc1                	andi	a5,a5,16
    8020474c:	e791                	bnez	a5,80204758 <sys_open+0x82>
    8020474e:	ec442783          	lw	a5,-316(s0)
    80204752:	4007f793          	andi	a5,a5,1024
    80204756:	e7d1                	bnez	a5,802047e2 <sys_open+0x10c>
    80204758:	4789                	li	a5,2
    8020475a:	00f9a023          	sw	a5,0(s3)
    8020475e:	ec442783          	lw	a5,-316(s0)
    80204762:	0047f693          	andi	a3,a5,4
    80204766:	4701                	li	a4,0
    80204768:	c299                	beqz	a3,8020476e <sys_open+0x98>
    8020476a:	10892703          	lw	a4,264(s2)
    8020476e:	02e9a023          	sw	a4,32(s3)
    80204772:	0129bc23          	sd	s2,24(s3)
    80204776:	0017c713          	xori	a4,a5,1
    8020477a:	8b05                	andi	a4,a4,1
    8020477c:	00e98423          	sb	a4,8(s3)
    80204780:	8b8d                	andi	a5,a5,3
    80204782:	00f037b3          	snez	a5,a5
    80204786:	00f984a3          	sb	a5,9(s3)
    8020478a:	854a                	mv	a0,s2
    8020478c:	00002097          	auipc	ra,0x2
    80204790:	174080e7          	jalr	372(ra) # 80206900 <eunlock>
    80204794:	8526                	mv	a0,s1
    80204796:	70f2                	ld	ra,312(sp)
    80204798:	7452                	ld	s0,304(sp)
    8020479a:	74b2                	ld	s1,296(sp)
    8020479c:	7912                	ld	s2,288(sp)
    8020479e:	69f2                	ld	s3,280(sp)
    802047a0:	6131                	addi	sp,sp,320
    802047a2:	8082                	ret
    802047a4:	ec840513          	addi	a0,s0,-312
    802047a8:	00003097          	auipc	ra,0x3
    802047ac:	8c2080e7          	jalr	-1854(ra) # 8020706a <ename>
    802047b0:	892a                	mv	s2,a0
    802047b2:	c131                	beqz	a0,802047f6 <sys_open+0x120>
    802047b4:	00002097          	auipc	ra,0x2
    802047b8:	116080e7          	jalr	278(ra) # 802068ca <elock>
    802047bc:	10094783          	lbu	a5,256(s2)
    802047c0:	8bc1                	andi	a5,a5,16
    802047c2:	d7ad                	beqz	a5,8020472c <sys_open+0x56>
    802047c4:	ec442783          	lw	a5,-316(s0)
    802047c8:	d3b5                	beqz	a5,8020472c <sys_open+0x56>
    802047ca:	854a                	mv	a0,s2
    802047cc:	00002097          	auipc	ra,0x2
    802047d0:	134080e7          	jalr	308(ra) # 80206900 <eunlock>
    802047d4:	854a                	mv	a0,s2
    802047d6:	00002097          	auipc	ra,0x2
    802047da:	178080e7          	jalr	376(ra) # 8020694e <eput>
    802047de:	557d                	li	a0,-1
    802047e0:	bf5d                	j	80204796 <sys_open+0xc0>
    802047e2:	854a                	mv	a0,s2
    802047e4:	00002097          	auipc	ra,0x2
    802047e8:	07c080e7          	jalr	124(ra) # 80206860 <etrunc>
    802047ec:	b7b5                	j	80204758 <sys_open+0x82>
    802047ee:	557d                	li	a0,-1
    802047f0:	b75d                	j	80204796 <sys_open+0xc0>
    802047f2:	557d                	li	a0,-1
    802047f4:	b74d                	j	80204796 <sys_open+0xc0>
    802047f6:	557d                	li	a0,-1
    802047f8:	bf79                	j	80204796 <sys_open+0xc0>
    802047fa:	854e                	mv	a0,s3
    802047fc:	fffff097          	auipc	ra,0xfffff
    80204800:	0ae080e7          	jalr	174(ra) # 802038aa <fileclose>
    80204804:	854a                	mv	a0,s2
    80204806:	00002097          	auipc	ra,0x2
    8020480a:	0fa080e7          	jalr	250(ra) # 80206900 <eunlock>
    8020480e:	854a                	mv	a0,s2
    80204810:	00002097          	auipc	ra,0x2
    80204814:	13e080e7          	jalr	318(ra) # 8020694e <eput>
    80204818:	557d                	li	a0,-1
    8020481a:	bfb5                	j	80204796 <sys_open+0xc0>

000000008020481c <sys_mkdir>:
    8020481c:	7169                	addi	sp,sp,-304
    8020481e:	f606                	sd	ra,296(sp)
    80204820:	f222                	sd	s0,288(sp)
    80204822:	ee26                	sd	s1,280(sp)
    80204824:	1a00                	addi	s0,sp,304
    80204826:	10400613          	li	a2,260
    8020482a:	ed840593          	addi	a1,s0,-296
    8020482e:	4501                	li	a0,0
    80204830:	ffffe097          	auipc	ra,0xffffe
    80204834:	71e080e7          	jalr	1822(ra) # 80202f4e <argstr>
    80204838:	57fd                	li	a5,-1
    8020483a:	02054663          	bltz	a0,80204866 <sys_mkdir+0x4a>
    8020483e:	4601                	li	a2,0
    80204840:	4585                	li	a1,1
    80204842:	ed840513          	addi	a0,s0,-296
    80204846:	00000097          	auipc	ra,0x0
    8020484a:	bf4080e7          	jalr	-1036(ra) # 8020443a <create>
    8020484e:	84aa                	mv	s1,a0
    80204850:	c10d                	beqz	a0,80204872 <sys_mkdir+0x56>
    80204852:	00002097          	auipc	ra,0x2
    80204856:	0ae080e7          	jalr	174(ra) # 80206900 <eunlock>
    8020485a:	8526                	mv	a0,s1
    8020485c:	00002097          	auipc	ra,0x2
    80204860:	0f2080e7          	jalr	242(ra) # 8020694e <eput>
    80204864:	4781                	li	a5,0
    80204866:	853e                	mv	a0,a5
    80204868:	70b2                	ld	ra,296(sp)
    8020486a:	7412                	ld	s0,288(sp)
    8020486c:	64f2                	ld	s1,280(sp)
    8020486e:	6155                	addi	sp,sp,304
    80204870:	8082                	ret
    80204872:	57fd                	li	a5,-1
    80204874:	bfcd                	j	80204866 <sys_mkdir+0x4a>

0000000080204876 <sys_chdir>:
    80204876:	7169                	addi	sp,sp,-304
    80204878:	f606                	sd	ra,296(sp)
    8020487a:	f222                	sd	s0,288(sp)
    8020487c:	ee26                	sd	s1,280(sp)
    8020487e:	ea4a                	sd	s2,272(sp)
    80204880:	1a00                	addi	s0,sp,304
    80204882:	ffffd097          	auipc	ra,0xffffd
    80204886:	2b6080e7          	jalr	694(ra) # 80201b38 <myproc>
    8020488a:	892a                	mv	s2,a0
    8020488c:	10400613          	li	a2,260
    80204890:	ed840593          	addi	a1,s0,-296
    80204894:	4501                	li	a0,0
    80204896:	ffffe097          	auipc	ra,0xffffe
    8020489a:	6b8080e7          	jalr	1720(ra) # 80202f4e <argstr>
    8020489e:	57fd                	li	a5,-1
    802048a0:	04054063          	bltz	a0,802048e0 <sys_chdir+0x6a>
    802048a4:	ed840513          	addi	a0,s0,-296
    802048a8:	00002097          	auipc	ra,0x2
    802048ac:	7c2080e7          	jalr	1986(ra) # 8020706a <ename>
    802048b0:	84aa                	mv	s1,a0
    802048b2:	c931                	beqz	a0,80204906 <sys_chdir+0x90>
    802048b4:	00002097          	auipc	ra,0x2
    802048b8:	016080e7          	jalr	22(ra) # 802068ca <elock>
    802048bc:	1004c783          	lbu	a5,256(s1)
    802048c0:	8bc1                	andi	a5,a5,16
    802048c2:	c795                	beqz	a5,802048ee <sys_chdir+0x78>
    802048c4:	8526                	mv	a0,s1
    802048c6:	00002097          	auipc	ra,0x2
    802048ca:	03a080e7          	jalr	58(ra) # 80206900 <eunlock>
    802048ce:	15893503          	ld	a0,344(s2)
    802048d2:	00002097          	auipc	ra,0x2
    802048d6:	07c080e7          	jalr	124(ra) # 8020694e <eput>
    802048da:	14993c23          	sd	s1,344(s2)
    802048de:	4781                	li	a5,0
    802048e0:	853e                	mv	a0,a5
    802048e2:	70b2                	ld	ra,296(sp)
    802048e4:	7412                	ld	s0,288(sp)
    802048e6:	64f2                	ld	s1,280(sp)
    802048e8:	6952                	ld	s2,272(sp)
    802048ea:	6155                	addi	sp,sp,304
    802048ec:	8082                	ret
    802048ee:	8526                	mv	a0,s1
    802048f0:	00002097          	auipc	ra,0x2
    802048f4:	010080e7          	jalr	16(ra) # 80206900 <eunlock>
    802048f8:	8526                	mv	a0,s1
    802048fa:	00002097          	auipc	ra,0x2
    802048fe:	054080e7          	jalr	84(ra) # 8020694e <eput>
    80204902:	57fd                	li	a5,-1
    80204904:	bff1                	j	802048e0 <sys_chdir+0x6a>
    80204906:	57fd                	li	a5,-1
    80204908:	bfe1                	j	802048e0 <sys_chdir+0x6a>

000000008020490a <sys_pipe>:
    8020490a:	7139                	addi	sp,sp,-64
    8020490c:	fc06                	sd	ra,56(sp)
    8020490e:	f822                	sd	s0,48(sp)
    80204910:	f426                	sd	s1,40(sp)
    80204912:	0080                	addi	s0,sp,64
    80204914:	ffffd097          	auipc	ra,0xffffd
    80204918:	224080e7          	jalr	548(ra) # 80201b38 <myproc>
    8020491c:	84aa                	mv	s1,a0
    8020491e:	fd840593          	addi	a1,s0,-40
    80204922:	4501                	li	a0,0
    80204924:	ffffe097          	auipc	ra,0xffffe
    80204928:	608080e7          	jalr	1544(ra) # 80202f2c <argaddr>
    8020492c:	57fd                	li	a5,-1
    8020492e:	0c054e63          	bltz	a0,80204a0a <sys_pipe+0x100>
    80204932:	fc840593          	addi	a1,s0,-56
    80204936:	fd040513          	addi	a0,s0,-48
    8020493a:	fffff097          	auipc	ra,0xfffff
    8020493e:	2d4080e7          	jalr	724(ra) # 80203c0e <pipealloc>
    80204942:	57fd                	li	a5,-1
    80204944:	0c054363          	bltz	a0,80204a0a <sys_pipe+0x100>
    80204948:	fcf42223          	sw	a5,-60(s0)
    8020494c:	fd043503          	ld	a0,-48(s0)
    80204950:	00000097          	auipc	ra,0x0
    80204954:	aa8080e7          	jalr	-1368(ra) # 802043f8 <fdalloc>
    80204958:	fca42223          	sw	a0,-60(s0)
    8020495c:	08054a63          	bltz	a0,802049f0 <sys_pipe+0xe6>
    80204960:	fc843503          	ld	a0,-56(s0)
    80204964:	00000097          	auipc	ra,0x0
    80204968:	a94080e7          	jalr	-1388(ra) # 802043f8 <fdalloc>
    8020496c:	fca42023          	sw	a0,-64(s0)
    80204970:	06054663          	bltz	a0,802049dc <sys_pipe+0xd2>
    80204974:	4611                	li	a2,4
    80204976:	fc440593          	addi	a1,s0,-60
    8020497a:	fd843503          	ld	a0,-40(s0)
    8020497e:	ffffd097          	auipc	ra,0xffffd
    80204982:	ade080e7          	jalr	-1314(ra) # 8020145c <copyout2>
    80204986:	00054f63          	bltz	a0,802049a4 <sys_pipe+0x9a>
    8020498a:	4611                	li	a2,4
    8020498c:	fc040593          	addi	a1,s0,-64
    80204990:	fd843503          	ld	a0,-40(s0)
    80204994:	0511                	addi	a0,a0,4
    80204996:	ffffd097          	auipc	ra,0xffffd
    8020499a:	ac6080e7          	jalr	-1338(ra) # 8020145c <copyout2>
    8020499e:	4781                	li	a5,0
    802049a0:	06055563          	bgez	a0,80204a0a <sys_pipe+0x100>
    802049a4:	fc442783          	lw	a5,-60(s0)
    802049a8:	07e9                	addi	a5,a5,26
    802049aa:	078e                	slli	a5,a5,0x3
    802049ac:	97a6                	add	a5,a5,s1
    802049ae:	0007b423          	sd	zero,8(a5)
    802049b2:	fc042503          	lw	a0,-64(s0)
    802049b6:	0569                	addi	a0,a0,26
    802049b8:	050e                	slli	a0,a0,0x3
    802049ba:	9526                	add	a0,a0,s1
    802049bc:	00053423          	sd	zero,8(a0)
    802049c0:	fd043503          	ld	a0,-48(s0)
    802049c4:	fffff097          	auipc	ra,0xfffff
    802049c8:	ee6080e7          	jalr	-282(ra) # 802038aa <fileclose>
    802049cc:	fc843503          	ld	a0,-56(s0)
    802049d0:	fffff097          	auipc	ra,0xfffff
    802049d4:	eda080e7          	jalr	-294(ra) # 802038aa <fileclose>
    802049d8:	57fd                	li	a5,-1
    802049da:	a805                	j	80204a0a <sys_pipe+0x100>
    802049dc:	fc442783          	lw	a5,-60(s0)
    802049e0:	0007c863          	bltz	a5,802049f0 <sys_pipe+0xe6>
    802049e4:	01a78513          	addi	a0,a5,26
    802049e8:	050e                	slli	a0,a0,0x3
    802049ea:	9526                	add	a0,a0,s1
    802049ec:	00053423          	sd	zero,8(a0)
    802049f0:	fd043503          	ld	a0,-48(s0)
    802049f4:	fffff097          	auipc	ra,0xfffff
    802049f8:	eb6080e7          	jalr	-330(ra) # 802038aa <fileclose>
    802049fc:	fc843503          	ld	a0,-56(s0)
    80204a00:	fffff097          	auipc	ra,0xfffff
    80204a04:	eaa080e7          	jalr	-342(ra) # 802038aa <fileclose>
    80204a08:	57fd                	li	a5,-1
    80204a0a:	853e                	mv	a0,a5
    80204a0c:	70e2                	ld	ra,56(sp)
    80204a0e:	7442                	ld	s0,48(sp)
    80204a10:	74a2                	ld	s1,40(sp)
    80204a12:	6121                	addi	sp,sp,64
    80204a14:	8082                	ret

0000000080204a16 <sys_dev>:
    80204a16:	7179                	addi	sp,sp,-48
    80204a18:	f406                	sd	ra,40(sp)
    80204a1a:	f022                	sd	s0,32(sp)
    80204a1c:	ec26                	sd	s1,24(sp)
    80204a1e:	1800                	addi	s0,sp,48
    80204a20:	fdc40593          	addi	a1,s0,-36
    80204a24:	4501                	li	a0,0
    80204a26:	ffffe097          	auipc	ra,0xffffe
    80204a2a:	4a4080e7          	jalr	1188(ra) # 80202eca <argint>
    80204a2e:	08054a63          	bltz	a0,80204ac2 <sys_dev+0xac>
    80204a32:	fd840593          	addi	a1,s0,-40
    80204a36:	4505                	li	a0,1
    80204a38:	ffffe097          	auipc	ra,0xffffe
    80204a3c:	492080e7          	jalr	1170(ra) # 80202eca <argint>
    80204a40:	08054763          	bltz	a0,80204ace <sys_dev+0xb8>
    80204a44:	fd440593          	addi	a1,s0,-44
    80204a48:	4509                	li	a0,2
    80204a4a:	ffffe097          	auipc	ra,0xffffe
    80204a4e:	480080e7          	jalr	1152(ra) # 80202eca <argint>
    80204a52:	08054063          	bltz	a0,80204ad2 <sys_dev+0xbc>
    80204a56:	fdc42783          	lw	a5,-36(s0)
    80204a5a:	2007f793          	andi	a5,a5,512
    80204a5e:	ebb1                	bnez	a5,80204ab2 <sys_dev+0x9c>
    80204a60:	fd842703          	lw	a4,-40(s0)
    80204a64:	47a5                	li	a5,9
    80204a66:	557d                	li	a0,-1
    80204a68:	04e7ee63          	bltu	a5,a4,80204ac4 <sys_dev+0xae>
    80204a6c:	fffff097          	auipc	ra,0xfffff
    80204a70:	d82080e7          	jalr	-638(ra) # 802037ee <filealloc>
    80204a74:	84aa                	mv	s1,a0
    80204a76:	c125                	beqz	a0,80204ad6 <sys_dev+0xc0>
    80204a78:	00000097          	auipc	ra,0x0
    80204a7c:	980080e7          	jalr	-1664(ra) # 802043f8 <fdalloc>
    80204a80:	04054d63          	bltz	a0,80204ada <sys_dev+0xc4>
    80204a84:	478d                	li	a5,3
    80204a86:	c09c                	sw	a5,0(s1)
    80204a88:	0204a023          	sw	zero,32(s1)
    80204a8c:	0004bc23          	sd	zero,24(s1)
    80204a90:	fd842783          	lw	a5,-40(s0)
    80204a94:	02f49223          	sh	a5,36(s1)
    80204a98:	fdc42783          	lw	a5,-36(s0)
    80204a9c:	0017c713          	xori	a4,a5,1
    80204aa0:	8b05                	andi	a4,a4,1
    80204aa2:	00e48423          	sb	a4,8(s1)
    80204aa6:	8b8d                	andi	a5,a5,3
    80204aa8:	00f037b3          	snez	a5,a5
    80204aac:	00f484a3          	sb	a5,9(s1)
    80204ab0:	a811                	j	80204ac4 <sys_dev+0xae>
    80204ab2:	00005517          	auipc	a0,0x5
    80204ab6:	28650513          	addi	a0,a0,646 # 80209d38 <sysnames+0x180>
    80204aba:	ffffb097          	auipc	ra,0xffffb
    80204abe:	68a080e7          	jalr	1674(ra) # 80200144 <panic>
    80204ac2:	557d                	li	a0,-1
    80204ac4:	70a2                	ld	ra,40(sp)
    80204ac6:	7402                	ld	s0,32(sp)
    80204ac8:	64e2                	ld	s1,24(sp)
    80204aca:	6145                	addi	sp,sp,48
    80204acc:	8082                	ret
    80204ace:	557d                	li	a0,-1
    80204ad0:	bfd5                	j	80204ac4 <sys_dev+0xae>
    80204ad2:	557d                	li	a0,-1
    80204ad4:	bfc5                	j	80204ac4 <sys_dev+0xae>
    80204ad6:	557d                	li	a0,-1
    80204ad8:	b7f5                	j	80204ac4 <sys_dev+0xae>
    80204ada:	8526                	mv	a0,s1
    80204adc:	fffff097          	auipc	ra,0xfffff
    80204ae0:	dce080e7          	jalr	-562(ra) # 802038aa <fileclose>
    80204ae4:	557d                	li	a0,-1
    80204ae6:	bff9                	j	80204ac4 <sys_dev+0xae>

0000000080204ae8 <sys_readdir>:
    80204ae8:	1101                	addi	sp,sp,-32
    80204aea:	ec06                	sd	ra,24(sp)
    80204aec:	e822                	sd	s0,16(sp)
    80204aee:	1000                	addi	s0,sp,32
    80204af0:	fe840613          	addi	a2,s0,-24
    80204af4:	4581                	li	a1,0
    80204af6:	4501                	li	a0,0
    80204af8:	00000097          	auipc	ra,0x0
    80204afc:	898080e7          	jalr	-1896(ra) # 80204390 <argfd>
    80204b00:	57fd                	li	a5,-1
    80204b02:	02054563          	bltz	a0,80204b2c <sys_readdir+0x44>
    80204b06:	fe040593          	addi	a1,s0,-32
    80204b0a:	4505                	li	a0,1
    80204b0c:	ffffe097          	auipc	ra,0xffffe
    80204b10:	420080e7          	jalr	1056(ra) # 80202f2c <argaddr>
    80204b14:	57fd                	li	a5,-1
    80204b16:	00054b63          	bltz	a0,80204b2c <sys_readdir+0x44>
    80204b1a:	fe043583          	ld	a1,-32(s0)
    80204b1e:	fe843503          	ld	a0,-24(s0)
    80204b22:	fffff097          	auipc	ra,0xfffff
    80204b26:	032080e7          	jalr	50(ra) # 80203b54 <dirnext>
    80204b2a:	87aa                	mv	a5,a0
    80204b2c:	853e                	mv	a0,a5
    80204b2e:	60e2                	ld	ra,24(sp)
    80204b30:	6442                	ld	s0,16(sp)
    80204b32:	6105                	addi	sp,sp,32
    80204b34:	8082                	ret

0000000080204b36 <sys_getcwd>:
    80204b36:	714d                	addi	sp,sp,-336
    80204b38:	e686                	sd	ra,328(sp)
    80204b3a:	e2a2                	sd	s0,320(sp)
    80204b3c:	fe26                	sd	s1,312(sp)
    80204b3e:	fa4a                	sd	s2,304(sp)
    80204b40:	f64e                	sd	s3,296(sp)
    80204b42:	f252                	sd	s4,288(sp)
    80204b44:	ee56                	sd	s5,280(sp)
    80204b46:	0a80                	addi	s0,sp,336
    80204b48:	fb840593          	addi	a1,s0,-72
    80204b4c:	4501                	li	a0,0
    80204b4e:	ffffe097          	auipc	ra,0xffffe
    80204b52:	3de080e7          	jalr	990(ra) # 80202f2c <argaddr>
    80204b56:	87aa                	mv	a5,a0
    80204b58:	557d                	li	a0,-1
    80204b5a:	0607cc63          	bltz	a5,80204bd2 <sys_getcwd+0x9c>
    80204b5e:	ffffd097          	auipc	ra,0xffffd
    80204b62:	fda080e7          	jalr	-38(ra) # 80201b38 <myproc>
    80204b66:	15853483          	ld	s1,344(a0)
    80204b6a:	1204b783          	ld	a5,288(s1)
    80204b6e:	cbbd                	beqz	a5,80204be4 <sys_getcwd+0xae>
    80204b70:	fa0409a3          	sb	zero,-77(s0)
    80204b74:	fb340993          	addi	s3,s0,-77
    80204b78:	eb040a13          	addi	s4,s0,-336
    80204b7c:	02f00a93          	li	s5,47
    80204b80:	8526                	mv	a0,s1
    80204b82:	ffffc097          	auipc	ra,0xffffc
    80204b86:	d68080e7          	jalr	-664(ra) # 802008ea <strlen>
    80204b8a:	862a                	mv	a2,a0
    80204b8c:	40a98933          	sub	s2,s3,a0
    80204b90:	052a7f63          	bgeu	s4,s2,80204bee <sys_getcwd+0xb8>
    80204b94:	85a6                	mv	a1,s1
    80204b96:	854a                	mv	a0,s2
    80204b98:	ffffc097          	auipc	ra,0xffffc
    80204b9c:	ce2080e7          	jalr	-798(ra) # 8020087a <strncpy>
    80204ba0:	fff90993          	addi	s3,s2,-1
    80204ba4:	ff590fa3          	sb	s5,-1(s2)
    80204ba8:	1204b483          	ld	s1,288(s1)
    80204bac:	1204b783          	ld	a5,288(s1)
    80204bb0:	fbe1                	bnez	a5,80204b80 <sys_getcwd+0x4a>
    80204bb2:	fb843483          	ld	s1,-72(s0)
    80204bb6:	854e                	mv	a0,s3
    80204bb8:	ffffc097          	auipc	ra,0xffffc
    80204bbc:	d32080e7          	jalr	-718(ra) # 802008ea <strlen>
    80204bc0:	0015061b          	addiw	a2,a0,1
    80204bc4:	85ce                	mv	a1,s3
    80204bc6:	8526                	mv	a0,s1
    80204bc8:	ffffd097          	auipc	ra,0xffffd
    80204bcc:	894080e7          	jalr	-1900(ra) # 8020145c <copyout2>
    80204bd0:	957d                	srai	a0,a0,0x3f
    80204bd2:	60b6                	ld	ra,328(sp)
    80204bd4:	6416                	ld	s0,320(sp)
    80204bd6:	74f2                	ld	s1,312(sp)
    80204bd8:	7952                	ld	s2,304(sp)
    80204bda:	79b2                	ld	s3,296(sp)
    80204bdc:	7a12                	ld	s4,288(sp)
    80204bde:	6af2                	ld	s5,280(sp)
    80204be0:	6171                	addi	sp,sp,336
    80204be2:	8082                	ret
    80204be4:	00005997          	auipc	s3,0x5
    80204be8:	a4c98993          	addi	s3,s3,-1460 # 80209630 <digits+0x2b0>
    80204bec:	b7d9                	j	80204bb2 <sys_getcwd+0x7c>
    80204bee:	557d                	li	a0,-1
    80204bf0:	b7cd                	j	80204bd2 <sys_getcwd+0x9c>

0000000080204bf2 <sys_remove>:
    80204bf2:	d6010113          	addi	sp,sp,-672
    80204bf6:	28113c23          	sd	ra,664(sp)
    80204bfa:	28813823          	sd	s0,656(sp)
    80204bfe:	28913423          	sd	s1,648(sp)
    80204c02:	1500                	addi	s0,sp,672
    80204c04:	10400613          	li	a2,260
    80204c08:	ed840593          	addi	a1,s0,-296
    80204c0c:	4501                	li	a0,0
    80204c0e:	ffffe097          	auipc	ra,0xffffe
    80204c12:	340080e7          	jalr	832(ra) # 80202f4e <argstr>
    80204c16:	0ea05a63          	blez	a0,80204d0a <sys_remove+0x118>
    80204c1a:	ed840713          	addi	a4,s0,-296
    80204c1e:	157d                	addi	a0,a0,-1
    80204c20:	00a707b3          	add	a5,a4,a0
    80204c24:	02f00693          	li	a3,47
    80204c28:	863a                	mv	a2,a4
    80204c2a:	00e7e963          	bltu	a5,a4,80204c3c <sys_remove+0x4a>
    80204c2e:	0007c703          	lbu	a4,0(a5)
    80204c32:	08d71a63          	bne	a4,a3,80204cc6 <sys_remove+0xd4>
    80204c36:	17fd                	addi	a5,a5,-1
    80204c38:	fec7fbe3          	bgeu	a5,a2,80204c2e <sys_remove+0x3c>
    80204c3c:	ed840513          	addi	a0,s0,-296
    80204c40:	00002097          	auipc	ra,0x2
    80204c44:	42a080e7          	jalr	1066(ra) # 8020706a <ename>
    80204c48:	84aa                	mv	s1,a0
    80204c4a:	c561                	beqz	a0,80204d12 <sys_remove+0x120>
    80204c4c:	00002097          	auipc	ra,0x2
    80204c50:	c7e080e7          	jalr	-898(ra) # 802068ca <elock>
    80204c54:	1004c783          	lbu	a5,256(s1)
    80204c58:	8bc1                	andi	a5,a5,16
    80204c5a:	c38d                	beqz	a5,80204c7c <sys_remove+0x8a>
    80204c5c:	e8041323          	sh	zero,-378(s0)
    80204c60:	d6c40693          	addi	a3,s0,-660
    80204c64:	04000613          	li	a2,64
    80204c68:	d7040593          	addi	a1,s0,-656
    80204c6c:	8526                	mv	a0,s1
    80204c6e:	00002097          	auipc	ra,0x2
    80204c72:	e60080e7          	jalr	-416(ra) # 80206ace <enext>
    80204c76:	57fd                	li	a5,-1
    80204c78:	06f51d63          	bne	a0,a5,80204cf2 <sys_remove+0x100>
    80204c7c:	1204b503          	ld	a0,288(s1)
    80204c80:	00002097          	auipc	ra,0x2
    80204c84:	c4a080e7          	jalr	-950(ra) # 802068ca <elock>
    80204c88:	8526                	mv	a0,s1
    80204c8a:	00002097          	auipc	ra,0x2
    80204c8e:	b12080e7          	jalr	-1262(ra) # 8020679c <eremove>
    80204c92:	1204b503          	ld	a0,288(s1)
    80204c96:	00002097          	auipc	ra,0x2
    80204c9a:	c6a080e7          	jalr	-918(ra) # 80206900 <eunlock>
    80204c9e:	8526                	mv	a0,s1
    80204ca0:	00002097          	auipc	ra,0x2
    80204ca4:	c60080e7          	jalr	-928(ra) # 80206900 <eunlock>
    80204ca8:	8526                	mv	a0,s1
    80204caa:	00002097          	auipc	ra,0x2
    80204cae:	ca4080e7          	jalr	-860(ra) # 8020694e <eput>
    80204cb2:	4501                	li	a0,0
    80204cb4:	29813083          	ld	ra,664(sp)
    80204cb8:	29013403          	ld	s0,656(sp)
    80204cbc:	28813483          	ld	s1,648(sp)
    80204cc0:	2a010113          	addi	sp,sp,672
    80204cc4:	8082                	ret
    80204cc6:	ed840713          	addi	a4,s0,-296
    80204cca:	f6e7e9e3          	bltu	a5,a4,80204c3c <sys_remove+0x4a>
    80204cce:	0007c683          	lbu	a3,0(a5)
    80204cd2:	02e00713          	li	a4,46
    80204cd6:	f6e693e3          	bne	a3,a4,80204c3c <sys_remove+0x4a>
    80204cda:	ed840713          	addi	a4,s0,-296
    80204cde:	02e78863          	beq	a5,a4,80204d0e <sys_remove+0x11c>
    80204ce2:	fff7c703          	lbu	a4,-1(a5)
    80204ce6:	02f00793          	li	a5,47
    80204cea:	f4f719e3          	bne	a4,a5,80204c3c <sys_remove+0x4a>
    80204cee:	557d                	li	a0,-1
    80204cf0:	b7d1                	j	80204cb4 <sys_remove+0xc2>
    80204cf2:	8526                	mv	a0,s1
    80204cf4:	00002097          	auipc	ra,0x2
    80204cf8:	c0c080e7          	jalr	-1012(ra) # 80206900 <eunlock>
    80204cfc:	8526                	mv	a0,s1
    80204cfe:	00002097          	auipc	ra,0x2
    80204d02:	c50080e7          	jalr	-944(ra) # 8020694e <eput>
    80204d06:	557d                	li	a0,-1
    80204d08:	b775                	j	80204cb4 <sys_remove+0xc2>
    80204d0a:	557d                	li	a0,-1
    80204d0c:	b765                	j	80204cb4 <sys_remove+0xc2>
    80204d0e:	557d                	li	a0,-1
    80204d10:	b755                	j	80204cb4 <sys_remove+0xc2>
    80204d12:	557d                	li	a0,-1
    80204d14:	b745                	j	80204cb4 <sys_remove+0xc2>

0000000080204d16 <sys_rename>:
    80204d16:	c4010113          	addi	sp,sp,-960
    80204d1a:	3a113c23          	sd	ra,952(sp)
    80204d1e:	3a813823          	sd	s0,944(sp)
    80204d22:	3a913423          	sd	s1,936(sp)
    80204d26:	3b213023          	sd	s2,928(sp)
    80204d2a:	39313c23          	sd	s3,920(sp)
    80204d2e:	39413823          	sd	s4,912(sp)
    80204d32:	0780                	addi	s0,sp,960
    80204d34:	10400613          	li	a2,260
    80204d38:	ec840593          	addi	a1,s0,-312
    80204d3c:	4501                	li	a0,0
    80204d3e:	ffffe097          	auipc	ra,0xffffe
    80204d42:	210080e7          	jalr	528(ra) # 80202f4e <argstr>
    80204d46:	57fd                	li	a5,-1
    80204d48:	0c054d63          	bltz	a0,80204e22 <sys_rename+0x10c>
    80204d4c:	10400613          	li	a2,260
    80204d50:	dc040593          	addi	a1,s0,-576
    80204d54:	4505                	li	a0,1
    80204d56:	ffffe097          	auipc	ra,0xffffe
    80204d5a:	1f8080e7          	jalr	504(ra) # 80202f4e <argstr>
    80204d5e:	57fd                	li	a5,-1
    80204d60:	0c054163          	bltz	a0,80204e22 <sys_rename+0x10c>
    80204d64:	ec840513          	addi	a0,s0,-312
    80204d68:	00002097          	auipc	ra,0x2
    80204d6c:	302080e7          	jalr	770(ra) # 8020706a <ename>
    80204d70:	84aa                	mv	s1,a0
    80204d72:	1c050963          	beqz	a0,80204f44 <sys_rename+0x22e>
    80204d76:	ec840593          	addi	a1,s0,-312
    80204d7a:	dc040513          	addi	a0,s0,-576
    80204d7e:	00002097          	auipc	ra,0x2
    80204d82:	30a080e7          	jalr	778(ra) # 80207088 <enameparent>
    80204d86:	892a                	mv	s2,a0
    80204d88:	cd35                	beqz	a0,80204e04 <sys_rename+0xee>
    80204d8a:	ec840513          	addi	a0,s0,-312
    80204d8e:	00001097          	auipc	ra,0x1
    80204d92:	496080e7          	jalr	1174(ra) # 80206224 <formatname>
    80204d96:	89aa                	mv	s3,a0
    80204d98:	c535                	beqz	a0,80204e04 <sys_rename+0xee>
    80204d9a:	07248563          	beq	s1,s2,80204e04 <sys_rename+0xee>
    80204d9e:	87ca                	mv	a5,s2
    80204da0:	1207b783          	ld	a5,288(a5)
    80204da4:	c781                	beqz	a5,80204dac <sys_rename+0x96>
    80204da6:	fef49de3          	bne	s1,a5,80204da0 <sys_rename+0x8a>
    80204daa:	a8a9                	j	80204e04 <sys_rename+0xee>
    80204dac:	8526                	mv	a0,s1
    80204dae:	00002097          	auipc	ra,0x2
    80204db2:	b1c080e7          	jalr	-1252(ra) # 802068ca <elock>
    80204db6:	854a                	mv	a0,s2
    80204db8:	00002097          	auipc	ra,0x2
    80204dbc:	b12080e7          	jalr	-1262(ra) # 802068ca <elock>
    80204dc0:	dbc40613          	addi	a2,s0,-580
    80204dc4:	85ce                	mv	a1,s3
    80204dc6:	854a                	mv	a0,s2
    80204dc8:	00002097          	auipc	ra,0x2
    80204dcc:	e92080e7          	jalr	-366(ra) # 80206c5a <dirlookup>
    80204dd0:	8a2a                	mv	s4,a0
    80204dd2:	cd45                	beqz	a0,80204e8a <sys_rename+0x174>
    80204dd4:	854a                	mv	a0,s2
    80204dd6:	00002097          	auipc	ra,0x2
    80204dda:	b2a080e7          	jalr	-1238(ra) # 80206900 <eunlock>
    80204dde:	01448963          	beq	s1,s4,80204df0 <sys_rename+0xda>
    80204de2:	1004c783          	lbu	a5,256(s1)
    80204de6:	100a4703          	lbu	a4,256(s4)
    80204dea:	8ff9                	and	a5,a5,a4
    80204dec:	8bc1                	andi	a5,a5,16
    80204dee:	ebb1                	bnez	a5,80204e42 <sys_rename+0x12c>
    80204df0:	8526                	mv	a0,s1
    80204df2:	00002097          	auipc	ra,0x2
    80204df6:	b0e080e7          	jalr	-1266(ra) # 80206900 <eunlock>
    80204dfa:	8552                	mv	a0,s4
    80204dfc:	00002097          	auipc	ra,0x2
    80204e00:	b52080e7          	jalr	-1198(ra) # 8020694e <eput>
    80204e04:	00090763          	beqz	s2,80204e12 <sys_rename+0xfc>
    80204e08:	854a                	mv	a0,s2
    80204e0a:	00002097          	auipc	ra,0x2
    80204e0e:	b44080e7          	jalr	-1212(ra) # 8020694e <eput>
    80204e12:	57fd                	li	a5,-1
    80204e14:	c499                	beqz	s1,80204e22 <sys_rename+0x10c>
    80204e16:	8526                	mv	a0,s1
    80204e18:	00002097          	auipc	ra,0x2
    80204e1c:	b36080e7          	jalr	-1226(ra) # 8020694e <eput>
    80204e20:	57fd                	li	a5,-1
    80204e22:	853e                	mv	a0,a5
    80204e24:	3b813083          	ld	ra,952(sp)
    80204e28:	3b013403          	ld	s0,944(sp)
    80204e2c:	3a813483          	ld	s1,936(sp)
    80204e30:	3a013903          	ld	s2,928(sp)
    80204e34:	39813983          	ld	s3,920(sp)
    80204e38:	39013a03          	ld	s4,912(sp)
    80204e3c:	3c010113          	addi	sp,sp,960
    80204e40:	8082                	ret
    80204e42:	8552                	mv	a0,s4
    80204e44:	00002097          	auipc	ra,0x2
    80204e48:	a86080e7          	jalr	-1402(ra) # 802068ca <elock>
    80204e4c:	d6041323          	sh	zero,-666(s0)
    80204e50:	c4c40693          	addi	a3,s0,-948
    80204e54:	04000613          	li	a2,64
    80204e58:	c5040593          	addi	a1,s0,-944
    80204e5c:	8552                	mv	a0,s4
    80204e5e:	00002097          	auipc	ra,0x2
    80204e62:	c70080e7          	jalr	-912(ra) # 80206ace <enext>
    80204e66:	57fd                	li	a5,-1
    80204e68:	0cf51863          	bne	a0,a5,80204f38 <sys_rename+0x222>
    80204e6c:	854a                	mv	a0,s2
    80204e6e:	00002097          	auipc	ra,0x2
    80204e72:	a5c080e7          	jalr	-1444(ra) # 802068ca <elock>
    80204e76:	8552                	mv	a0,s4
    80204e78:	00002097          	auipc	ra,0x2
    80204e7c:	924080e7          	jalr	-1756(ra) # 8020679c <eremove>
    80204e80:	8552                	mv	a0,s4
    80204e82:	00002097          	auipc	ra,0x2
    80204e86:	a7e080e7          	jalr	-1410(ra) # 80206900 <eunlock>
    80204e8a:	0ff00613          	li	a2,255
    80204e8e:	85ce                	mv	a1,s3
    80204e90:	8526                	mv	a0,s1
    80204e92:	ffffc097          	auipc	ra,0xffffc
    80204e96:	930080e7          	jalr	-1744(ra) # 802007c2 <memmove>
    80204e9a:	dbc42603          	lw	a2,-580(s0)
    80204e9e:	85a6                	mv	a1,s1
    80204ea0:	854a                	mv	a0,s2
    80204ea2:	00001097          	auipc	ra,0x1
    80204ea6:	43a080e7          	jalr	1082(ra) # 802062dc <emake>
    80204eaa:	1204b783          	ld	a5,288(s1)
    80204eae:	01278d63          	beq	a5,s2,80204ec8 <sys_rename+0x1b2>
    80204eb2:	854a                	mv	a0,s2
    80204eb4:	00002097          	auipc	ra,0x2
    80204eb8:	a4c080e7          	jalr	-1460(ra) # 80206900 <eunlock>
    80204ebc:	1204b503          	ld	a0,288(s1)
    80204ec0:	00002097          	auipc	ra,0x2
    80204ec4:	a0a080e7          	jalr	-1526(ra) # 802068ca <elock>
    80204ec8:	8526                	mv	a0,s1
    80204eca:	00002097          	auipc	ra,0x2
    80204ece:	8d2080e7          	jalr	-1838(ra) # 8020679c <eremove>
    80204ed2:	1204b503          	ld	a0,288(s1)
    80204ed6:	00002097          	auipc	ra,0x2
    80204eda:	a2a080e7          	jalr	-1494(ra) # 80206900 <eunlock>
    80204ede:	1204b983          	ld	s3,288(s1)
    80204ee2:	854a                	mv	a0,s2
    80204ee4:	00001097          	auipc	ra,0x1
    80204ee8:	792080e7          	jalr	1938(ra) # 80206676 <edup>
    80204eec:	12a4b023          	sd	a0,288(s1)
    80204ef0:	dbc42783          	lw	a5,-580(s0)
    80204ef4:	10f4ae23          	sw	a5,284(s1)
    80204ef8:	4785                	li	a5,1
    80204efa:	10f49b23          	sh	a5,278(s1)
    80204efe:	8526                	mv	a0,s1
    80204f00:	00002097          	auipc	ra,0x2
    80204f04:	a00080e7          	jalr	-1536(ra) # 80206900 <eunlock>
    80204f08:	854e                	mv	a0,s3
    80204f0a:	00002097          	auipc	ra,0x2
    80204f0e:	a44080e7          	jalr	-1468(ra) # 8020694e <eput>
    80204f12:	000a0763          	beqz	s4,80204f20 <sys_rename+0x20a>
    80204f16:	8552                	mv	a0,s4
    80204f18:	00002097          	auipc	ra,0x2
    80204f1c:	a36080e7          	jalr	-1482(ra) # 8020694e <eput>
    80204f20:	854a                	mv	a0,s2
    80204f22:	00002097          	auipc	ra,0x2
    80204f26:	a2c080e7          	jalr	-1492(ra) # 8020694e <eput>
    80204f2a:	8526                	mv	a0,s1
    80204f2c:	00002097          	auipc	ra,0x2
    80204f30:	a22080e7          	jalr	-1502(ra) # 8020694e <eput>
    80204f34:	4781                	li	a5,0
    80204f36:	b5f5                	j	80204e22 <sys_rename+0x10c>
    80204f38:	8552                	mv	a0,s4
    80204f3a:	00002097          	auipc	ra,0x2
    80204f3e:	9c6080e7          	jalr	-1594(ra) # 80206900 <eunlock>
    80204f42:	b57d                	j	80204df0 <sys_rename+0xda>
    80204f44:	892a                	mv	s2,a0
    80204f46:	bd7d                	j	80204e04 <sys_rename+0xee>
	...

0000000080204f50 <kernelvec>:
    80204f50:	7111                	addi	sp,sp,-256
    80204f52:	e006                	sd	ra,0(sp)
    80204f54:	e40a                	sd	sp,8(sp)
    80204f56:	e80e                	sd	gp,16(sp)
    80204f58:	ec12                	sd	tp,24(sp)
    80204f5a:	f016                	sd	t0,32(sp)
    80204f5c:	f41a                	sd	t1,40(sp)
    80204f5e:	f81e                	sd	t2,48(sp)
    80204f60:	fc22                	sd	s0,56(sp)
    80204f62:	e0a6                	sd	s1,64(sp)
    80204f64:	e4aa                	sd	a0,72(sp)
    80204f66:	e8ae                	sd	a1,80(sp)
    80204f68:	ecb2                	sd	a2,88(sp)
    80204f6a:	f0b6                	sd	a3,96(sp)
    80204f6c:	f4ba                	sd	a4,104(sp)
    80204f6e:	f8be                	sd	a5,112(sp)
    80204f70:	fcc2                	sd	a6,120(sp)
    80204f72:	e146                	sd	a7,128(sp)
    80204f74:	e54a                	sd	s2,136(sp)
    80204f76:	e94e                	sd	s3,144(sp)
    80204f78:	ed52                	sd	s4,152(sp)
    80204f7a:	f156                	sd	s5,160(sp)
    80204f7c:	f55a                	sd	s6,168(sp)
    80204f7e:	f95e                	sd	s7,176(sp)
    80204f80:	fd62                	sd	s8,184(sp)
    80204f82:	e1e6                	sd	s9,192(sp)
    80204f84:	e5ea                	sd	s10,200(sp)
    80204f86:	e9ee                	sd	s11,208(sp)
    80204f88:	edf2                	sd	t3,216(sp)
    80204f8a:	f1f6                	sd	t4,224(sp)
    80204f8c:	f5fa                	sd	t5,232(sp)
    80204f8e:	f9fe                	sd	t6,240(sp)
    80204f90:	abdfd0ef          	jal	ra,80202a4c <kerneltrap>
    80204f94:	6082                	ld	ra,0(sp)
    80204f96:	6122                	ld	sp,8(sp)
    80204f98:	61c2                	ld	gp,16(sp)
    80204f9a:	7282                	ld	t0,32(sp)
    80204f9c:	7322                	ld	t1,40(sp)
    80204f9e:	73c2                	ld	t2,48(sp)
    80204fa0:	7462                	ld	s0,56(sp)
    80204fa2:	6486                	ld	s1,64(sp)
    80204fa4:	6526                	ld	a0,72(sp)
    80204fa6:	65c6                	ld	a1,80(sp)
    80204fa8:	6666                	ld	a2,88(sp)
    80204faa:	7686                	ld	a3,96(sp)
    80204fac:	7726                	ld	a4,104(sp)
    80204fae:	77c6                	ld	a5,112(sp)
    80204fb0:	7866                	ld	a6,120(sp)
    80204fb2:	688a                	ld	a7,128(sp)
    80204fb4:	692a                	ld	s2,136(sp)
    80204fb6:	69ca                	ld	s3,144(sp)
    80204fb8:	6a6a                	ld	s4,152(sp)
    80204fba:	7a8a                	ld	s5,160(sp)
    80204fbc:	7b2a                	ld	s6,168(sp)
    80204fbe:	7bca                	ld	s7,176(sp)
    80204fc0:	7c6a                	ld	s8,184(sp)
    80204fc2:	6c8e                	ld	s9,192(sp)
    80204fc4:	6d2e                	ld	s10,200(sp)
    80204fc6:	6dce                	ld	s11,208(sp)
    80204fc8:	6e6e                	ld	t3,216(sp)
    80204fca:	7e8e                	ld	t4,224(sp)
    80204fcc:	7f2e                	ld	t5,232(sp)
    80204fce:	7fce                	ld	t6,240(sp)
    80204fd0:	6111                	addi	sp,sp,256
    80204fd2:	10200073          	sret
	...

0000000080204fde <timerinit>:
    80204fde:	1141                	addi	sp,sp,-16
    80204fe0:	e406                	sd	ra,8(sp)
    80204fe2:	e022                	sd	s0,0(sp)
    80204fe4:	0800                	addi	s0,sp,16
    80204fe6:	00005597          	auipc	a1,0x5
    80204fea:	d6258593          	addi	a1,a1,-670 # 80209d48 <sysnames+0x190>
    80204fee:	00222517          	auipc	a0,0x222
    80204ff2:	5aa50513          	addi	a0,a0,1450 # 80427598 <tickslock>
    80204ff6:	ffffb097          	auipc	ra,0xffffb
    80204ffa:	68c080e7          	jalr	1676(ra) # 80200682 <initlock>
    80204ffe:	60a2                	ld	ra,8(sp)
    80205000:	6402                	ld	s0,0(sp)
    80205002:	0141                	addi	sp,sp,16
    80205004:	8082                	ret

0000000080205006 <set_next_timeout>:
    80205006:	1141                	addi	sp,sp,-16
    80205008:	e422                	sd	s0,8(sp)
    8020500a:	0800                	addi	s0,sp,16
    8020500c:	c0102573          	rdtime	a0
    80205010:	001dc7b7          	lui	a5,0x1dc
    80205014:	13078793          	addi	a5,a5,304 # 1dc130 <_entry-0x80023ed0>
    80205018:	953e                	add	a0,a0,a5
    8020501a:	4581                	li	a1,0
    8020501c:	4601                	li	a2,0
    8020501e:	4681                	li	a3,0
    80205020:	4881                	li	a7,0
    80205022:	00000073          	ecall
    80205026:	6422                	ld	s0,8(sp)
    80205028:	0141                	addi	sp,sp,16
    8020502a:	8082                	ret

000000008020502c <timer_tick>:
    8020502c:	1101                	addi	sp,sp,-32
    8020502e:	ec06                	sd	ra,24(sp)
    80205030:	e822                	sd	s0,16(sp)
    80205032:	e426                	sd	s1,8(sp)
    80205034:	1000                	addi	s0,sp,32
    80205036:	00222497          	auipc	s1,0x222
    8020503a:	56248493          	addi	s1,s1,1378 # 80427598 <tickslock>
    8020503e:	8526                	mv	a0,s1
    80205040:	ffffb097          	auipc	ra,0xffffb
    80205044:	686080e7          	jalr	1670(ra) # 802006c6 <acquire>
    80205048:	00222517          	auipc	a0,0x222
    8020504c:	56850513          	addi	a0,a0,1384 # 804275b0 <ticks>
    80205050:	411c                	lw	a5,0(a0)
    80205052:	2785                	addiw	a5,a5,1
    80205054:	c11c                	sw	a5,0(a0)
    80205056:	ffffd097          	auipc	ra,0xffffd
    8020505a:	4ce080e7          	jalr	1230(ra) # 80202524 <wakeup>
    8020505e:	8526                	mv	a0,s1
    80205060:	ffffb097          	auipc	ra,0xffffb
    80205064:	6ba080e7          	jalr	1722(ra) # 8020071a <release>
    80205068:	00000097          	auipc	ra,0x0
    8020506c:	f9e080e7          	jalr	-98(ra) # 80205006 <set_next_timeout>
    80205070:	60e2                	ld	ra,24(sp)
    80205072:	6442                	ld	s0,16(sp)
    80205074:	64a2                	ld	s1,8(sp)
    80205076:	6105                	addi	sp,sp,32
    80205078:	8082                	ret
	...

0000000080205082 <mkfs>:
    80205082:	7139                	addi	sp,sp,-64
    80205084:	fc06                	sd	ra,56(sp)
    80205086:	f822                	sd	s0,48(sp)
    80205088:	f426                	sd	s1,40(sp)
    8020508a:	f04a                	sd	s2,32(sp)
    8020508c:	ec4e                	sd	s3,24(sp)
    8020508e:	e852                	sd	s4,16(sp)
    80205090:	e456                	sd	s5,8(sp)
    80205092:	e05a                	sd	s6,0(sp)
    80205094:	0080                	addi	s0,sp,64
    80205096:	00206717          	auipc	a4,0x206
    8020509a:	f6a70713          	addi	a4,a4,-150 # 8040b000 <fs_img_end>
    8020509e:	00006797          	auipc	a5,0x6
    802050a2:	f6278793          	addi	a5,a5,-158 # 8020b000 <data_start>
    802050a6:	40f70a33          	sub	s4,a4,a5
    802050aa:	04f70763          	beq	a4,a5,802050f8 <mkfs+0x76>
    802050ae:	00222917          	auipc	s2,0x222
    802050b2:	50a90913          	addi	s2,s2,1290 # 804275b8 <ramdisk_page_pool>
    802050b6:	034a1993          	slli	s3,s4,0x34
    802050ba:	0349d993          	srli	s3,s3,0x34
    802050be:	fff83ab7          	lui	s5,0xfff83
    802050c2:	9ad2                	add	s5,s5,s4
    802050c4:	84d2                	mv	s1,s4
    802050c6:	9a3e                	add	s4,s4,a5
    802050c8:	7b7d                	lui	s6,0xfffff
    802050ca:	a019                	j	802050d0 <mkfs+0x4e>
    802050cc:	0921                	addi	s2,s2,8
    802050ce:	c48d                	beqz	s1,802050f8 <mkfs+0x76>
    802050d0:	409a05b3          	sub	a1,s4,s1
    802050d4:	00093503          	ld	a0,0(s2)
    802050d8:	01348b63          	beq	s1,s3,802050ee <mkfs+0x6c>
    802050dc:	6605                	lui	a2,0x1
    802050de:	ffffb097          	auipc	ra,0xffffb
    802050e2:	6e4080e7          	jalr	1764(ra) # 802007c2 <memmove>
    802050e6:	94da                	add	s1,s1,s6
    802050e8:	ff5492e3          	bne	s1,s5,802050cc <mkfs+0x4a>
    802050ec:	a031                	j	802050f8 <mkfs+0x76>
    802050ee:	864e                	mv	a2,s3
    802050f0:	ffffb097          	auipc	ra,0xffffb
    802050f4:	6d2080e7          	jalr	1746(ra) # 802007c2 <memmove>
    802050f8:	70e2                	ld	ra,56(sp)
    802050fa:	7442                	ld	s0,48(sp)
    802050fc:	74a2                	ld	s1,40(sp)
    802050fe:	7902                	ld	s2,32(sp)
    80205100:	69e2                	ld	s3,24(sp)
    80205102:	6a42                	ld	s4,16(sp)
    80205104:	6aa2                	ld	s5,8(sp)
    80205106:	6b02                	ld	s6,0(sp)
    80205108:	6121                	addi	sp,sp,64
    8020510a:	8082                	ret

000000008020510c <ramdisk_init>:
    8020510c:	1141                	addi	sp,sp,-16
    8020510e:	e406                	sd	ra,8(sp)
    80205110:	e022                	sd	s0,0(sp)
    80205112:	0800                	addi	s0,sp,16
    80205114:	00005597          	auipc	a1,0x5
    80205118:	c3c58593          	addi	a1,a1,-964 # 80209d50 <sysnames+0x198>
    8020511c:	00223517          	auipc	a0,0x223
    80205120:	88450513          	addi	a0,a0,-1916 # 804279a0 <ramdisklock>
    80205124:	ffffb097          	auipc	ra,0xffffb
    80205128:	55e080e7          	jalr	1374(ra) # 80200682 <initlock>
    8020512c:	60a2                	ld	ra,8(sp)
    8020512e:	6402                	ld	s0,0(sp)
    80205130:	0141                	addi	sp,sp,16
    80205132:	8082                	ret

0000000080205134 <ramdisk_rw>:
    80205134:	1101                	addi	sp,sp,-32
    80205136:	ec06                	sd	ra,24(sp)
    80205138:	e822                	sd	s0,16(sp)
    8020513a:	e426                	sd	s1,8(sp)
    8020513c:	e04a                	sd	s2,0(sp)
    8020513e:	1000                	addi	s0,sp,32
    80205140:	84aa                	mv	s1,a0
    80205142:	892e                	mv	s2,a1
    80205144:	00223517          	auipc	a0,0x223
    80205148:	85c50513          	addi	a0,a0,-1956 # 804279a0 <ramdisklock>
    8020514c:	ffffb097          	auipc	ra,0xffffb
    80205150:	57a080e7          	jalr	1402(ra) # 802006c6 <acquire>
    80205154:	44dc                	lw	a5,12(s1)
    80205156:	4498                	lw	a4,8(s1)
    80205158:	e331                	bnez	a4,8020519c <ramdisk_rw+0x68>
    8020515a:	0097979b          	slliw	a5,a5,0x9
    8020515e:	1782                	slli	a5,a5,0x20
    80205160:	9381                	srli	a5,a5,0x20
    80205162:	00006517          	auipc	a0,0x6
    80205166:	e9e50513          	addi	a0,a0,-354 # 8020b000 <data_start>
    8020516a:	953e                	add	a0,a0,a5
    8020516c:	04090063          	beqz	s2,802051ac <ramdisk_rw+0x78>
    80205170:	20000613          	li	a2,512
    80205174:	05848593          	addi	a1,s1,88
    80205178:	ffffb097          	auipc	ra,0xffffb
    8020517c:	64a080e7          	jalr	1610(ra) # 802007c2 <memmove>
    80205180:	00223517          	auipc	a0,0x223
    80205184:	82050513          	addi	a0,a0,-2016 # 804279a0 <ramdisklock>
    80205188:	ffffb097          	auipc	ra,0xffffb
    8020518c:	592080e7          	jalr	1426(ra) # 8020071a <release>
    80205190:	60e2                	ld	ra,24(sp)
    80205192:	6442                	ld	s0,16(sp)
    80205194:	64a2                	ld	s1,8(sp)
    80205196:	6902                	ld	s2,0(sp)
    80205198:	6105                	addi	sp,sp,32
    8020519a:	8082                	ret
    8020519c:	00005517          	auipc	a0,0x5
    802051a0:	bc450513          	addi	a0,a0,-1084 # 80209d60 <sysnames+0x1a8>
    802051a4:	ffffb097          	auipc	ra,0xffffb
    802051a8:	fa0080e7          	jalr	-96(ra) # 80200144 <panic>
    802051ac:	20000613          	li	a2,512
    802051b0:	85aa                	mv	a1,a0
    802051b2:	05848513          	addi	a0,s1,88
    802051b6:	ffffb097          	auipc	ra,0xffffb
    802051ba:	60c080e7          	jalr	1548(ra) # 802007c2 <memmove>
    802051be:	b7c9                	j	80205180 <ramdisk_rw+0x4c>

00000000802051c0 <ramdisk_intr>:
    802051c0:	1141                	addi	sp,sp,-16
    802051c2:	e406                	sd	ra,8(sp)
    802051c4:	e022                	sd	s0,0(sp)
    802051c6:	0800                	addi	s0,sp,16
    802051c8:	00222517          	auipc	a0,0x222
    802051cc:	7d850513          	addi	a0,a0,2008 # 804279a0 <ramdisklock>
    802051d0:	ffffb097          	auipc	ra,0xffffb
    802051d4:	4f6080e7          	jalr	1270(ra) # 802006c6 <acquire>
    802051d8:	60a2                	ld	ra,8(sp)
    802051da:	6402                	ld	s0,0(sp)
    802051dc:	0141                	addi	sp,sp,16
    802051de:	8082                	ret

00000000802051e0 <free_desc>:
    802051e0:	1141                	addi	sp,sp,-16
    802051e2:	e406                	sd	ra,8(sp)
    802051e4:	e022                	sd	s0,0(sp)
    802051e6:	0800                	addi	s0,sp,16
    802051e8:	479d                	li	a5,7
    802051ea:	04a7cc63          	blt	a5,a0,80205242 <free_desc+0x62>
    802051ee:	00223797          	auipc	a5,0x223
    802051f2:	e1278793          	addi	a5,a5,-494 # 80428000 <disk>
    802051f6:	00a78733          	add	a4,a5,a0
    802051fa:	6789                	lui	a5,0x2
    802051fc:	97ba                	add	a5,a5,a4
    802051fe:	0187c783          	lbu	a5,24(a5) # 2018 <_entry-0x801fdfe8>
    80205202:	eba1                	bnez	a5,80205252 <free_desc+0x72>
    80205204:	00451713          	slli	a4,a0,0x4
    80205208:	00225797          	auipc	a5,0x225
    8020520c:	df87b783          	ld	a5,-520(a5) # 8042a000 <disk+0x2000>
    80205210:	97ba                	add	a5,a5,a4
    80205212:	0007b023          	sd	zero,0(a5)
    80205216:	00223797          	auipc	a5,0x223
    8020521a:	dea78793          	addi	a5,a5,-534 # 80428000 <disk>
    8020521e:	97aa                	add	a5,a5,a0
    80205220:	6509                	lui	a0,0x2
    80205222:	953e                	add	a0,a0,a5
    80205224:	4785                	li	a5,1
    80205226:	00f50c23          	sb	a5,24(a0) # 2018 <_entry-0x801fdfe8>
    8020522a:	00225517          	auipc	a0,0x225
    8020522e:	dee50513          	addi	a0,a0,-530 # 8042a018 <disk+0x2018>
    80205232:	ffffd097          	auipc	ra,0xffffd
    80205236:	2f2080e7          	jalr	754(ra) # 80202524 <wakeup>
    8020523a:	60a2                	ld	ra,8(sp)
    8020523c:	6402                	ld	s0,0(sp)
    8020523e:	0141                	addi	sp,sp,16
    80205240:	8082                	ret
    80205242:	00005517          	auipc	a0,0x5
    80205246:	b3650513          	addi	a0,a0,-1226 # 80209d78 <sysnames+0x1c0>
    8020524a:	ffffb097          	auipc	ra,0xffffb
    8020524e:	efa080e7          	jalr	-262(ra) # 80200144 <panic>
    80205252:	00005517          	auipc	a0,0x5
    80205256:	b3e50513          	addi	a0,a0,-1218 # 80209d90 <sysnames+0x1d8>
    8020525a:	ffffb097          	auipc	ra,0xffffb
    8020525e:	eea080e7          	jalr	-278(ra) # 80200144 <panic>

0000000080205262 <virtio_disk_init>:
    80205262:	1141                	addi	sp,sp,-16
    80205264:	e406                	sd	ra,8(sp)
    80205266:	e022                	sd	s0,0(sp)
    80205268:	0800                	addi	s0,sp,16
    8020526a:	00005597          	auipc	a1,0x5
    8020526e:	b3e58593          	addi	a1,a1,-1218 # 80209da8 <sysnames+0x1f0>
    80205272:	00225517          	auipc	a0,0x225
    80205276:	e3650513          	addi	a0,a0,-458 # 8042a0a8 <disk+0x20a8>
    8020527a:	ffffb097          	auipc	ra,0xffffb
    8020527e:	408080e7          	jalr	1032(ra) # 80200682 <initlock>
    80205282:	03f107b7          	lui	a5,0x3f10
    80205286:	0785                	addi	a5,a5,1
    80205288:	07b2                	slli	a5,a5,0xc
    8020528a:	4398                	lw	a4,0(a5)
    8020528c:	2701                	sext.w	a4,a4
    8020528e:	747277b7          	lui	a5,0x74727
    80205292:	97678793          	addi	a5,a5,-1674 # 74726976 <_entry-0xbad968a>
    80205296:	12f71263          	bne	a4,a5,802053ba <virtio_disk_init+0x158>
    8020529a:	00005797          	auipc	a5,0x5
    8020529e:	cfe7b783          	ld	a5,-770(a5) # 80209f98 <erodata+0x3>
    802052a2:	439c                	lw	a5,0(a5)
    802052a4:	2781                	sext.w	a5,a5
    802052a6:	4705                	li	a4,1
    802052a8:	10e79963          	bne	a5,a4,802053ba <virtio_disk_init+0x158>
    802052ac:	00005797          	auipc	a5,0x5
    802052b0:	cf47b783          	ld	a5,-780(a5) # 80209fa0 <erodata+0xb>
    802052b4:	439c                	lw	a5,0(a5)
    802052b6:	2781                	sext.w	a5,a5
    802052b8:	4709                	li	a4,2
    802052ba:	10e79063          	bne	a5,a4,802053ba <virtio_disk_init+0x158>
    802052be:	00005797          	auipc	a5,0x5
    802052c2:	cea7b783          	ld	a5,-790(a5) # 80209fa8 <erodata+0x13>
    802052c6:	4398                	lw	a4,0(a5)
    802052c8:	2701                	sext.w	a4,a4
    802052ca:	554d47b7          	lui	a5,0x554d4
    802052ce:	55178793          	addi	a5,a5,1361 # 554d4551 <_entry-0x2ad2baaf>
    802052d2:	0ef71463          	bne	a4,a5,802053ba <virtio_disk_init+0x158>
    802052d6:	00005717          	auipc	a4,0x5
    802052da:	cda73703          	ld	a4,-806(a4) # 80209fb0 <erodata+0x1b>
    802052de:	4785                	li	a5,1
    802052e0:	c31c                	sw	a5,0(a4)
    802052e2:	478d                	li	a5,3
    802052e4:	c31c                	sw	a5,0(a4)
    802052e6:	00005797          	auipc	a5,0x5
    802052ea:	cd27b783          	ld	a5,-814(a5) # 80209fb8 <erodata+0x23>
    802052ee:	4394                	lw	a3,0(a5)
    802052f0:	c7ffe7b7          	lui	a5,0xc7ffe
    802052f4:	75f78793          	addi	a5,a5,1887 # ffffffffc7ffe75f <kernel_end+0xffffffff47bce75f>
    802052f8:	8ff5                	and	a5,a5,a3
    802052fa:	2781                	sext.w	a5,a5
    802052fc:	00005697          	auipc	a3,0x5
    80205300:	cc46b683          	ld	a3,-828(a3) # 80209fc0 <erodata+0x2b>
    80205304:	c29c                	sw	a5,0(a3)
    80205306:	47ad                	li	a5,11
    80205308:	c31c                	sw	a5,0(a4)
    8020530a:	47bd                	li	a5,15
    8020530c:	c31c                	sw	a5,0(a4)
    8020530e:	00005797          	auipc	a5,0x5
    80205312:	cba7b783          	ld	a5,-838(a5) # 80209fc8 <erodata+0x33>
    80205316:	6705                	lui	a4,0x1
    80205318:	c398                	sw	a4,0(a5)
    8020531a:	00005797          	auipc	a5,0x5
    8020531e:	cb67b783          	ld	a5,-842(a5) # 80209fd0 <erodata+0x3b>
    80205322:	0007a023          	sw	zero,0(a5)
    80205326:	00005797          	auipc	a5,0x5
    8020532a:	cb27b783          	ld	a5,-846(a5) # 80209fd8 <erodata+0x43>
    8020532e:	439c                	lw	a5,0(a5)
    80205330:	2781                	sext.w	a5,a5
    80205332:	cfc1                	beqz	a5,802053ca <virtio_disk_init+0x168>
    80205334:	471d                	li	a4,7
    80205336:	0af77263          	bgeu	a4,a5,802053da <virtio_disk_init+0x178>
    8020533a:	00005797          	auipc	a5,0x5
    8020533e:	ca67b783          	ld	a5,-858(a5) # 80209fe0 <erodata+0x4b>
    80205342:	4721                	li	a4,8
    80205344:	c398                	sw	a4,0(a5)
    80205346:	6609                	lui	a2,0x2
    80205348:	4581                	li	a1,0
    8020534a:	00223517          	auipc	a0,0x223
    8020534e:	cb650513          	addi	a0,a0,-842 # 80428000 <disk>
    80205352:	ffffb097          	auipc	ra,0xffffb
    80205356:	410080e7          	jalr	1040(ra) # 80200762 <memset>
    8020535a:	00223717          	auipc	a4,0x223
    8020535e:	ca670713          	addi	a4,a4,-858 # 80428000 <disk>
    80205362:	00c75793          	srli	a5,a4,0xc
    80205366:	2781                	sext.w	a5,a5
    80205368:	00005697          	auipc	a3,0x5
    8020536c:	c806b683          	ld	a3,-896(a3) # 80209fe8 <erodata+0x53>
    80205370:	c29c                	sw	a5,0(a3)
    80205372:	00225797          	auipc	a5,0x225
    80205376:	c8e78793          	addi	a5,a5,-882 # 8042a000 <disk+0x2000>
    8020537a:	e398                	sd	a4,0(a5)
    8020537c:	00223717          	auipc	a4,0x223
    80205380:	d0470713          	addi	a4,a4,-764 # 80428080 <disk+0x80>
    80205384:	e798                	sd	a4,8(a5)
    80205386:	00224717          	auipc	a4,0x224
    8020538a:	c7a70713          	addi	a4,a4,-902 # 80429000 <disk+0x1000>
    8020538e:	eb98                	sd	a4,16(a5)
    80205390:	4705                	li	a4,1
    80205392:	00e78c23          	sb	a4,24(a5)
    80205396:	00e78ca3          	sb	a4,25(a5)
    8020539a:	00e78d23          	sb	a4,26(a5)
    8020539e:	00e78da3          	sb	a4,27(a5)
    802053a2:	00e78e23          	sb	a4,28(a5)
    802053a6:	00e78ea3          	sb	a4,29(a5)
    802053aa:	00e78f23          	sb	a4,30(a5)
    802053ae:	00e78fa3          	sb	a4,31(a5)
    802053b2:	60a2                	ld	ra,8(sp)
    802053b4:	6402                	ld	s0,0(sp)
    802053b6:	0141                	addi	sp,sp,16
    802053b8:	8082                	ret
    802053ba:	00005517          	auipc	a0,0x5
    802053be:	9fe50513          	addi	a0,a0,-1538 # 80209db8 <sysnames+0x200>
    802053c2:	ffffb097          	auipc	ra,0xffffb
    802053c6:	d82080e7          	jalr	-638(ra) # 80200144 <panic>
    802053ca:	00005517          	auipc	a0,0x5
    802053ce:	a0e50513          	addi	a0,a0,-1522 # 80209dd8 <sysnames+0x220>
    802053d2:	ffffb097          	auipc	ra,0xffffb
    802053d6:	d72080e7          	jalr	-654(ra) # 80200144 <panic>
    802053da:	00005517          	auipc	a0,0x5
    802053de:	a1e50513          	addi	a0,a0,-1506 # 80209df8 <sysnames+0x240>
    802053e2:	ffffb097          	auipc	ra,0xffffb
    802053e6:	d62080e7          	jalr	-670(ra) # 80200144 <panic>

00000000802053ea <virtio_disk_rw>:
    802053ea:	7119                	addi	sp,sp,-128
    802053ec:	fc86                	sd	ra,120(sp)
    802053ee:	f8a2                	sd	s0,112(sp)
    802053f0:	f4a6                	sd	s1,104(sp)
    802053f2:	f0ca                	sd	s2,96(sp)
    802053f4:	ecce                	sd	s3,88(sp)
    802053f6:	e8d2                	sd	s4,80(sp)
    802053f8:	e4d6                	sd	s5,72(sp)
    802053fa:	e0da                	sd	s6,64(sp)
    802053fc:	fc5e                	sd	s7,56(sp)
    802053fe:	f862                	sd	s8,48(sp)
    80205400:	f466                	sd	s9,40(sp)
    80205402:	f06a                	sd	s10,32(sp)
    80205404:	0100                	addi	s0,sp,128
    80205406:	892a                	mv	s2,a0
    80205408:	8cae                	mv	s9,a1
    8020540a:	00c56d03          	lwu	s10,12(a0)
    8020540e:	00225517          	auipc	a0,0x225
    80205412:	c9a50513          	addi	a0,a0,-870 # 8042a0a8 <disk+0x20a8>
    80205416:	ffffb097          	auipc	ra,0xffffb
    8020541a:	2b0080e7          	jalr	688(ra) # 802006c6 <acquire>
    8020541e:	4981                	li	s3,0
    80205420:	4c21                	li	s8,8
    80205422:	00223b97          	auipc	s7,0x223
    80205426:	bdeb8b93          	addi	s7,s7,-1058 # 80428000 <disk>
    8020542a:	6b09                	lui	s6,0x2
    8020542c:	4a8d                	li	s5,3
    8020542e:	8a4e                	mv	s4,s3
    80205430:	a051                	j	802054b4 <virtio_disk_rw+0xca>
    80205432:	00fb86b3          	add	a3,s7,a5
    80205436:	96da                	add	a3,a3,s6
    80205438:	00068c23          	sb	zero,24(a3)
    8020543c:	c21c                	sw	a5,0(a2)
    8020543e:	0207c563          	bltz	a5,80205468 <virtio_disk_rw+0x7e>
    80205442:	2485                	addiw	s1,s1,1
    80205444:	0711                	addi	a4,a4,4
    80205446:	25548463          	beq	s1,s5,8020568e <virtio_disk_rw+0x2a4>
    8020544a:	863a                	mv	a2,a4
    8020544c:	00225697          	auipc	a3,0x225
    80205450:	bcc68693          	addi	a3,a3,-1076 # 8042a018 <disk+0x2018>
    80205454:	87d2                	mv	a5,s4
    80205456:	0006c583          	lbu	a1,0(a3)
    8020545a:	fde1                	bnez	a1,80205432 <virtio_disk_rw+0x48>
    8020545c:	2785                	addiw	a5,a5,1
    8020545e:	0685                	addi	a3,a3,1
    80205460:	ff879be3          	bne	a5,s8,80205456 <virtio_disk_rw+0x6c>
    80205464:	57fd                	li	a5,-1
    80205466:	c21c                	sw	a5,0(a2)
    80205468:	02905a63          	blez	s1,8020549c <virtio_disk_rw+0xb2>
    8020546c:	f9042503          	lw	a0,-112(s0)
    80205470:	00000097          	auipc	ra,0x0
    80205474:	d70080e7          	jalr	-656(ra) # 802051e0 <free_desc>
    80205478:	4785                	li	a5,1
    8020547a:	0297d163          	bge	a5,s1,8020549c <virtio_disk_rw+0xb2>
    8020547e:	f9442503          	lw	a0,-108(s0)
    80205482:	00000097          	auipc	ra,0x0
    80205486:	d5e080e7          	jalr	-674(ra) # 802051e0 <free_desc>
    8020548a:	4789                	li	a5,2
    8020548c:	0097d863          	bge	a5,s1,8020549c <virtio_disk_rw+0xb2>
    80205490:	f9842503          	lw	a0,-104(s0)
    80205494:	00000097          	auipc	ra,0x0
    80205498:	d4c080e7          	jalr	-692(ra) # 802051e0 <free_desc>
    8020549c:	00225597          	auipc	a1,0x225
    802054a0:	c0c58593          	addi	a1,a1,-1012 # 8042a0a8 <disk+0x20a8>
    802054a4:	00225517          	auipc	a0,0x225
    802054a8:	b7450513          	addi	a0,a0,-1164 # 8042a018 <disk+0x2018>
    802054ac:	ffffd097          	auipc	ra,0xffffd
    802054b0:	ef6080e7          	jalr	-266(ra) # 802023a2 <sleep>
    802054b4:	f9040713          	addi	a4,s0,-112
    802054b8:	84ce                	mv	s1,s3
    802054ba:	bf41                	j	8020544a <virtio_disk_rw+0x60>
    802054bc:	4785                	li	a5,1
    802054be:	f8f42023          	sw	a5,-128(s0)
    802054c2:	f8042223          	sw	zero,-124(s0)
    802054c6:	f9a43423          	sd	s10,-120(s0)
    802054ca:	ffffc097          	auipc	ra,0xffffc
    802054ce:	66e080e7          	jalr	1646(ra) # 80201b38 <myproc>
    802054d2:	f9042983          	lw	s3,-112(s0)
    802054d6:	00499493          	slli	s1,s3,0x4
    802054da:	00225a17          	auipc	s4,0x225
    802054de:	b26a0a13          	addi	s4,s4,-1242 # 8042a000 <disk+0x2000>
    802054e2:	000a3a83          	ld	s5,0(s4)
    802054e6:	9aa6                	add	s5,s5,s1
    802054e8:	f8040593          	addi	a1,s0,-128
    802054ec:	6d28                	ld	a0,88(a0)
    802054ee:	ffffb097          	auipc	ra,0xffffb
    802054f2:	764080e7          	jalr	1892(ra) # 80200c52 <kwalkaddr>
    802054f6:	00aab023          	sd	a0,0(s5) # fffffffffff83000 <kernel_end+0xffffffff7fb53000>
    802054fa:	000a3783          	ld	a5,0(s4)
    802054fe:	97a6                	add	a5,a5,s1
    80205500:	4741                	li	a4,16
    80205502:	c798                	sw	a4,8(a5)
    80205504:	000a3783          	ld	a5,0(s4)
    80205508:	97a6                	add	a5,a5,s1
    8020550a:	4705                	li	a4,1
    8020550c:	00e79623          	sh	a4,12(a5)
    80205510:	f9442703          	lw	a4,-108(s0)
    80205514:	000a3783          	ld	a5,0(s4)
    80205518:	97a6                	add	a5,a5,s1
    8020551a:	00e79723          	sh	a4,14(a5)
    8020551e:	0712                	slli	a4,a4,0x4
    80205520:	000a3783          	ld	a5,0(s4)
    80205524:	97ba                	add	a5,a5,a4
    80205526:	05890693          	addi	a3,s2,88
    8020552a:	e394                	sd	a3,0(a5)
    8020552c:	000a3783          	ld	a5,0(s4)
    80205530:	97ba                	add	a5,a5,a4
    80205532:	20000693          	li	a3,512
    80205536:	c794                	sw	a3,8(a5)
    80205538:	100c8c63          	beqz	s9,80205650 <virtio_disk_rw+0x266>
    8020553c:	00225797          	auipc	a5,0x225
    80205540:	ac47b783          	ld	a5,-1340(a5) # 8042a000 <disk+0x2000>
    80205544:	97ba                	add	a5,a5,a4
    80205546:	00079623          	sh	zero,12(a5)
    8020554a:	00223517          	auipc	a0,0x223
    8020554e:	ab650513          	addi	a0,a0,-1354 # 80428000 <disk>
    80205552:	00225797          	auipc	a5,0x225
    80205556:	aae78793          	addi	a5,a5,-1362 # 8042a000 <disk+0x2000>
    8020555a:	6394                	ld	a3,0(a5)
    8020555c:	96ba                	add	a3,a3,a4
    8020555e:	00c6d603          	lhu	a2,12(a3)
    80205562:	00166613          	ori	a2,a2,1
    80205566:	00c69623          	sh	a2,12(a3)
    8020556a:	f9842683          	lw	a3,-104(s0)
    8020556e:	6390                	ld	a2,0(a5)
    80205570:	9732                	add	a4,a4,a2
    80205572:	00d71723          	sh	a3,14(a4)
    80205576:	20098613          	addi	a2,s3,512
    8020557a:	0612                	slli	a2,a2,0x4
    8020557c:	962a                	add	a2,a2,a0
    8020557e:	02060823          	sb	zero,48(a2) # 2030 <_entry-0x801fdfd0>
    80205582:	00469713          	slli	a4,a3,0x4
    80205586:	6394                	ld	a3,0(a5)
    80205588:	96ba                	add	a3,a3,a4
    8020558a:	6589                	lui	a1,0x2
    8020558c:	03058593          	addi	a1,a1,48 # 2030 <_entry-0x801fdfd0>
    80205590:	94ae                	add	s1,s1,a1
    80205592:	94aa                	add	s1,s1,a0
    80205594:	e284                	sd	s1,0(a3)
    80205596:	6394                	ld	a3,0(a5)
    80205598:	96ba                	add	a3,a3,a4
    8020559a:	4585                	li	a1,1
    8020559c:	c68c                	sw	a1,8(a3)
    8020559e:	6394                	ld	a3,0(a5)
    802055a0:	96ba                	add	a3,a3,a4
    802055a2:	4509                	li	a0,2
    802055a4:	00a69623          	sh	a0,12(a3)
    802055a8:	6394                	ld	a3,0(a5)
    802055aa:	9736                	add	a4,a4,a3
    802055ac:	00071723          	sh	zero,14(a4)
    802055b0:	00b92223          	sw	a1,4(s2)
    802055b4:	03263423          	sd	s2,40(a2)
    802055b8:	6794                	ld	a3,8(a5)
    802055ba:	0026d703          	lhu	a4,2(a3)
    802055be:	8b1d                	andi	a4,a4,7
    802055c0:	2709                	addiw	a4,a4,2
    802055c2:	0706                	slli	a4,a4,0x1
    802055c4:	9736                	add	a4,a4,a3
    802055c6:	01371023          	sh	s3,0(a4)
    802055ca:	0ff0000f          	fence
    802055ce:	6798                	ld	a4,8(a5)
    802055d0:	00275783          	lhu	a5,2(a4)
    802055d4:	2785                	addiw	a5,a5,1
    802055d6:	00f71123          	sh	a5,2(a4)
    802055da:	00005797          	auipc	a5,0x5
    802055de:	a167b783          	ld	a5,-1514(a5) # 80209ff0 <erodata+0x5b>
    802055e2:	0007a023          	sw	zero,0(a5)
    802055e6:	00492703          	lw	a4,4(s2)
    802055ea:	4785                	li	a5,1
    802055ec:	02f71163          	bne	a4,a5,8020560e <virtio_disk_rw+0x224>
    802055f0:	00225997          	auipc	s3,0x225
    802055f4:	ab898993          	addi	s3,s3,-1352 # 8042a0a8 <disk+0x20a8>
    802055f8:	4485                	li	s1,1
    802055fa:	85ce                	mv	a1,s3
    802055fc:	854a                	mv	a0,s2
    802055fe:	ffffd097          	auipc	ra,0xffffd
    80205602:	da4080e7          	jalr	-604(ra) # 802023a2 <sleep>
    80205606:	00492783          	lw	a5,4(s2)
    8020560a:	fe9788e3          	beq	a5,s1,802055fa <virtio_disk_rw+0x210>
    8020560e:	f9042483          	lw	s1,-112(s0)
    80205612:	20048793          	addi	a5,s1,512
    80205616:	00479713          	slli	a4,a5,0x4
    8020561a:	00223797          	auipc	a5,0x223
    8020561e:	9e678793          	addi	a5,a5,-1562 # 80428000 <disk>
    80205622:	97ba                	add	a5,a5,a4
    80205624:	0207b423          	sd	zero,40(a5)
    80205628:	00225917          	auipc	s2,0x225
    8020562c:	9d890913          	addi	s2,s2,-1576 # 8042a000 <disk+0x2000>
    80205630:	8526                	mv	a0,s1
    80205632:	00000097          	auipc	ra,0x0
    80205636:	bae080e7          	jalr	-1106(ra) # 802051e0 <free_desc>
    8020563a:	0492                	slli	s1,s1,0x4
    8020563c:	00093783          	ld	a5,0(s2)
    80205640:	94be                	add	s1,s1,a5
    80205642:	00c4d783          	lhu	a5,12(s1)
    80205646:	8b85                	andi	a5,a5,1
    80205648:	cf89                	beqz	a5,80205662 <virtio_disk_rw+0x278>
    8020564a:	00e4d483          	lhu	s1,14(s1)
    8020564e:	b7cd                	j	80205630 <virtio_disk_rw+0x246>
    80205650:	00225797          	auipc	a5,0x225
    80205654:	9b07b783          	ld	a5,-1616(a5) # 8042a000 <disk+0x2000>
    80205658:	97ba                	add	a5,a5,a4
    8020565a:	4689                	li	a3,2
    8020565c:	00d79623          	sh	a3,12(a5)
    80205660:	b5ed                	j	8020554a <virtio_disk_rw+0x160>
    80205662:	00225517          	auipc	a0,0x225
    80205666:	a4650513          	addi	a0,a0,-1466 # 8042a0a8 <disk+0x20a8>
    8020566a:	ffffb097          	auipc	ra,0xffffb
    8020566e:	0b0080e7          	jalr	176(ra) # 8020071a <release>
    80205672:	70e6                	ld	ra,120(sp)
    80205674:	7446                	ld	s0,112(sp)
    80205676:	74a6                	ld	s1,104(sp)
    80205678:	7906                	ld	s2,96(sp)
    8020567a:	69e6                	ld	s3,88(sp)
    8020567c:	6a46                	ld	s4,80(sp)
    8020567e:	6aa6                	ld	s5,72(sp)
    80205680:	6b06                	ld	s6,64(sp)
    80205682:	7be2                	ld	s7,56(sp)
    80205684:	7c42                	ld	s8,48(sp)
    80205686:	7ca2                	ld	s9,40(sp)
    80205688:	7d02                	ld	s10,32(sp)
    8020568a:	6109                	addi	sp,sp,128
    8020568c:	8082                	ret
    8020568e:	e20c97e3          	bnez	s9,802054bc <virtio_disk_rw+0xd2>
    80205692:	f8042023          	sw	zero,-128(s0)
    80205696:	b535                	j	802054c2 <virtio_disk_rw+0xd8>

0000000080205698 <virtio_disk_intr>:
    80205698:	1101                	addi	sp,sp,-32
    8020569a:	ec06                	sd	ra,24(sp)
    8020569c:	e822                	sd	s0,16(sp)
    8020569e:	e426                	sd	s1,8(sp)
    802056a0:	e04a                	sd	s2,0(sp)
    802056a2:	1000                	addi	s0,sp,32
    802056a4:	00225517          	auipc	a0,0x225
    802056a8:	a0450513          	addi	a0,a0,-1532 # 8042a0a8 <disk+0x20a8>
    802056ac:	ffffb097          	auipc	ra,0xffffb
    802056b0:	01a080e7          	jalr	26(ra) # 802006c6 <acquire>
    802056b4:	00225717          	auipc	a4,0x225
    802056b8:	94c70713          	addi	a4,a4,-1716 # 8042a000 <disk+0x2000>
    802056bc:	02075783          	lhu	a5,32(a4)
    802056c0:	6b18                	ld	a4,16(a4)
    802056c2:	00275683          	lhu	a3,2(a4)
    802056c6:	8ebd                	xor	a3,a3,a5
    802056c8:	8a9d                	andi	a3,a3,7
    802056ca:	cab9                	beqz	a3,80205720 <virtio_disk_intr+0x88>
    802056cc:	00223917          	auipc	s2,0x223
    802056d0:	93490913          	addi	s2,s2,-1740 # 80428000 <disk>
    802056d4:	00225497          	auipc	s1,0x225
    802056d8:	92c48493          	addi	s1,s1,-1748 # 8042a000 <disk+0x2000>
    802056dc:	078e                	slli	a5,a5,0x3
    802056de:	97ba                	add	a5,a5,a4
    802056e0:	43dc                	lw	a5,4(a5)
    802056e2:	20078713          	addi	a4,a5,512
    802056e6:	0712                	slli	a4,a4,0x4
    802056e8:	974a                	add	a4,a4,s2
    802056ea:	03074703          	lbu	a4,48(a4)
    802056ee:	e335                	bnez	a4,80205752 <virtio_disk_intr+0xba>
    802056f0:	20078793          	addi	a5,a5,512
    802056f4:	0792                	slli	a5,a5,0x4
    802056f6:	97ca                	add	a5,a5,s2
    802056f8:	7798                	ld	a4,40(a5)
    802056fa:	00072223          	sw	zero,4(a4)
    802056fe:	7788                	ld	a0,40(a5)
    80205700:	ffffd097          	auipc	ra,0xffffd
    80205704:	e24080e7          	jalr	-476(ra) # 80202524 <wakeup>
    80205708:	0204d783          	lhu	a5,32(s1)
    8020570c:	2785                	addiw	a5,a5,1
    8020570e:	8b9d                	andi	a5,a5,7
    80205710:	02f49023          	sh	a5,32(s1)
    80205714:	6898                	ld	a4,16(s1)
    80205716:	00275683          	lhu	a3,2(a4)
    8020571a:	8a9d                	andi	a3,a3,7
    8020571c:	fcf690e3          	bne	a3,a5,802056dc <virtio_disk_intr+0x44>
    80205720:	00005797          	auipc	a5,0x5
    80205724:	8d87b783          	ld	a5,-1832(a5) # 80209ff8 <erodata+0x63>
    80205728:	439c                	lw	a5,0(a5)
    8020572a:	8b8d                	andi	a5,a5,3
    8020572c:	00005717          	auipc	a4,0x5
    80205730:	8d473703          	ld	a4,-1836(a4) # 8020a000 <erodata+0x6b>
    80205734:	c31c                	sw	a5,0(a4)
    80205736:	00225517          	auipc	a0,0x225
    8020573a:	97250513          	addi	a0,a0,-1678 # 8042a0a8 <disk+0x20a8>
    8020573e:	ffffb097          	auipc	ra,0xffffb
    80205742:	fdc080e7          	jalr	-36(ra) # 8020071a <release>
    80205746:	60e2                	ld	ra,24(sp)
    80205748:	6442                	ld	s0,16(sp)
    8020574a:	64a2                	ld	s1,8(sp)
    8020574c:	6902                	ld	s2,0(sp)
    8020574e:	6105                	addi	sp,sp,32
    80205750:	8082                	ret
    80205752:	00004517          	auipc	a0,0x4
    80205756:	6c650513          	addi	a0,a0,1734 # 80209e18 <sysnames+0x260>
    8020575a:	ffffb097          	auipc	ra,0xffffb
    8020575e:	9ea080e7          	jalr	-1558(ra) # 80200144 <panic>

0000000080205762 <disk_init>:
    80205762:	1141                	addi	sp,sp,-16
    80205764:	e406                	sd	ra,8(sp)
    80205766:	e022                	sd	s0,0(sp)
    80205768:	0800                	addi	s0,sp,16
    8020576a:	00000097          	auipc	ra,0x0
    8020576e:	9a2080e7          	jalr	-1630(ra) # 8020510c <ramdisk_init>
    80205772:	60a2                	ld	ra,8(sp)
    80205774:	6402                	ld	s0,0(sp)
    80205776:	0141                	addi	sp,sp,16
    80205778:	8082                	ret

000000008020577a <disk_read>:
    8020577a:	1141                	addi	sp,sp,-16
    8020577c:	e406                	sd	ra,8(sp)
    8020577e:	e022                	sd	s0,0(sp)
    80205780:	0800                	addi	s0,sp,16
    80205782:	4581                	li	a1,0
    80205784:	00000097          	auipc	ra,0x0
    80205788:	9b0080e7          	jalr	-1616(ra) # 80205134 <ramdisk_rw>
    8020578c:	60a2                	ld	ra,8(sp)
    8020578e:	6402                	ld	s0,0(sp)
    80205790:	0141                	addi	sp,sp,16
    80205792:	8082                	ret

0000000080205794 <disk_write>:
    80205794:	1141                	addi	sp,sp,-16
    80205796:	e406                	sd	ra,8(sp)
    80205798:	e022                	sd	s0,0(sp)
    8020579a:	0800                	addi	s0,sp,16
    8020579c:	4585                	li	a1,1
    8020579e:	00000097          	auipc	ra,0x0
    802057a2:	996080e7          	jalr	-1642(ra) # 80205134 <ramdisk_rw>
    802057a6:	60a2                	ld	ra,8(sp)
    802057a8:	6402                	ld	s0,0(sp)
    802057aa:	0141                	addi	sp,sp,16
    802057ac:	8082                	ret

00000000802057ae <disk_intr>:
    802057ae:	1141                	addi	sp,sp,-16
    802057b0:	e422                	sd	s0,8(sp)
    802057b2:	0800                	addi	s0,sp,16
    802057b4:	6422                	ld	s0,8(sp)
    802057b6:	0141                	addi	sp,sp,16
    802057b8:	8082                	ret

00000000802057ba <read_fat>:
    802057ba:	1101                	addi	sp,sp,-32
    802057bc:	ec06                	sd	ra,24(sp)
    802057be:	e822                	sd	s0,16(sp)
    802057c0:	e426                	sd	s1,8(sp)
    802057c2:	e04a                	sd	s2,0(sp)
    802057c4:	1000                	addi	s0,sp,32
    802057c6:	100007b7          	lui	a5,0x10000
    802057ca:	17dd                	addi	a5,a5,-9
    802057cc:	84aa                	mv	s1,a0
    802057ce:	00a7ea63          	bltu	a5,a0,802057e2 <read_fat+0x28>
    802057d2:	00226797          	auipc	a5,0x226
    802057d6:	8367a783          	lw	a5,-1994(a5) # 8042b008 <fat+0x8>
    802057da:	2785                	addiw	a5,a5,1
    802057dc:	4481                	li	s1,0
    802057de:	00a7f963          	bgeu	a5,a0,802057f0 <read_fat+0x36>
    802057e2:	8526                	mv	a0,s1
    802057e4:	60e2                	ld	ra,24(sp)
    802057e6:	6442                	ld	s0,16(sp)
    802057e8:	64a2                	ld	s1,8(sp)
    802057ea:	6902                	ld	s2,0(sp)
    802057ec:	6105                	addi	sp,sp,32
    802057ee:	8082                	ret
    802057f0:	0025149b          	slliw	s1,a0,0x2
    802057f4:	00226917          	auipc	s2,0x226
    802057f8:	80c90913          	addi	s2,s2,-2036 # 8042b000 <fat>
    802057fc:	01095783          	lhu	a5,16(s2)
    80205800:	02f4d7bb          	divuw	a5,s1,a5
    80205804:	01495583          	lhu	a1,20(s2)
    80205808:	9dbd                	addw	a1,a1,a5
    8020580a:	4501                	li	a0,0
    8020580c:	ffffe097          	auipc	ra,0xffffe
    80205810:	c1e080e7          	jalr	-994(ra) # 8020342a <bread>
    80205814:	01095783          	lhu	a5,16(s2)
    80205818:	02f4f4bb          	remuw	s1,s1,a5
    8020581c:	1482                	slli	s1,s1,0x20
    8020581e:	9081                	srli	s1,s1,0x20
    80205820:	94aa                	add	s1,s1,a0
    80205822:	4ca4                	lw	s1,88(s1)
    80205824:	ffffe097          	auipc	ra,0xffffe
    80205828:	d32080e7          	jalr	-718(ra) # 80203556 <brelse>
    8020582c:	bf5d                	j	802057e2 <read_fat+0x28>

000000008020582e <alloc_clus>:
    8020582e:	711d                	addi	sp,sp,-96
    80205830:	ec86                	sd	ra,88(sp)
    80205832:	e8a2                	sd	s0,80(sp)
    80205834:	e4a6                	sd	s1,72(sp)
    80205836:	e0ca                	sd	s2,64(sp)
    80205838:	fc4e                	sd	s3,56(sp)
    8020583a:	f852                	sd	s4,48(sp)
    8020583c:	f456                	sd	s5,40(sp)
    8020583e:	f05a                	sd	s6,32(sp)
    80205840:	ec5e                	sd	s7,24(sp)
    80205842:	e862                	sd	s8,16(sp)
    80205844:	e466                	sd	s9,8(sp)
    80205846:	1080                	addi	s0,sp,96
    80205848:	00225797          	auipc	a5,0x225
    8020584c:	7b878793          	addi	a5,a5,1976 # 8042b000 <fat>
    80205850:	0147db83          	lhu	s7,20(a5)
    80205854:	0107d903          	lhu	s2,16(a5)
    80205858:	539c                	lw	a5,32(a5)
    8020585a:	10078263          	beqz	a5,8020595e <alloc_clus+0x130>
    8020585e:	0029591b          	srliw	s2,s2,0x2
    80205862:	0009099b          	sext.w	s3,s2
    80205866:	4b01                	li	s6,0
    80205868:	00050a9b          	sext.w	s5,a0
    8020586c:	4c01                	li	s8,0
    8020586e:	00225c97          	auipc	s9,0x225
    80205872:	792c8c93          	addi	s9,s9,1938 # 8042b000 <fat>
    80205876:	a0c1                	j	80205936 <alloc_clus+0x108>
    80205878:	100007b7          	lui	a5,0x10000
    8020587c:	37fd                	addiw	a5,a5,-1
    8020587e:	c29c                	sw	a5,0(a3)
    80205880:	8552                	mv	a0,s4
    80205882:	ffffe097          	auipc	ra,0xffffe
    80205886:	c98080e7          	jalr	-872(ra) # 8020351a <bwrite>
    8020588a:	8552                	mv	a0,s4
    8020588c:	ffffe097          	auipc	ra,0xffffe
    80205890:	cca080e7          	jalr	-822(ra) # 80203556 <brelse>
    80205894:	0369093b          	mulw	s2,s2,s6
    80205898:	009904bb          	addw	s1,s2,s1
    8020589c:	00048a9b          	sext.w	s5,s1
    802058a0:	00225717          	auipc	a4,0x225
    802058a4:	76070713          	addi	a4,a4,1888 # 8042b000 <fat>
    802058a8:	01274783          	lbu	a5,18(a4)
    802058ac:	34f9                	addiw	s1,s1,-2
    802058ae:	02f489bb          	mulw	s3,s1,a5
    802058b2:	4318                	lw	a4,0(a4)
    802058b4:	00e989bb          	addw	s3,s3,a4
    802058b8:	c7b1                	beqz	a5,80205904 <alloc_clus+0xd6>
    802058ba:	4901                	li	s2,0
    802058bc:	00225a17          	auipc	s4,0x225
    802058c0:	744a0a13          	addi	s4,s4,1860 # 8042b000 <fat>
    802058c4:	013905bb          	addw	a1,s2,s3
    802058c8:	4501                	li	a0,0
    802058ca:	ffffe097          	auipc	ra,0xffffe
    802058ce:	b60080e7          	jalr	-1184(ra) # 8020342a <bread>
    802058d2:	84aa                	mv	s1,a0
    802058d4:	20000613          	li	a2,512
    802058d8:	4581                	li	a1,0
    802058da:	05850513          	addi	a0,a0,88
    802058de:	ffffb097          	auipc	ra,0xffffb
    802058e2:	e84080e7          	jalr	-380(ra) # 80200762 <memset>
    802058e6:	8526                	mv	a0,s1
    802058e8:	ffffe097          	auipc	ra,0xffffe
    802058ec:	c32080e7          	jalr	-974(ra) # 8020351a <bwrite>
    802058f0:	8526                	mv	a0,s1
    802058f2:	ffffe097          	auipc	ra,0xffffe
    802058f6:	c64080e7          	jalr	-924(ra) # 80203556 <brelse>
    802058fa:	2905                	addiw	s2,s2,1
    802058fc:	012a4783          	lbu	a5,18(s4)
    80205900:	fcf942e3          	blt	s2,a5,802058c4 <alloc_clus+0x96>
    80205904:	8556                	mv	a0,s5
    80205906:	60e6                	ld	ra,88(sp)
    80205908:	6446                	ld	s0,80(sp)
    8020590a:	64a6                	ld	s1,72(sp)
    8020590c:	6906                	ld	s2,64(sp)
    8020590e:	79e2                	ld	s3,56(sp)
    80205910:	7a42                	ld	s4,48(sp)
    80205912:	7aa2                	ld	s5,40(sp)
    80205914:	7b02                	ld	s6,32(sp)
    80205916:	6be2                	ld	s7,24(sp)
    80205918:	6c42                	ld	s8,16(sp)
    8020591a:	6ca2                	ld	s9,8(sp)
    8020591c:	6125                	addi	sp,sp,96
    8020591e:	8082                	ret
    80205920:	8552                	mv	a0,s4
    80205922:	ffffe097          	auipc	ra,0xffffe
    80205926:	c34080e7          	jalr	-972(ra) # 80203556 <brelse>
    8020592a:	2b05                	addiw	s6,s6,1
    8020592c:	2b85                	addiw	s7,s7,1
    8020592e:	020ca783          	lw	a5,32(s9)
    80205932:	02fb7663          	bgeu	s6,a5,8020595e <alloc_clus+0x130>
    80205936:	85de                	mv	a1,s7
    80205938:	8556                	mv	a0,s5
    8020593a:	ffffe097          	auipc	ra,0xffffe
    8020593e:	af0080e7          	jalr	-1296(ra) # 8020342a <bread>
    80205942:	8a2a                	mv	s4,a0
    80205944:	fc098ee3          	beqz	s3,80205920 <alloc_clus+0xf2>
    80205948:	05850793          	addi	a5,a0,88
    8020594c:	84e2                	mv	s1,s8
    8020594e:	86be                	mv	a3,a5
    80205950:	4398                	lw	a4,0(a5)
    80205952:	d31d                	beqz	a4,80205878 <alloc_clus+0x4a>
    80205954:	2485                	addiw	s1,s1,1
    80205956:	0791                	addi	a5,a5,4
    80205958:	fe999be3          	bne	s3,s1,8020594e <alloc_clus+0x120>
    8020595c:	b7d1                	j	80205920 <alloc_clus+0xf2>
    8020595e:	00004517          	auipc	a0,0x4
    80205962:	4d250513          	addi	a0,a0,1234 # 80209e30 <sysnames+0x278>
    80205966:	ffffa097          	auipc	ra,0xffffa
    8020596a:	7de080e7          	jalr	2014(ra) # 80200144 <panic>

000000008020596e <write_fat>:
    8020596e:	00225797          	auipc	a5,0x225
    80205972:	69a7a783          	lw	a5,1690(a5) # 8042b008 <fat+0x8>
    80205976:	2785                	addiw	a5,a5,1
    80205978:	06a7e963          	bltu	a5,a0,802059ea <write_fat+0x7c>
    8020597c:	7179                	addi	sp,sp,-48
    8020597e:	f406                	sd	ra,40(sp)
    80205980:	f022                	sd	s0,32(sp)
    80205982:	ec26                	sd	s1,24(sp)
    80205984:	e84a                	sd	s2,16(sp)
    80205986:	e44e                	sd	s3,8(sp)
    80205988:	e052                	sd	s4,0(sp)
    8020598a:	1800                	addi	s0,sp,48
    8020598c:	89ae                	mv	s3,a1
    8020598e:	0025149b          	slliw	s1,a0,0x2
    80205992:	00225a17          	auipc	s4,0x225
    80205996:	66ea0a13          	addi	s4,s4,1646 # 8042b000 <fat>
    8020599a:	010a5783          	lhu	a5,16(s4)
    8020599e:	02f4d7bb          	divuw	a5,s1,a5
    802059a2:	014a5583          	lhu	a1,20(s4)
    802059a6:	9dbd                	addw	a1,a1,a5
    802059a8:	4501                	li	a0,0
    802059aa:	ffffe097          	auipc	ra,0xffffe
    802059ae:	a80080e7          	jalr	-1408(ra) # 8020342a <bread>
    802059b2:	892a                	mv	s2,a0
    802059b4:	010a5783          	lhu	a5,16(s4)
    802059b8:	02f4f4bb          	remuw	s1,s1,a5
    802059bc:	1482                	slli	s1,s1,0x20
    802059be:	9081                	srli	s1,s1,0x20
    802059c0:	94aa                	add	s1,s1,a0
    802059c2:	0534ac23          	sw	s3,88(s1)
    802059c6:	ffffe097          	auipc	ra,0xffffe
    802059ca:	b54080e7          	jalr	-1196(ra) # 8020351a <bwrite>
    802059ce:	854a                	mv	a0,s2
    802059d0:	ffffe097          	auipc	ra,0xffffe
    802059d4:	b86080e7          	jalr	-1146(ra) # 80203556 <brelse>
    802059d8:	4501                	li	a0,0
    802059da:	70a2                	ld	ra,40(sp)
    802059dc:	7402                	ld	s0,32(sp)
    802059de:	64e2                	ld	s1,24(sp)
    802059e0:	6942                	ld	s2,16(sp)
    802059e2:	69a2                	ld	s3,8(sp)
    802059e4:	6a02                	ld	s4,0(sp)
    802059e6:	6145                	addi	sp,sp,48
    802059e8:	8082                	ret
    802059ea:	557d                	li	a0,-1
    802059ec:	8082                	ret

00000000802059ee <reloc_clus>:
    802059ee:	715d                	addi	sp,sp,-80
    802059f0:	e486                	sd	ra,72(sp)
    802059f2:	e0a2                	sd	s0,64(sp)
    802059f4:	fc26                	sd	s1,56(sp)
    802059f6:	f84a                	sd	s2,48(sp)
    802059f8:	f44e                	sd	s3,40(sp)
    802059fa:	f052                	sd	s4,32(sp)
    802059fc:	ec56                	sd	s5,24(sp)
    802059fe:	e85a                	sd	s6,16(sp)
    80205a00:	e45e                	sd	s7,8(sp)
    80205a02:	0880                	addi	s0,sp,80
    80205a04:	84aa                	mv	s1,a0
    80205a06:	8a2e                	mv	s4,a1
    80205a08:	00225b97          	auipc	s7,0x225
    80205a0c:	604bab83          	lw	s7,1540(s7) # 8042b00c <fat+0xc>
    80205a10:	0375d9bb          	divuw	s3,a1,s7
    80205a14:	11052703          	lw	a4,272(a0)
    80205a18:	07377663          	bgeu	a4,s3,80205a84 <reloc_clus+0x96>
    80205a1c:	8b32                	mv	s6,a2
    80205a1e:	10000ab7          	lui	s5,0x10000
    80205a22:	1add                	addi	s5,s5,-9
    80205a24:	a025                	j	80205a4c <reloc_clus+0x5e>
    80205a26:	1044a783          	lw	a5,260(s1)
    80205a2a:	10f4a623          	sw	a5,268(s1)
    80205a2e:	1004a823          	sw	zero,272(s1)
    80205a32:	557d                	li	a0,-1
    80205a34:	a879                	j	80205ad2 <reloc_clus+0xe4>
    80205a36:	1124a623          	sw	s2,268(s1)
    80205a3a:	1104a783          	lw	a5,272(s1)
    80205a3e:	2785                	addiw	a5,a5,1
    80205a40:	0007871b          	sext.w	a4,a5
    80205a44:	10f4a823          	sw	a5,272(s1)
    80205a48:	03377e63          	bgeu	a4,s3,80205a84 <reloc_clus+0x96>
    80205a4c:	10c4a503          	lw	a0,268(s1)
    80205a50:	00000097          	auipc	ra,0x0
    80205a54:	d6a080e7          	jalr	-662(ra) # 802057ba <read_fat>
    80205a58:	0005091b          	sext.w	s2,a0
    80205a5c:	fd2adde3          	bge	s5,s2,80205a36 <reloc_clus+0x48>
    80205a60:	fc0b03e3          	beqz	s6,80205a26 <reloc_clus+0x38>
    80205a64:	1144c503          	lbu	a0,276(s1)
    80205a68:	00000097          	auipc	ra,0x0
    80205a6c:	dc6080e7          	jalr	-570(ra) # 8020582e <alloc_clus>
    80205a70:	0005091b          	sext.w	s2,a0
    80205a74:	85ca                	mv	a1,s2
    80205a76:	10c4a503          	lw	a0,268(s1)
    80205a7a:	00000097          	auipc	ra,0x0
    80205a7e:	ef4080e7          	jalr	-268(ra) # 8020596e <write_fat>
    80205a82:	bf55                	j	80205a36 <reloc_clus+0x48>
    80205a84:	04e9f163          	bgeu	s3,a4,80205ac6 <reloc_clus+0xd8>
    80205a88:	1044a783          	lw	a5,260(s1)
    80205a8c:	10f4a623          	sw	a5,268(s1)
    80205a90:	1004a823          	sw	zero,272(s1)
    80205a94:	037a6963          	bltu	s4,s7,80205ac6 <reloc_clus+0xd8>
    80205a98:	10000937          	lui	s2,0x10000
    80205a9c:	195d                	addi	s2,s2,-9
    80205a9e:	10c4a503          	lw	a0,268(s1)
    80205aa2:	00000097          	auipc	ra,0x0
    80205aa6:	d18080e7          	jalr	-744(ra) # 802057ba <read_fat>
    80205aaa:	2501                	sext.w	a0,a0
    80205aac:	10a4a623          	sw	a0,268(s1)
    80205ab0:	02a96c63          	bltu	s2,a0,80205ae8 <reloc_clus+0xfa>
    80205ab4:	1104a783          	lw	a5,272(s1)
    80205ab8:	2785                	addiw	a5,a5,1
    80205aba:	0007871b          	sext.w	a4,a5
    80205abe:	10f4a823          	sw	a5,272(s1)
    80205ac2:	fd376ee3          	bltu	a4,s3,80205a9e <reloc_clus+0xb0>
    80205ac6:	00225517          	auipc	a0,0x225
    80205aca:	54652503          	lw	a0,1350(a0) # 8042b00c <fat+0xc>
    80205ace:	02aa753b          	remuw	a0,s4,a0
    80205ad2:	60a6                	ld	ra,72(sp)
    80205ad4:	6406                	ld	s0,64(sp)
    80205ad6:	74e2                	ld	s1,56(sp)
    80205ad8:	7942                	ld	s2,48(sp)
    80205ada:	79a2                	ld	s3,40(sp)
    80205adc:	7a02                	ld	s4,32(sp)
    80205ade:	6ae2                	ld	s5,24(sp)
    80205ae0:	6b42                	ld	s6,16(sp)
    80205ae2:	6ba2                	ld	s7,8(sp)
    80205ae4:	6161                	addi	sp,sp,80
    80205ae6:	8082                	ret
    80205ae8:	00004517          	auipc	a0,0x4
    80205aec:	35850513          	addi	a0,a0,856 # 80209e40 <sysnames+0x288>
    80205af0:	ffffa097          	auipc	ra,0xffffa
    80205af4:	654080e7          	jalr	1620(ra) # 80200144 <panic>

0000000080205af8 <rw_clus>:
    80205af8:	7119                	addi	sp,sp,-128
    80205afa:	fc86                	sd	ra,120(sp)
    80205afc:	f8a2                	sd	s0,112(sp)
    80205afe:	f4a6                	sd	s1,104(sp)
    80205b00:	f0ca                	sd	s2,96(sp)
    80205b02:	ecce                	sd	s3,88(sp)
    80205b04:	e8d2                	sd	s4,80(sp)
    80205b06:	e4d6                	sd	s5,72(sp)
    80205b08:	e0da                	sd	s6,64(sp)
    80205b0a:	fc5e                	sd	s7,56(sp)
    80205b0c:	f862                	sd	s8,48(sp)
    80205b0e:	f466                	sd	s9,40(sp)
    80205b10:	f06a                	sd	s10,32(sp)
    80205b12:	ec6e                	sd	s11,24(sp)
    80205b14:	0100                	addi	s0,sp,128
    80205b16:	f8c43423          	sd	a2,-120(s0)
    80205b1a:	8b36                	mv	s6,a3
    80205b1c:	8c3e                	mv	s8,a5
    80205b1e:	00f706bb          	addw	a3,a4,a5
    80205b22:	00225797          	auipc	a5,0x225
    80205b26:	4ea7a783          	lw	a5,1258(a5) # 8042b00c <fat+0xc>
    80205b2a:	02d7ef63          	bltu	a5,a3,80205b68 <rw_clus+0x70>
    80205b2e:	8cae                	mv	s9,a1
    80205b30:	00225797          	auipc	a5,0x225
    80205b34:	4d078793          	addi	a5,a5,1232 # 8042b000 <fat>
    80205b38:	0107da83          	lhu	s5,16(a5)
    80205b3c:	ffe5099b          	addiw	s3,a0,-2
    80205b40:	0127c503          	lbu	a0,18(a5)
    80205b44:	02a989bb          	mulw	s3,s3,a0
    80205b48:	4388                	lw	a0,0(a5)
    80205b4a:	00a989bb          	addw	s3,s3,a0
    80205b4e:	035757bb          	divuw	a5,a4,s5
    80205b52:	00f989bb          	addw	s3,s3,a5
    80205b56:	03577abb          	remuw	s5,a4,s5
    80205b5a:	0e0c0363          	beqz	s8,80205c40 <rw_clus+0x148>
    80205b5e:	4a01                	li	s4,0
    80205b60:	20000d93          	li	s11,512
    80205b64:	5d7d                	li	s10,-1
    80205b66:	a095                	j	80205bca <rw_clus+0xd2>
    80205b68:	00004517          	auipc	a0,0x4
    80205b6c:	2e850513          	addi	a0,a0,744 # 80209e50 <sysnames+0x298>
    80205b70:	ffffa097          	auipc	ra,0xffffa
    80205b74:	5d4080e7          	jalr	1492(ra) # 80200144 <panic>
    80205b78:	854a                	mv	a0,s2
    80205b7a:	ffffe097          	auipc	ra,0xffffe
    80205b7e:	9a0080e7          	jalr	-1632(ra) # 8020351a <bwrite>
    80205b82:	854a                	mv	a0,s2
    80205b84:	ffffe097          	auipc	ra,0xffffe
    80205b88:	9d2080e7          	jalr	-1582(ra) # 80203556 <brelse>
    80205b8c:	a02d                	j	80205bb6 <rw_clus+0xbe>
    80205b8e:	05890613          	addi	a2,s2,88 # 10000058 <_entry-0x701fffa8>
    80205b92:	1682                	slli	a3,a3,0x20
    80205b94:	9281                	srli	a3,a3,0x20
    80205b96:	963a                	add	a2,a2,a4
    80205b98:	85da                	mv	a1,s6
    80205b9a:	f8843503          	ld	a0,-120(s0)
    80205b9e:	ffffd097          	auipc	ra,0xffffd
    80205ba2:	a62080e7          	jalr	-1438(ra) # 80202600 <either_copyout>
    80205ba6:	8baa                	mv	s7,a0
    80205ba8:	854a                	mv	a0,s2
    80205baa:	ffffe097          	auipc	ra,0xffffe
    80205bae:	9ac080e7          	jalr	-1620(ra) # 80203556 <brelse>
    80205bb2:	07ab8763          	beq	s7,s10,80205c20 <rw_clus+0x128>
    80205bb6:	01448a3b          	addw	s4,s1,s4
    80205bba:	01548abb          	addw	s5,s1,s5
    80205bbe:	1482                	slli	s1,s1,0x20
    80205bc0:	9081                	srli	s1,s1,0x20
    80205bc2:	9b26                	add	s6,s6,s1
    80205bc4:	2985                	addiw	s3,s3,1
    80205bc6:	058a7d63          	bgeu	s4,s8,80205c20 <rw_clus+0x128>
    80205bca:	85ce                	mv	a1,s3
    80205bcc:	4501                	li	a0,0
    80205bce:	ffffe097          	auipc	ra,0xffffe
    80205bd2:	85c080e7          	jalr	-1956(ra) # 8020342a <bread>
    80205bd6:	892a                	mv	s2,a0
    80205bd8:	1ffaf713          	andi	a4,s5,511
    80205bdc:	40ed863b          	subw	a2,s11,a4
    80205be0:	414c07bb          	subw	a5,s8,s4
    80205be4:	86be                	mv	a3,a5
    80205be6:	2781                	sext.w	a5,a5
    80205be8:	0006059b          	sext.w	a1,a2
    80205bec:	00f5f363          	bgeu	a1,a5,80205bf2 <rw_clus+0xfa>
    80205bf0:	86b2                	mv	a3,a2
    80205bf2:	0006849b          	sext.w	s1,a3
    80205bf6:	f80c8ce3          	beqz	s9,80205b8e <rw_clus+0x96>
    80205bfa:	05890513          	addi	a0,s2,88
    80205bfe:	1682                	slli	a3,a3,0x20
    80205c00:	9281                	srli	a3,a3,0x20
    80205c02:	865a                	mv	a2,s6
    80205c04:	f8843583          	ld	a1,-120(s0)
    80205c08:	953a                	add	a0,a0,a4
    80205c0a:	ffffd097          	auipc	ra,0xffffd
    80205c0e:	a2c080e7          	jalr	-1492(ra) # 80202636 <either_copyin>
    80205c12:	f7a513e3          	bne	a0,s10,80205b78 <rw_clus+0x80>
    80205c16:	854a                	mv	a0,s2
    80205c18:	ffffe097          	auipc	ra,0xffffe
    80205c1c:	93e080e7          	jalr	-1730(ra) # 80203556 <brelse>
    80205c20:	8552                	mv	a0,s4
    80205c22:	70e6                	ld	ra,120(sp)
    80205c24:	7446                	ld	s0,112(sp)
    80205c26:	74a6                	ld	s1,104(sp)
    80205c28:	7906                	ld	s2,96(sp)
    80205c2a:	69e6                	ld	s3,88(sp)
    80205c2c:	6a46                	ld	s4,80(sp)
    80205c2e:	6aa6                	ld	s5,72(sp)
    80205c30:	6b06                	ld	s6,64(sp)
    80205c32:	7be2                	ld	s7,56(sp)
    80205c34:	7c42                	ld	s8,48(sp)
    80205c36:	7ca2                	ld	s9,40(sp)
    80205c38:	7d02                	ld	s10,32(sp)
    80205c3a:	6de2                	ld	s11,24(sp)
    80205c3c:	6109                	addi	sp,sp,128
    80205c3e:	8082                	ret
    80205c40:	8a62                	mv	s4,s8
    80205c42:	bff9                	j	80205c20 <rw_clus+0x128>

0000000080205c44 <eget>:
    80205c44:	7139                	addi	sp,sp,-64
    80205c46:	fc06                	sd	ra,56(sp)
    80205c48:	f822                	sd	s0,48(sp)
    80205c4a:	f426                	sd	s1,40(sp)
    80205c4c:	f04a                	sd	s2,32(sp)
    80205c4e:	ec4e                	sd	s3,24(sp)
    80205c50:	e852                	sd	s4,16(sp)
    80205c52:	e456                	sd	s5,8(sp)
    80205c54:	0080                	addi	s0,sp,64
    80205c56:	8a2a                	mv	s4,a0
    80205c58:	8aae                	mv	s5,a1
    80205c5a:	00225517          	auipc	a0,0x225
    80205c5e:	53650513          	addi	a0,a0,1334 # 8042b190 <ecache>
    80205c62:	ffffb097          	auipc	ra,0xffffb
    80205c66:	a64080e7          	jalr	-1436(ra) # 802006c6 <acquire>
    80205c6a:	060a8b63          	beqz	s5,80205ce0 <eget+0x9c>
    80205c6e:	00225497          	auipc	s1,0x225
    80205c72:	4e24b483          	ld	s1,1250(s1) # 8042b150 <root+0x128>
    80205c76:	00225797          	auipc	a5,0x225
    80205c7a:	3b278793          	addi	a5,a5,946 # 8042b028 <root>
    80205c7e:	06f48163          	beq	s1,a5,80205ce0 <eget+0x9c>
    80205c82:	4905                	li	s2,1
    80205c84:	89be                	mv	s3,a5
    80205c86:	a029                	j	80205c90 <eget+0x4c>
    80205c88:	1284b483          	ld	s1,296(s1)
    80205c8c:	05348a63          	beq	s1,s3,80205ce0 <eget+0x9c>
    80205c90:	11649783          	lh	a5,278(s1)
    80205c94:	ff279ae3          	bne	a5,s2,80205c88 <eget+0x44>
    80205c98:	1204b783          	ld	a5,288(s1)
    80205c9c:	ff4796e3          	bne	a5,s4,80205c88 <eget+0x44>
    80205ca0:	0ff00613          	li	a2,255
    80205ca4:	85d6                	mv	a1,s5
    80205ca6:	8526                	mv	a0,s1
    80205ca8:	ffffb097          	auipc	ra,0xffffb
    80205cac:	b96080e7          	jalr	-1130(ra) # 8020083e <strncmp>
    80205cb0:	fd61                	bnez	a0,80205c88 <eget+0x44>
    80205cb2:	1184a783          	lw	a5,280(s1)
    80205cb6:	0017871b          	addiw	a4,a5,1
    80205cba:	10e4ac23          	sw	a4,280(s1)
    80205cbe:	eb81                	bnez	a5,80205cce <eget+0x8a>
    80205cc0:	1204b703          	ld	a4,288(s1)
    80205cc4:	11872783          	lw	a5,280(a4)
    80205cc8:	2785                	addiw	a5,a5,1
    80205cca:	10f72c23          	sw	a5,280(a4)
    80205cce:	00225517          	auipc	a0,0x225
    80205cd2:	4c250513          	addi	a0,a0,1218 # 8042b190 <ecache>
    80205cd6:	ffffb097          	auipc	ra,0xffffb
    80205cda:	a44080e7          	jalr	-1468(ra) # 8020071a <release>
    80205cde:	a085                	j	80205d3e <eget+0xfa>
    80205ce0:	00225497          	auipc	s1,0x225
    80205ce4:	4784b483          	ld	s1,1144(s1) # 8042b158 <root+0x130>
    80205ce8:	00225797          	auipc	a5,0x225
    80205cec:	34078793          	addi	a5,a5,832 # 8042b028 <root>
    80205cf0:	00f48a63          	beq	s1,a5,80205d04 <eget+0xc0>
    80205cf4:	873e                	mv	a4,a5
    80205cf6:	1184a783          	lw	a5,280(s1)
    80205cfa:	cf89                	beqz	a5,80205d14 <eget+0xd0>
    80205cfc:	1304b483          	ld	s1,304(s1)
    80205d00:	fee49be3          	bne	s1,a4,80205cf6 <eget+0xb2>
    80205d04:	00004517          	auipc	a0,0x4
    80205d08:	16450513          	addi	a0,a0,356 # 80209e68 <sysnames+0x2b0>
    80205d0c:	ffffa097          	auipc	ra,0xffffa
    80205d10:	438080e7          	jalr	1080(ra) # 80200144 <panic>
    80205d14:	4785                	li	a5,1
    80205d16:	10f4ac23          	sw	a5,280(s1)
    80205d1a:	114a4783          	lbu	a5,276(s4)
    80205d1e:	10f48a23          	sb	a5,276(s1)
    80205d22:	1004ae23          	sw	zero,284(s1)
    80205d26:	10049b23          	sh	zero,278(s1)
    80205d2a:	10048aa3          	sb	zero,277(s1)
    80205d2e:	00225517          	auipc	a0,0x225
    80205d32:	46250513          	addi	a0,a0,1122 # 8042b190 <ecache>
    80205d36:	ffffb097          	auipc	ra,0xffffb
    80205d3a:	9e4080e7          	jalr	-1564(ra) # 8020071a <release>
    80205d3e:	8526                	mv	a0,s1
    80205d40:	70e2                	ld	ra,56(sp)
    80205d42:	7442                	ld	s0,48(sp)
    80205d44:	74a2                	ld	s1,40(sp)
    80205d46:	7902                	ld	s2,32(sp)
    80205d48:	69e2                	ld	s3,24(sp)
    80205d4a:	6a42                	ld	s4,16(sp)
    80205d4c:	6aa2                	ld	s5,8(sp)
    80205d4e:	6121                	addi	sp,sp,64
    80205d50:	8082                	ret

0000000080205d52 <read_entry_name>:
    80205d52:	7179                	addi	sp,sp,-48
    80205d54:	f406                	sd	ra,40(sp)
    80205d56:	f022                	sd	s0,32(sp)
    80205d58:	ec26                	sd	s1,24(sp)
    80205d5a:	e84a                	sd	s2,16(sp)
    80205d5c:	1800                	addi	s0,sp,48
    80205d5e:	84aa                	mv	s1,a0
    80205d60:	892e                	mv	s2,a1
    80205d62:	00b5c703          	lbu	a4,11(a1)
    80205d66:	47bd                	li	a5,15
    80205d68:	08f70463          	beq	a4,a5,80205df0 <read_entry_name+0x9e>
    80205d6c:	4635                	li	a2,13
    80205d6e:	4581                	li	a1,0
    80205d70:	ffffb097          	auipc	ra,0xffffb
    80205d74:	9f2080e7          	jalr	-1550(ra) # 80200762 <memset>
    80205d78:	00094703          	lbu	a4,0(s2)
    80205d7c:	02000793          	li	a5,32
    80205d80:	0af70b63          	beq	a4,a5,80205e36 <read_entry_name+0xe4>
    80205d84:	4785                	li	a5,1
    80205d86:	02000613          	li	a2,32
    80205d8a:	45a5                	li	a1,9
    80205d8c:	00f486b3          	add	a3,s1,a5
    80205d90:	fee68fa3          	sb	a4,-1(a3)
    80205d94:	0007851b          	sext.w	a0,a5
    80205d98:	00f90733          	add	a4,s2,a5
    80205d9c:	00074703          	lbu	a4,0(a4)
    80205da0:	00c70563          	beq	a4,a2,80205daa <read_entry_name+0x58>
    80205da4:	0785                	addi	a5,a5,1
    80205da6:	feb793e3          	bne	a5,a1,80205d8c <read_entry_name+0x3a>
    80205daa:	00894703          	lbu	a4,8(s2)
    80205dae:	02000793          	li	a5,32
    80205db2:	00f70963          	beq	a4,a5,80205dc4 <read_entry_name+0x72>
    80205db6:	00a487b3          	add	a5,s1,a0
    80205dba:	02e00713          	li	a4,46
    80205dbe:	00e78023          	sb	a4,0(a5)
    80205dc2:	2505                	addiw	a0,a0,1
    80205dc4:	00890793          	addi	a5,s2,8
    80205dc8:	94aa                	add	s1,s1,a0
    80205dca:	092d                	addi	s2,s2,11
    80205dcc:	02000693          	li	a3,32
    80205dd0:	0007c703          	lbu	a4,0(a5)
    80205dd4:	00d70863          	beq	a4,a3,80205de4 <read_entry_name+0x92>
    80205dd8:	00e48023          	sb	a4,0(s1)
    80205ddc:	0785                	addi	a5,a5,1
    80205dde:	0485                	addi	s1,s1,1
    80205de0:	ff2798e3          	bne	a5,s2,80205dd0 <read_entry_name+0x7e>
    80205de4:	70a2                	ld	ra,40(sp)
    80205de6:	7402                	ld	s0,32(sp)
    80205de8:	64e2                	ld	s1,24(sp)
    80205dea:	6942                	ld	s2,16(sp)
    80205dec:	6145                	addi	sp,sp,48
    80205dee:	8082                	ret
    80205df0:	4629                	li	a2,10
    80205df2:	0585                	addi	a1,a1,1
    80205df4:	fd040513          	addi	a0,s0,-48
    80205df8:	ffffb097          	auipc	ra,0xffffb
    80205dfc:	9ca080e7          	jalr	-1590(ra) # 802007c2 <memmove>
    80205e00:	4615                	li	a2,5
    80205e02:	fd040593          	addi	a1,s0,-48
    80205e06:	8526                	mv	a0,s1
    80205e08:	ffffb097          	auipc	ra,0xffffb
    80205e0c:	b40080e7          	jalr	-1216(ra) # 80200948 <snstr>
    80205e10:	4619                	li	a2,6
    80205e12:	00e90593          	addi	a1,s2,14
    80205e16:	00548513          	addi	a0,s1,5
    80205e1a:	ffffb097          	auipc	ra,0xffffb
    80205e1e:	b2e080e7          	jalr	-1234(ra) # 80200948 <snstr>
    80205e22:	4609                	li	a2,2
    80205e24:	01c90593          	addi	a1,s2,28
    80205e28:	00b48513          	addi	a0,s1,11
    80205e2c:	ffffb097          	auipc	ra,0xffffb
    80205e30:	b1c080e7          	jalr	-1252(ra) # 80200948 <snstr>
    80205e34:	bf45                	j	80205de4 <read_entry_name+0x92>
    80205e36:	4501                	li	a0,0
    80205e38:	bf8d                	j	80205daa <read_entry_name+0x58>

0000000080205e3a <fat32_init>:
    80205e3a:	7139                	addi	sp,sp,-64
    80205e3c:	fc06                	sd	ra,56(sp)
    80205e3e:	f822                	sd	s0,48(sp)
    80205e40:	f426                	sd	s1,40(sp)
    80205e42:	f04a                	sd	s2,32(sp)
    80205e44:	ec4e                	sd	s3,24(sp)
    80205e46:	e852                	sd	s4,16(sp)
    80205e48:	e456                	sd	s5,8(sp)
    80205e4a:	0080                	addi	s0,sp,64
    80205e4c:	4581                	li	a1,0
    80205e4e:	4501                	li	a0,0
    80205e50:	ffffd097          	auipc	ra,0xffffd
    80205e54:	5da080e7          	jalr	1498(ra) # 8020342a <bread>
    80205e58:	892a                	mv	s2,a0
    80205e5a:	4615                	li	a2,5
    80205e5c:	00004597          	auipc	a1,0x4
    80205e60:	02c58593          	addi	a1,a1,44 # 80209e88 <sysnames+0x2d0>
    80205e64:	0aa50513          	addi	a0,a0,170
    80205e68:	ffffb097          	auipc	ra,0xffffb
    80205e6c:	9d6080e7          	jalr	-1578(ra) # 8020083e <strncmp>
    80205e70:	16051863          	bnez	a0,80205fe0 <fat32_init+0x1a6>
    80205e74:	00225497          	auipc	s1,0x225
    80205e78:	18c48493          	addi	s1,s1,396 # 8042b000 <fat>
    80205e7c:	4609                	li	a2,2
    80205e7e:	06390593          	addi	a1,s2,99
    80205e82:	00225517          	auipc	a0,0x225
    80205e86:	18e50513          	addi	a0,a0,398 # 8042b010 <fat+0x10>
    80205e8a:	ffffb097          	auipc	ra,0xffffb
    80205e8e:	938080e7          	jalr	-1736(ra) # 802007c2 <memmove>
    80205e92:	06594683          	lbu	a3,101(s2)
    80205e96:	00d48923          	sb	a3,18(s1)
    80205e9a:	06695603          	lhu	a2,102(s2)
    80205e9e:	00c49a23          	sh	a2,20(s1)
    80205ea2:	06894703          	lbu	a4,104(s2)
    80205ea6:	00e48b23          	sb	a4,22(s1)
    80205eaa:	07492783          	lw	a5,116(s2)
    80205eae:	cc9c                	sw	a5,24(s1)
    80205eb0:	07892783          	lw	a5,120(s2)
    80205eb4:	ccdc                	sw	a5,28(s1)
    80205eb6:	07c92583          	lw	a1,124(s2)
    80205eba:	d08c                	sw	a1,32(s1)
    80205ebc:	08492503          	lw	a0,132(s2)
    80205ec0:	d0c8                	sw	a0,36(s1)
    80205ec2:	02b7073b          	mulw	a4,a4,a1
    80205ec6:	9f31                	addw	a4,a4,a2
    80205ec8:	c098                	sw	a4,0(s1)
    80205eca:	9f99                	subw	a5,a5,a4
    80205ecc:	c0dc                	sw	a5,4(s1)
    80205ece:	02d7d7bb          	divuw	a5,a5,a3
    80205ed2:	c49c                	sw	a5,8(s1)
    80205ed4:	0104d783          	lhu	a5,16(s1)
    80205ed8:	02d787bb          	mulw	a5,a5,a3
    80205edc:	c4dc                	sw	a5,12(s1)
    80205ede:	854a                	mv	a0,s2
    80205ee0:	ffffd097          	auipc	ra,0xffffd
    80205ee4:	676080e7          	jalr	1654(ra) # 80203556 <brelse>
    80205ee8:	0104d703          	lhu	a4,16(s1)
    80205eec:	20000793          	li	a5,512
    80205ef0:	10f71063          	bne	a4,a5,80205ff0 <fat32_init+0x1b6>
    80205ef4:	00004597          	auipc	a1,0x4
    80205ef8:	fcc58593          	addi	a1,a1,-52 # 80209ec0 <sysnames+0x308>
    80205efc:	00225517          	auipc	a0,0x225
    80205f00:	29450513          	addi	a0,a0,660 # 8042b190 <ecache>
    80205f04:	ffffa097          	auipc	ra,0xffffa
    80205f08:	77e080e7          	jalr	1918(ra) # 80200682 <initlock>
    80205f0c:	00225497          	auipc	s1,0x225
    80205f10:	0f448493          	addi	s1,s1,244 # 8042b000 <fat>
    80205f14:	00225917          	auipc	s2,0x225
    80205f18:	11490913          	addi	s2,s2,276 # 8042b028 <root>
    80205f1c:	16800613          	li	a2,360
    80205f20:	4581                	li	a1,0
    80205f22:	854a                	mv	a0,s2
    80205f24:	ffffb097          	auipc	ra,0xffffb
    80205f28:	83e080e7          	jalr	-1986(ra) # 80200762 <memset>
    80205f2c:	00004597          	auipc	a1,0x4
    80205f30:	f9c58593          	addi	a1,a1,-100 # 80209ec8 <sysnames+0x310>
    80205f34:	00225517          	auipc	a0,0x225
    80205f38:	22c50513          	addi	a0,a0,556 # 8042b160 <root+0x138>
    80205f3c:	ffffd097          	auipc	ra,0xffffd
    80205f40:	730080e7          	jalr	1840(ra) # 8020366c <initsleeplock>
    80205f44:	47d1                	li	a5,20
    80205f46:	12f48423          	sb	a5,296(s1)
    80205f4a:	50dc                	lw	a5,36(s1)
    80205f4c:	12f4aa23          	sw	a5,308(s1)
    80205f50:	12f4a623          	sw	a5,300(s1)
    80205f54:	4785                	li	a5,1
    80205f56:	12f49f23          	sh	a5,318(s1)
    80205f5a:	1524bc23          	sd	s2,344(s1)
    80205f5e:	1524b823          	sd	s2,336(s1)
    80205f62:	00225497          	auipc	s1,0x225
    80205f66:	24648493          	addi	s1,s1,582 # 8042b1a8 <ecache+0x18>
    80205f6a:	00225917          	auipc	s2,0x225
    80205f6e:	09690913          	addi	s2,s2,150 # 8042b000 <fat>
    80205f72:	00225a97          	auipc	s5,0x225
    80205f76:	0b6a8a93          	addi	s5,s5,182 # 8042b028 <root>
    80205f7a:	00004a17          	auipc	s4,0x4
    80205f7e:	f4ea0a13          	addi	s4,s4,-178 # 80209ec8 <sysnames+0x310>
    80205f82:	0022a997          	auipc	s3,0x22a
    80205f86:	87698993          	addi	s3,s3,-1930 # 8042f7f8 <cons>
    80205f8a:	10048a23          	sb	zero,276(s1)
    80205f8e:	10049b23          	sh	zero,278(s1)
    80205f92:	1004ac23          	sw	zero,280(s1)
    80205f96:	10048aa3          	sb	zero,277(s1)
    80205f9a:	1204b023          	sd	zero,288(s1)
    80205f9e:	15093783          	ld	a5,336(s2)
    80205fa2:	12f4b423          	sd	a5,296(s1)
    80205fa6:	1354b823          	sd	s5,304(s1)
    80205faa:	85d2                	mv	a1,s4
    80205fac:	13848513          	addi	a0,s1,312
    80205fb0:	ffffd097          	auipc	ra,0xffffd
    80205fb4:	6bc080e7          	jalr	1724(ra) # 8020366c <initsleeplock>
    80205fb8:	15093783          	ld	a5,336(s2)
    80205fbc:	1297b823          	sd	s1,304(a5)
    80205fc0:	14993823          	sd	s1,336(s2)
    80205fc4:	16848493          	addi	s1,s1,360
    80205fc8:	fd3491e3          	bne	s1,s3,80205f8a <fat32_init+0x150>
    80205fcc:	4501                	li	a0,0
    80205fce:	70e2                	ld	ra,56(sp)
    80205fd0:	7442                	ld	s0,48(sp)
    80205fd2:	74a2                	ld	s1,40(sp)
    80205fd4:	7902                	ld	s2,32(sp)
    80205fd6:	69e2                	ld	s3,24(sp)
    80205fd8:	6a42                	ld	s4,16(sp)
    80205fda:	6aa2                	ld	s5,8(sp)
    80205fdc:	6121                	addi	sp,sp,64
    80205fde:	8082                	ret
    80205fe0:	00004517          	auipc	a0,0x4
    80205fe4:	eb050513          	addi	a0,a0,-336 # 80209e90 <sysnames+0x2d8>
    80205fe8:	ffffa097          	auipc	ra,0xffffa
    80205fec:	15c080e7          	jalr	348(ra) # 80200144 <panic>
    80205ff0:	00004517          	auipc	a0,0x4
    80205ff4:	eb850513          	addi	a0,a0,-328 # 80209ea8 <sysnames+0x2f0>
    80205ff8:	ffffa097          	auipc	ra,0xffffa
    80205ffc:	14c080e7          	jalr	332(ra) # 80200144 <panic>

0000000080206000 <eread>:
    80206000:	10852783          	lw	a5,264(a0)
    80206004:	0ed7e863          	bltu	a5,a3,802060f4 <eread+0xf4>
    80206008:	711d                	addi	sp,sp,-96
    8020600a:	ec86                	sd	ra,88(sp)
    8020600c:	e8a2                	sd	s0,80(sp)
    8020600e:	e4a6                	sd	s1,72(sp)
    80206010:	e0ca                	sd	s2,64(sp)
    80206012:	fc4e                	sd	s3,56(sp)
    80206014:	f852                	sd	s4,48(sp)
    80206016:	f456                	sd	s5,40(sp)
    80206018:	f05a                	sd	s6,32(sp)
    8020601a:	ec5e                	sd	s7,24(sp)
    8020601c:	e862                	sd	s8,16(sp)
    8020601e:	e466                	sd	s9,8(sp)
    80206020:	e06a                	sd	s10,0(sp)
    80206022:	1080                	addi	s0,sp,96
    80206024:	8a2a                	mv	s4,a0
    80206026:	8bae                	mv	s7,a1
    80206028:	8ab2                	mv	s5,a2
    8020602a:	8936                	mv	s2,a3
    8020602c:	8b3a                	mv	s6,a4
    8020602e:	9eb9                	addw	a3,a3,a4
    80206030:	4501                	li	a0,0
    80206032:	0b26e163          	bltu	a3,s2,802060d4 <eread+0xd4>
    80206036:	100a4703          	lbu	a4,256(s4)
    8020603a:	8b41                	andi	a4,a4,16
    8020603c:	ef41                	bnez	a4,802060d4 <eread+0xd4>
    8020603e:	00d7f463          	bgeu	a5,a3,80206046 <eread+0x46>
    80206042:	41278b3b          	subw	s6,a5,s2
    80206046:	10ca2703          	lw	a4,268(s4)
    8020604a:	100007b7          	lui	a5,0x10000
    8020604e:	17dd                	addi	a5,a5,-9
    80206050:	06e7ef63          	bltu	a5,a4,802060ce <eread+0xce>
    80206054:	080b0e63          	beqz	s6,802060f0 <eread+0xf0>
    80206058:	4981                	li	s3,0
    8020605a:	00225c97          	auipc	s9,0x225
    8020605e:	fa6c8c93          	addi	s9,s9,-90 # 8042b000 <fat>
    80206062:	8c3e                	mv	s8,a5
    80206064:	a82d                	j	8020609e <eread+0x9e>
    80206066:	00048d1b          	sext.w	s10,s1
    8020606a:	87ea                	mv	a5,s10
    8020606c:	86d6                	mv	a3,s5
    8020606e:	865e                	mv	a2,s7
    80206070:	4581                	li	a1,0
    80206072:	10ca2503          	lw	a0,268(s4)
    80206076:	00000097          	auipc	ra,0x0
    8020607a:	a82080e7          	jalr	-1406(ra) # 80205af8 <rw_clus>
    8020607e:	2501                	sext.w	a0,a0
    80206080:	04ad1863          	bne	s10,a0,802060d0 <eread+0xd0>
    80206084:	013489bb          	addw	s3,s1,s3
    80206088:	0124893b          	addw	s2,s1,s2
    8020608c:	1482                	slli	s1,s1,0x20
    8020608e:	9081                	srli	s1,s1,0x20
    80206090:	9aa6                	add	s5,s5,s1
    80206092:	10ca2783          	lw	a5,268(s4)
    80206096:	02fc6d63          	bltu	s8,a5,802060d0 <eread+0xd0>
    8020609a:	0369fb63          	bgeu	s3,s6,802060d0 <eread+0xd0>
    8020609e:	4601                	li	a2,0
    802060a0:	85ca                	mv	a1,s2
    802060a2:	8552                	mv	a0,s4
    802060a4:	00000097          	auipc	ra,0x0
    802060a8:	94a080e7          	jalr	-1718(ra) # 802059ee <reloc_clus>
    802060ac:	00cca783          	lw	a5,12(s9)
    802060b0:	02f976bb          	remuw	a3,s2,a5
    802060b4:	0006871b          	sext.w	a4,a3
    802060b8:	9f95                	subw	a5,a5,a3
    802060ba:	413b06bb          	subw	a3,s6,s3
    802060be:	84b6                	mv	s1,a3
    802060c0:	2681                	sext.w	a3,a3
    802060c2:	0007861b          	sext.w	a2,a5
    802060c6:	fad670e3          	bgeu	a2,a3,80206066 <eread+0x66>
    802060ca:	84be                	mv	s1,a5
    802060cc:	bf69                	j	80206066 <eread+0x66>
    802060ce:	4981                	li	s3,0
    802060d0:	0009851b          	sext.w	a0,s3
    802060d4:	60e6                	ld	ra,88(sp)
    802060d6:	6446                	ld	s0,80(sp)
    802060d8:	64a6                	ld	s1,72(sp)
    802060da:	6906                	ld	s2,64(sp)
    802060dc:	79e2                	ld	s3,56(sp)
    802060de:	7a42                	ld	s4,48(sp)
    802060e0:	7aa2                	ld	s5,40(sp)
    802060e2:	7b02                	ld	s6,32(sp)
    802060e4:	6be2                	ld	s7,24(sp)
    802060e6:	6c42                	ld	s8,16(sp)
    802060e8:	6ca2                	ld	s9,8(sp)
    802060ea:	6d02                	ld	s10,0(sp)
    802060ec:	6125                	addi	sp,sp,96
    802060ee:	8082                	ret
    802060f0:	89da                	mv	s3,s6
    802060f2:	bff9                	j	802060d0 <eread+0xd0>
    802060f4:	4501                	li	a0,0
    802060f6:	8082                	ret

00000000802060f8 <ewrite>:
    802060f8:	10852783          	lw	a5,264(a0)
    802060fc:	0ed7e463          	bltu	a5,a3,802061e4 <ewrite+0xec>
    80206100:	711d                	addi	sp,sp,-96
    80206102:	ec86                	sd	ra,88(sp)
    80206104:	e8a2                	sd	s0,80(sp)
    80206106:	e4a6                	sd	s1,72(sp)
    80206108:	e0ca                	sd	s2,64(sp)
    8020610a:	fc4e                	sd	s3,56(sp)
    8020610c:	f852                	sd	s4,48(sp)
    8020610e:	f456                	sd	s5,40(sp)
    80206110:	f05a                	sd	s6,32(sp)
    80206112:	ec5e                	sd	s7,24(sp)
    80206114:	e862                	sd	s8,16(sp)
    80206116:	e466                	sd	s9,8(sp)
    80206118:	1080                	addi	s0,sp,96
    8020611a:	8aaa                	mv	s5,a0
    8020611c:	8bae                	mv	s7,a1
    8020611e:	8a32                	mv	s4,a2
    80206120:	8936                	mv	s2,a3
    80206122:	8b3a                	mv	s6,a4
    80206124:	00e687bb          	addw	a5,a3,a4
    80206128:	0cd7e063          	bltu	a5,a3,802061e8 <ewrite+0xf0>
    8020612c:	02069793          	slli	a5,a3,0x20
    80206130:	9381                	srli	a5,a5,0x20
    80206132:	1702                	slli	a4,a4,0x20
    80206134:	9301                	srli	a4,a4,0x20
    80206136:	97ba                	add	a5,a5,a4
    80206138:	577d                	li	a4,-1
    8020613a:	9301                	srli	a4,a4,0x20
    8020613c:	0af76863          	bltu	a4,a5,802061ec <ewrite+0xf4>
    80206140:	10054783          	lbu	a5,256(a0)
    80206144:	8b85                	andi	a5,a5,1
    80206146:	e7cd                	bnez	a5,802061f0 <ewrite+0xf8>
    80206148:	10452783          	lw	a5,260(a0)
    8020614c:	cb89                	beqz	a5,8020615e <ewrite+0x66>
    8020614e:	080b0963          	beqz	s6,802061e0 <ewrite+0xe8>
    80206152:	4981                	li	s3,0
    80206154:	00225c17          	auipc	s8,0x225
    80206158:	eacc0c13          	addi	s8,s8,-340 # 8042b000 <fat>
    8020615c:	a891                	j	802061b0 <ewrite+0xb8>
    8020615e:	11454503          	lbu	a0,276(a0)
    80206162:	fffff097          	auipc	ra,0xfffff
    80206166:	6cc080e7          	jalr	1740(ra) # 8020582e <alloc_clus>
    8020616a:	2501                	sext.w	a0,a0
    8020616c:	10aaa223          	sw	a0,260(s5)
    80206170:	10aaa623          	sw	a0,268(s5)
    80206174:	100aa823          	sw	zero,272(s5)
    80206178:	4785                	li	a5,1
    8020617a:	10fa8aa3          	sb	a5,277(s5)
    8020617e:	bfc1                	j	8020614e <ewrite+0x56>
    80206180:	00048c9b          	sext.w	s9,s1
    80206184:	87e6                	mv	a5,s9
    80206186:	86d2                	mv	a3,s4
    80206188:	865e                	mv	a2,s7
    8020618a:	4585                	li	a1,1
    8020618c:	10caa503          	lw	a0,268(s5)
    80206190:	00000097          	auipc	ra,0x0
    80206194:	968080e7          	jalr	-1688(ra) # 80205af8 <rw_clus>
    80206198:	2501                	sext.w	a0,a0
    8020619a:	04ac9d63          	bne	s9,a0,802061f4 <ewrite+0xfc>
    8020619e:	013489bb          	addw	s3,s1,s3
    802061a2:	0124893b          	addw	s2,s1,s2
    802061a6:	1482                	slli	s1,s1,0x20
    802061a8:	9081                	srli	s1,s1,0x20
    802061aa:	9a26                	add	s4,s4,s1
    802061ac:	0569f463          	bgeu	s3,s6,802061f4 <ewrite+0xfc>
    802061b0:	4605                	li	a2,1
    802061b2:	85ca                	mv	a1,s2
    802061b4:	8556                	mv	a0,s5
    802061b6:	00000097          	auipc	ra,0x0
    802061ba:	838080e7          	jalr	-1992(ra) # 802059ee <reloc_clus>
    802061be:	00cc2783          	lw	a5,12(s8)
    802061c2:	02f976bb          	remuw	a3,s2,a5
    802061c6:	0006871b          	sext.w	a4,a3
    802061ca:	9f95                	subw	a5,a5,a3
    802061cc:	413b06bb          	subw	a3,s6,s3
    802061d0:	84b6                	mv	s1,a3
    802061d2:	2681                	sext.w	a3,a3
    802061d4:	0007861b          	sext.w	a2,a5
    802061d8:	fad674e3          	bgeu	a2,a3,80206180 <ewrite+0x88>
    802061dc:	84be                	mv	s1,a5
    802061de:	b74d                	j	80206180 <ewrite+0x88>
    802061e0:	89da                	mv	s3,s6
    802061e2:	a015                	j	80206206 <ewrite+0x10e>
    802061e4:	557d                	li	a0,-1
    802061e6:	8082                	ret
    802061e8:	557d                	li	a0,-1
    802061ea:	a005                	j	8020620a <ewrite+0x112>
    802061ec:	557d                	li	a0,-1
    802061ee:	a831                	j	8020620a <ewrite+0x112>
    802061f0:	557d                	li	a0,-1
    802061f2:	a821                	j	8020620a <ewrite+0x112>
    802061f4:	108aa783          	lw	a5,264(s5)
    802061f8:	0127f763          	bgeu	a5,s2,80206206 <ewrite+0x10e>
    802061fc:	112aa423          	sw	s2,264(s5)
    80206200:	4785                	li	a5,1
    80206202:	10fa8aa3          	sb	a5,277(s5)
    80206206:	0009851b          	sext.w	a0,s3
    8020620a:	60e6                	ld	ra,88(sp)
    8020620c:	6446                	ld	s0,80(sp)
    8020620e:	64a6                	ld	s1,72(sp)
    80206210:	6906                	ld	s2,64(sp)
    80206212:	79e2                	ld	s3,56(sp)
    80206214:	7a42                	ld	s4,48(sp)
    80206216:	7aa2                	ld	s5,40(sp)
    80206218:	7b02                	ld	s6,32(sp)
    8020621a:	6be2                	ld	s7,24(sp)
    8020621c:	6c42                	ld	s8,16(sp)
    8020621e:	6ca2                	ld	s9,8(sp)
    80206220:	6125                	addi	sp,sp,96
    80206222:	8082                	ret

0000000080206224 <formatname>:
    80206224:	7179                	addi	sp,sp,-48
    80206226:	f406                	sd	ra,40(sp)
    80206228:	f022                	sd	s0,32(sp)
    8020622a:	ec26                	sd	s1,24(sp)
    8020622c:	e84a                	sd	s2,16(sp)
    8020622e:	e44e                	sd	s3,8(sp)
    80206230:	e052                	sd	s4,0(sp)
    80206232:	1800                	addi	s0,sp,48
    80206234:	84aa                	mv	s1,a0
    80206236:	02000793          	li	a5,32
    8020623a:	02e00713          	li	a4,46
    8020623e:	a011                	j	80206242 <formatname+0x1e>
    80206240:	0485                	addi	s1,s1,1
    80206242:	0004c583          	lbu	a1,0(s1)
    80206246:	fef58de3          	beq	a1,a5,80206240 <formatname+0x1c>
    8020624a:	fee58be3          	beq	a1,a4,80206240 <formatname+0x1c>
    8020624e:	c1b9                	beqz	a1,80206294 <formatname+0x70>
    80206250:	8926                	mv	s2,s1
    80206252:	49fd                	li	s3,31
    80206254:	00206a17          	auipc	s4,0x206
    80206258:	de4a0a13          	addi	s4,s4,-540 # 8040c038 <illegal.1635>
    8020625c:	02b9fe63          	bgeu	s3,a1,80206298 <formatname+0x74>
    80206260:	8552                	mv	a0,s4
    80206262:	ffffa097          	auipc	ra,0xffffa
    80206266:	76a080e7          	jalr	1898(ra) # 802009cc <strchr>
    8020626a:	e121                	bnez	a0,802062aa <formatname+0x86>
    8020626c:	0905                	addi	s2,s2,1
    8020626e:	00094583          	lbu	a1,0(s2)
    80206272:	f5ed                	bnez	a1,8020625c <formatname+0x38>
    80206274:	02000693          	li	a3,32
    80206278:	874a                	mv	a4,s2
    8020627a:	0124fb63          	bgeu	s1,s2,80206290 <formatname+0x6c>
    8020627e:	197d                	addi	s2,s2,-1
    80206280:	00094783          	lbu	a5,0(s2)
    80206284:	fed78ae3          	beq	a5,a3,80206278 <formatname+0x54>
    80206288:	00070023          	sb	zero,0(a4)
    8020628c:	8526                	mv	a0,s1
    8020628e:	a031                	j	8020629a <formatname+0x76>
    80206290:	8526                	mv	a0,s1
    80206292:	a021                	j	8020629a <formatname+0x76>
    80206294:	8526                	mv	a0,s1
    80206296:	a011                	j	8020629a <formatname+0x76>
    80206298:	4501                	li	a0,0
    8020629a:	70a2                	ld	ra,40(sp)
    8020629c:	7402                	ld	s0,32(sp)
    8020629e:	64e2                	ld	s1,24(sp)
    802062a0:	6942                	ld	s2,16(sp)
    802062a2:	69a2                	ld	s3,8(sp)
    802062a4:	6a02                	ld	s4,0(sp)
    802062a6:	6145                	addi	sp,sp,48
    802062a8:	8082                	ret
    802062aa:	4501                	li	a0,0
    802062ac:	b7fd                	j	8020629a <formatname+0x76>

00000000802062ae <cal_checksum>:
    802062ae:	1141                	addi	sp,sp,-16
    802062b0:	e422                	sd	s0,8(sp)
    802062b2:	0800                	addi	s0,sp,16
    802062b4:	87aa                	mv	a5,a0
    802062b6:	00b50613          	addi	a2,a0,11
    802062ba:	4501                	li	a0,0
    802062bc:	0075171b          	slliw	a4,a0,0x7
    802062c0:	0785                	addi	a5,a5,1
    802062c2:	0015551b          	srliw	a0,a0,0x1
    802062c6:	fff7c683          	lbu	a3,-1(a5) # fffffff <_entry-0x70200001>
    802062ca:	9d35                	addw	a0,a0,a3
    802062cc:	953a                	add	a0,a0,a4
    802062ce:	0ff57513          	andi	a0,a0,255
    802062d2:	fef615e3          	bne	a2,a5,802062bc <cal_checksum+0xe>
    802062d6:	6422                	ld	s0,8(sp)
    802062d8:	0141                	addi	sp,sp,16
    802062da:	8082                	ret

00000000802062dc <emake>:
    802062dc:	7171                	addi	sp,sp,-176
    802062de:	f506                	sd	ra,168(sp)
    802062e0:	f122                	sd	s0,160(sp)
    802062e2:	ed26                	sd	s1,152(sp)
    802062e4:	e94a                	sd	s2,144(sp)
    802062e6:	e54e                	sd	s3,136(sp)
    802062e8:	e152                	sd	s4,128(sp)
    802062ea:	fcd6                	sd	s5,120(sp)
    802062ec:	f8da                	sd	s6,112(sp)
    802062ee:	f4de                	sd	s7,104(sp)
    802062f0:	f0e2                	sd	s8,96(sp)
    802062f2:	ece6                	sd	s9,88(sp)
    802062f4:	e8ea                	sd	s10,80(sp)
    802062f6:	e4ee                	sd	s11,72(sp)
    802062f8:	1900                	addi	s0,sp,176
    802062fa:	10054783          	lbu	a5,256(a0)
    802062fe:	8bc1                	andi	a5,a5,16
    80206300:	c3d5                	beqz	a5,802063a4 <emake+0xc8>
    80206302:	892a                	mv	s2,a0
    80206304:	8aae                	mv	s5,a1
    80206306:	8a32                	mv	s4,a2
    80206308:	01f67793          	andi	a5,a2,31
    8020630c:	e7c5                	bnez	a5,802063b4 <emake+0xd8>
    8020630e:	02000613          	li	a2,32
    80206312:	4581                	li	a1,0
    80206314:	f7040513          	addi	a0,s0,-144
    80206318:	ffffa097          	auipc	ra,0xffffa
    8020631c:	44a080e7          	jalr	1098(ra) # 80200762 <memset>
    80206320:	02000793          	li	a5,32
    80206324:	0b47ec63          	bltu	a5,s4,802063dc <emake+0x100>
    80206328:	080a1e63          	bnez	s4,802063c4 <emake+0xe8>
    8020632c:	462d                	li	a2,11
    8020632e:	00004597          	auipc	a1,0x4
    80206332:	bca58593          	addi	a1,a1,-1078 # 80209ef8 <sysnames+0x340>
    80206336:	f7040513          	addi	a0,s0,-144
    8020633a:	ffffa097          	auipc	ra,0xffffa
    8020633e:	540080e7          	jalr	1344(ra) # 8020087a <strncpy>
    80206342:	47c1                	li	a5,16
    80206344:	f6f40da3          	sb	a5,-133(s0)
    80206348:	104aa783          	lw	a5,260(s5)
    8020634c:	0107d71b          	srliw	a4,a5,0x10
    80206350:	f8e41223          	sh	a4,-124(s0)
    80206354:	f8f41523          	sh	a5,-118(s0)
    80206358:	f8042623          	sw	zero,-116(s0)
    8020635c:	4605                	li	a2,1
    8020635e:	85d2                	mv	a1,s4
    80206360:	854a                	mv	a0,s2
    80206362:	fffff097          	auipc	ra,0xfffff
    80206366:	68c080e7          	jalr	1676(ra) # 802059ee <reloc_clus>
    8020636a:	02000793          	li	a5,32
    8020636e:	0005071b          	sext.w	a4,a0
    80206372:	f7040693          	addi	a3,s0,-144
    80206376:	4601                	li	a2,0
    80206378:	4585                	li	a1,1
    8020637a:	10c92503          	lw	a0,268(s2)
    8020637e:	fffff097          	auipc	ra,0xfffff
    80206382:	77a080e7          	jalr	1914(ra) # 80205af8 <rw_clus>
    80206386:	70aa                	ld	ra,168(sp)
    80206388:	740a                	ld	s0,160(sp)
    8020638a:	64ea                	ld	s1,152(sp)
    8020638c:	694a                	ld	s2,144(sp)
    8020638e:	69aa                	ld	s3,136(sp)
    80206390:	6a0a                	ld	s4,128(sp)
    80206392:	7ae6                	ld	s5,120(sp)
    80206394:	7b46                	ld	s6,112(sp)
    80206396:	7ba6                	ld	s7,104(sp)
    80206398:	7c06                	ld	s8,96(sp)
    8020639a:	6ce6                	ld	s9,88(sp)
    8020639c:	6d46                	ld	s10,80(sp)
    8020639e:	6da6                	ld	s11,72(sp)
    802063a0:	614d                	addi	sp,sp,176
    802063a2:	8082                	ret
    802063a4:	00004517          	auipc	a0,0x4
    802063a8:	b2c50513          	addi	a0,a0,-1236 # 80209ed0 <sysnames+0x318>
    802063ac:	ffffa097          	auipc	ra,0xffffa
    802063b0:	d98080e7          	jalr	-616(ra) # 80200144 <panic>
    802063b4:	00004517          	auipc	a0,0x4
    802063b8:	b2c50513          	addi	a0,a0,-1236 # 80209ee0 <sysnames+0x328>
    802063bc:	ffffa097          	auipc	ra,0xffffa
    802063c0:	d88080e7          	jalr	-632(ra) # 80200144 <panic>
    802063c4:	462d                	li	a2,11
    802063c6:	00004597          	auipc	a1,0x4
    802063ca:	b4258593          	addi	a1,a1,-1214 # 80209f08 <sysnames+0x350>
    802063ce:	f7040513          	addi	a0,s0,-144
    802063d2:	ffffa097          	auipc	ra,0xffffa
    802063d6:	4a8080e7          	jalr	1192(ra) # 8020087a <strncpy>
    802063da:	b7a5                	j	80206342 <emake+0x66>
    802063dc:	89d6                	mv	s3,s5
    802063de:	8556                	mv	a0,s5
    802063e0:	ffffa097          	auipc	ra,0xffffa
    802063e4:	50a080e7          	jalr	1290(ra) # 802008ea <strlen>
    802063e8:	f4a43c23          	sd	a0,-168(s0)
    802063ec:	00c5079b          	addiw	a5,a0,12
    802063f0:	4db5                	li	s11,13
    802063f2:	03b7c7bb          	divw	a5,a5,s11
    802063f6:	f4f42a23          	sw	a5,-172(s0)
    802063fa:	00078c1b          	sext.w	s8,a5
    802063fe:	4631                	li	a2,12
    80206400:	4581                	li	a1,0
    80206402:	f6040513          	addi	a0,s0,-160
    80206406:	ffffa097          	auipc	ra,0xffffa
    8020640a:	35c080e7          	jalr	860(ra) # 80200762 <memset>
    8020640e:	8556                	mv	a0,s5
    80206410:	ffffa097          	auipc	ra,0xffffa
    80206414:	4da080e7          	jalr	1242(ra) # 802008ea <strlen>
    80206418:	fff5079b          	addiw	a5,a0,-1
    8020641c:	0207cc63          	bltz	a5,80206454 <emake+0x178>
    80206420:	97d6                	add	a5,a5,s5
    80206422:	ffea8693          	addi	a3,s5,-2
    80206426:	96aa                	add	a3,a3,a0
    80206428:	fff5071b          	addiw	a4,a0,-1
    8020642c:	1702                	slli	a4,a4,0x20
    8020642e:	9301                	srli	a4,a4,0x20
    80206430:	8e99                	sub	a3,a3,a4
    80206432:	02e00613          	li	a2,46
    80206436:	8b3e                	mv	s6,a5
    80206438:	0007c703          	lbu	a4,0(a5)
    8020643c:	00c70663          	beq	a4,a2,80206448 <emake+0x16c>
    80206440:	17fd                	addi	a5,a5,-1
    80206442:	fed79ae3          	bne	a5,a3,80206436 <emake+0x15a>
    80206446:	8b56                	mv	s6,s5
    80206448:	4481                	li	s1,0
    8020644a:	4ca1                	li	s9,8
    8020644c:	4d29                	li	s10,10
    8020644e:	02e00d93          	li	s11,46
    80206452:	a875                	j	8020650e <emake+0x232>
    80206454:	8b56                	mv	s6,s5
    80206456:	bfcd                	j	80206448 <emake+0x16c>
    80206458:	200b0a63          	beqz	s6,8020666c <emake+0x390>
    8020645c:	0b05                	addi	s6,s6,1
    8020645e:	077b7f63          	bgeu	s6,s7,802064dc <emake+0x200>
    80206462:	f6040793          	addi	a5,s0,-160
    80206466:	97a6                	add	a5,a5,s1
    80206468:	02000693          	li	a3,32
    8020646c:	4729                	li	a4,10
    8020646e:	2485                	addiw	s1,s1,1
    80206470:	00d78023          	sb	a3,0(a5)
    80206474:	0785                	addi	a5,a5,1
    80206476:	fe975ce3          	bge	a4,s1,8020646e <emake+0x192>
    8020647a:	f6040513          	addi	a0,s0,-160
    8020647e:	00000097          	auipc	ra,0x0
    80206482:	e30080e7          	jalr	-464(ra) # 802062ae <cal_checksum>
    80206486:	f6a40ea3          	sb	a0,-131(s0)
    8020648a:	47bd                	li	a5,15
    8020648c:	f6f40da3          	sb	a5,-133(s0)
    80206490:	f5843783          	ld	a5,-168(s0)
    80206494:	0ef05563          	blez	a5,8020657e <emake+0x2a2>
    80206498:	f5442783          	lw	a5,-172(s0)
    8020649c:	fff78d9b          	addiw	s11,a5,-1
    802064a0:	001d9b9b          	slliw	s7,s11,0x1
    802064a4:	01bb8bbb          	addw	s7,s7,s11
    802064a8:	002b9b9b          	slliw	s7,s7,0x2
    802064ac:	01bb8bbb          	addw	s7,s7,s11
    802064b0:	9bd6                	add	s7,s7,s5
    802064b2:	8b62                	mv	s6,s8
    802064b4:	8cd2                	mv	s9,s4
    802064b6:	4d01                	li	s10,0
    802064b8:	59fd                	li	s3,-1
    802064ba:	44ad                	li	s1,11
    802064bc:	aa49                	j	8020664e <emake+0x372>
    802064be:	057b7563          	bgeu	s6,s7,80206508 <emake+0x22c>
    802064c2:	4621                	li	a2,8
    802064c4:	9e05                	subw	a2,a2,s1
    802064c6:	02000593          	li	a1,32
    802064ca:	f6040793          	addi	a5,s0,-160
    802064ce:	00978533          	add	a0,a5,s1
    802064d2:	ffffa097          	auipc	ra,0xffffa
    802064d6:	290080e7          	jalr	656(ra) # 80200762 <memset>
    802064da:	8b5e                	mv	s6,s7
    802064dc:	8bda                	mv	s7,s6
    802064de:	84e6                	mv	s1,s9
    802064e0:	4b01                	li	s6,0
    802064e2:	a02d                	j	8020650c <emake+0x230>
    802064e4:	85ce                	mv	a1,s3
    802064e6:	00206517          	auipc	a0,0x206
    802064ea:	b6a50513          	addi	a0,a0,-1174 # 8040c050 <illegal.1651>
    802064ee:	ffffa097          	auipc	ra,0xffffa
    802064f2:	4de080e7          	jalr	1246(ra) # 802009cc <strchr>
    802064f6:	c119                	beqz	a0,802064fc <emake+0x220>
    802064f8:	05f00993          	li	s3,95
    802064fc:	f9040793          	addi	a5,s0,-112
    80206500:	97a6                	add	a5,a5,s1
    80206502:	fd378823          	sb	s3,-48(a5)
    80206506:	2485                	addiw	s1,s1,1
    80206508:	f69d49e3          	blt	s10,s1,8020647a <emake+0x19e>
    8020650c:	89de                	mv	s3,s7
    8020650e:	00198b93          	addi	s7,s3,1
    80206512:	0009c983          	lbu	s3,0(s3)
    80206516:	02098563          	beqz	s3,80206540 <emake+0x264>
    8020651a:	f3948fe3          	beq	s1,s9,80206458 <emake+0x17c>
    8020651e:	02000793          	li	a5,32
    80206522:	fef983e3          	beq	s3,a5,80206508 <emake+0x22c>
    80206526:	f9b98ce3          	beq	s3,s11,802064be <emake+0x1e2>
    8020652a:	f9f9879b          	addiw	a5,s3,-97
    8020652e:	0ff7f793          	andi	a5,a5,255
    80206532:	4765                	li	a4,25
    80206534:	faf768e3          	bltu	a4,a5,802064e4 <emake+0x208>
    80206538:	3981                	addiw	s3,s3,-32
    8020653a:	0ff9f993          	andi	s3,s3,255
    8020653e:	bf7d                	j	802064fc <emake+0x220>
    80206540:	47a9                	li	a5,10
    80206542:	f297d0e3          	bge	a5,s1,80206462 <emake+0x186>
    80206546:	bf15                	j	8020647a <emake+0x19e>
    80206548:	0407e793          	ori	a5,a5,64
    8020654c:	f6f40823          	sb	a5,-144(s0)
    80206550:	a229                	j	8020665a <emake+0x37e>
    80206552:	0005c683          	lbu	a3,0(a1)
    80206556:	00d78023          	sb	a3,0(a5)
    8020655a:	0016b693          	seqz	a3,a3
    8020655e:	000780a3          	sb	zero,1(a5)
    80206562:	0789                	addi	a5,a5,2
    80206564:	0585                	addi	a1,a1,1
    80206566:	a055                	j	8020660a <emake+0x32e>
    80206568:	020a0a1b          	addiw	s4,s4,32
    8020656c:	4781                	li	a5,0
    8020656e:	f5843703          	ld	a4,-168(s0)
    80206572:	00e05463          	blez	a4,8020657a <emake+0x29e>
    80206576:	005d979b          	slliw	a5,s11,0x5
    8020657a:	01478a3b          	addw	s4,a5,s4
    8020657e:	02000613          	li	a2,32
    80206582:	4581                	li	a1,0
    80206584:	f7040513          	addi	a0,s0,-144
    80206588:	ffffa097          	auipc	ra,0xffffa
    8020658c:	1da080e7          	jalr	474(ra) # 80200762 <memset>
    80206590:	462d                	li	a2,11
    80206592:	f6040593          	addi	a1,s0,-160
    80206596:	f7040513          	addi	a0,s0,-144
    8020659a:	ffffa097          	auipc	ra,0xffffa
    8020659e:	2e0080e7          	jalr	736(ra) # 8020087a <strncpy>
    802065a2:	100ac783          	lbu	a5,256(s5)
    802065a6:	f6f40da3          	sb	a5,-133(s0)
    802065aa:	104aa783          	lw	a5,260(s5)
    802065ae:	0107d71b          	srliw	a4,a5,0x10
    802065b2:	f8e41223          	sh	a4,-124(s0)
    802065b6:	f8f41523          	sh	a5,-118(s0)
    802065ba:	108aa783          	lw	a5,264(s5)
    802065be:	f8f42623          	sw	a5,-116(s0)
    802065c2:	4605                	li	a2,1
    802065c4:	85d2                	mv	a1,s4
    802065c6:	854a                	mv	a0,s2
    802065c8:	fffff097          	auipc	ra,0xfffff
    802065cc:	426080e7          	jalr	1062(ra) # 802059ee <reloc_clus>
    802065d0:	02000793          	li	a5,32
    802065d4:	0005071b          	sext.w	a4,a0
    802065d8:	f7040693          	addi	a3,s0,-144
    802065dc:	4601                	li	a2,0
    802065de:	4585                	li	a1,1
    802065e0:	10c92503          	lw	a0,268(s2)
    802065e4:	fffff097          	auipc	ra,0xfffff
    802065e8:	514080e7          	jalr	1300(ra) # 80205af8 <rw_clus>
    802065ec:	bb69                	j	80206386 <emake+0xaa>
    802065ee:	f7e40793          	addi	a5,s0,-130
    802065f2:	a019                	j	802065f8 <emake+0x31c>
    802065f4:	f8c40793          	addi	a5,s0,-116
    802065f8:	2705                	addiw	a4,a4,1
    802065fa:	fff7061b          	addiw	a2,a4,-1
    802065fe:	dab1                	beqz	a3,80206552 <emake+0x276>
    80206600:	01378023          	sb	s3,0(a5)
    80206604:	013780a3          	sb	s3,1(a5)
    80206608:	0789                	addi	a5,a5,2
    8020660a:	fea602e3          	beq	a2,a0,802065ee <emake+0x312>
    8020660e:	fe9603e3          	beq	a2,s1,802065f4 <emake+0x318>
    80206612:	0007061b          	sext.w	a2,a4
    80206616:	fec851e3          	bge	a6,a2,802065f8 <emake+0x31c>
    8020661a:	4605                	li	a2,1
    8020661c:	85e6                	mv	a1,s9
    8020661e:	854a                	mv	a0,s2
    80206620:	fffff097          	auipc	ra,0xfffff
    80206624:	3ce080e7          	jalr	974(ra) # 802059ee <reloc_clus>
    80206628:	02000793          	li	a5,32
    8020662c:	0005071b          	sext.w	a4,a0
    80206630:	f7040693          	addi	a3,s0,-144
    80206634:	866a                	mv	a2,s10
    80206636:	4585                	li	a1,1
    80206638:	10c92503          	lw	a0,268(s2)
    8020663c:	fffff097          	auipc	ra,0xfffff
    80206640:	4bc080e7          	jalr	1212(ra) # 80205af8 <rw_clus>
    80206644:	020c8c9b          	addiw	s9,s9,32
    80206648:	1bcd                	addi	s7,s7,-13
    8020664a:	f1605fe3          	blez	s6,80206568 <emake+0x28c>
    8020664e:	0ffb7793          	andi	a5,s6,255
    80206652:	eefc0be3          	beq	s8,a5,80206548 <emake+0x26c>
    80206656:	f6f40823          	sb	a5,-144(s0)
    8020665a:	3b7d                	addiw	s6,s6,-1
    8020665c:	85de                	mv	a1,s7
    8020665e:	4709                	li	a4,2
    80206660:	86ea                	mv	a3,s10
    80206662:	f7140793          	addi	a5,s0,-143
    80206666:	4515                	li	a0,5
    80206668:	4835                	li	a6,13
    8020666a:	bf41                	j	802065fa <emake+0x31e>
    8020666c:	02000793          	li	a5,32
    80206670:	eaf99be3          	bne	s3,a5,80206526 <emake+0x24a>
    80206674:	bd61                	j	8020650c <emake+0x230>

0000000080206676 <edup>:
    80206676:	1101                	addi	sp,sp,-32
    80206678:	ec06                	sd	ra,24(sp)
    8020667a:	e822                	sd	s0,16(sp)
    8020667c:	e426                	sd	s1,8(sp)
    8020667e:	1000                	addi	s0,sp,32
    80206680:	84aa                	mv	s1,a0
    80206682:	c515                	beqz	a0,802066ae <edup+0x38>
    80206684:	00225517          	auipc	a0,0x225
    80206688:	b0c50513          	addi	a0,a0,-1268 # 8042b190 <ecache>
    8020668c:	ffffa097          	auipc	ra,0xffffa
    80206690:	03a080e7          	jalr	58(ra) # 802006c6 <acquire>
    80206694:	1184a783          	lw	a5,280(s1)
    80206698:	2785                	addiw	a5,a5,1
    8020669a:	10f4ac23          	sw	a5,280(s1)
    8020669e:	00225517          	auipc	a0,0x225
    802066a2:	af250513          	addi	a0,a0,-1294 # 8042b190 <ecache>
    802066a6:	ffffa097          	auipc	ra,0xffffa
    802066aa:	074080e7          	jalr	116(ra) # 8020071a <release>
    802066ae:	8526                	mv	a0,s1
    802066b0:	60e2                	ld	ra,24(sp)
    802066b2:	6442                	ld	s0,16(sp)
    802066b4:	64a2                	ld	s1,8(sp)
    802066b6:	6105                	addi	sp,sp,32
    802066b8:	8082                	ret

00000000802066ba <eupdate>:
    802066ba:	11554783          	lbu	a5,277(a0)
    802066be:	cff1                	beqz	a5,8020679a <eupdate+0xe0>
    802066c0:	715d                	addi	sp,sp,-80
    802066c2:	e486                	sd	ra,72(sp)
    802066c4:	e0a2                	sd	s0,64(sp)
    802066c6:	fc26                	sd	s1,56(sp)
    802066c8:	f84a                	sd	s2,48(sp)
    802066ca:	0880                	addi	s0,sp,80
    802066cc:	84aa                	mv	s1,a0
    802066ce:	11651703          	lh	a4,278(a0)
    802066d2:	4785                	li	a5,1
    802066d4:	00f70863          	beq	a4,a5,802066e4 <eupdate+0x2a>
    802066d8:	60a6                	ld	ra,72(sp)
    802066da:	6406                	ld	s0,64(sp)
    802066dc:	74e2                	ld	s1,56(sp)
    802066de:	7942                	ld	s2,48(sp)
    802066e0:	6161                	addi	sp,sp,80
    802066e2:	8082                	ret
    802066e4:	fc042e23          	sw	zero,-36(s0)
    802066e8:	4601                	li	a2,0
    802066ea:	11c52583          	lw	a1,284(a0)
    802066ee:	12053503          	ld	a0,288(a0)
    802066f2:	fffff097          	auipc	ra,0xfffff
    802066f6:	2fc080e7          	jalr	764(ra) # 802059ee <reloc_clus>
    802066fa:	1204b803          	ld	a6,288(s1)
    802066fe:	4785                	li	a5,1
    80206700:	0005071b          	sext.w	a4,a0
    80206704:	fdc40693          	addi	a3,s0,-36
    80206708:	4601                	li	a2,0
    8020670a:	4581                	li	a1,0
    8020670c:	10c82503          	lw	a0,268(a6)
    80206710:	fffff097          	auipc	ra,0xfffff
    80206714:	3e8080e7          	jalr	1000(ra) # 80205af8 <rw_clus>
    80206718:	fdc42583          	lw	a1,-36(s0)
    8020671c:	fbf5f593          	andi	a1,a1,-65
    80206720:	fcb42e23          	sw	a1,-36(s0)
    80206724:	0055959b          	slliw	a1,a1,0x5
    80206728:	11c4a783          	lw	a5,284(s1)
    8020672c:	4601                	li	a2,0
    8020672e:	9dbd                	addw	a1,a1,a5
    80206730:	1204b503          	ld	a0,288(s1)
    80206734:	fffff097          	auipc	ra,0xfffff
    80206738:	2ba080e7          	jalr	698(ra) # 802059ee <reloc_clus>
    8020673c:	0005091b          	sext.w	s2,a0
    80206740:	1204b503          	ld	a0,288(s1)
    80206744:	02000793          	li	a5,32
    80206748:	874a                	mv	a4,s2
    8020674a:	fb840693          	addi	a3,s0,-72
    8020674e:	4601                	li	a2,0
    80206750:	4581                	li	a1,0
    80206752:	10c52503          	lw	a0,268(a0)
    80206756:	fffff097          	auipc	ra,0xfffff
    8020675a:	3a2080e7          	jalr	930(ra) # 80205af8 <rw_clus>
    8020675e:	1044a783          	lw	a5,260(s1)
    80206762:	0107d71b          	srliw	a4,a5,0x10
    80206766:	fce41623          	sh	a4,-52(s0)
    8020676a:	fcf41923          	sh	a5,-46(s0)
    8020676e:	1084a783          	lw	a5,264(s1)
    80206772:	fcf42a23          	sw	a5,-44(s0)
    80206776:	1204b503          	ld	a0,288(s1)
    8020677a:	02000793          	li	a5,32
    8020677e:	874a                	mv	a4,s2
    80206780:	fb840693          	addi	a3,s0,-72
    80206784:	4601                	li	a2,0
    80206786:	4585                	li	a1,1
    80206788:	10c52503          	lw	a0,268(a0)
    8020678c:	fffff097          	auipc	ra,0xfffff
    80206790:	36c080e7          	jalr	876(ra) # 80205af8 <rw_clus>
    80206794:	10048aa3          	sb	zero,277(s1)
    80206798:	b781                	j	802066d8 <eupdate+0x1e>
    8020679a:	8082                	ret

000000008020679c <eremove>:
    8020679c:	11651703          	lh	a4,278(a0)
    802067a0:	4785                	li	a5,1
    802067a2:	00f70363          	beq	a4,a5,802067a8 <eremove+0xc>
    802067a6:	8082                	ret
    802067a8:	7139                	addi	sp,sp,-64
    802067aa:	fc06                	sd	ra,56(sp)
    802067ac:	f822                	sd	s0,48(sp)
    802067ae:	f426                	sd	s1,40(sp)
    802067b0:	f04a                	sd	s2,32(sp)
    802067b2:	ec4e                	sd	s3,24(sp)
    802067b4:	e852                	sd	s4,16(sp)
    802067b6:	0080                	addi	s0,sp,64
    802067b8:	89aa                	mv	s3,a0
    802067ba:	fc042623          	sw	zero,-52(s0)
    802067be:	11c52a03          	lw	s4,284(a0)
    802067c2:	4601                	li	a2,0
    802067c4:	85d2                	mv	a1,s4
    802067c6:	12053503          	ld	a0,288(a0)
    802067ca:	fffff097          	auipc	ra,0xfffff
    802067ce:	224080e7          	jalr	548(ra) # 802059ee <reloc_clus>
    802067d2:	0005049b          	sext.w	s1,a0
    802067d6:	1209b503          	ld	a0,288(s3)
    802067da:	4785                	li	a5,1
    802067dc:	8726                	mv	a4,s1
    802067de:	fcc40693          	addi	a3,s0,-52
    802067e2:	4601                	li	a2,0
    802067e4:	4581                	li	a1,0
    802067e6:	10c52503          	lw	a0,268(a0)
    802067ea:	fffff097          	auipc	ra,0xfffff
    802067ee:	30e080e7          	jalr	782(ra) # 80205af8 <rw_clus>
    802067f2:	fcc42783          	lw	a5,-52(s0)
    802067f6:	fbf7f793          	andi	a5,a5,-65
    802067fa:	fcf42623          	sw	a5,-52(s0)
    802067fe:	5795                	li	a5,-27
    80206800:	fcf405a3          	sb	a5,-53(s0)
    80206804:	4901                	li	s2,0
    80206806:	1209b503          	ld	a0,288(s3)
    8020680a:	4785                	li	a5,1
    8020680c:	8726                	mv	a4,s1
    8020680e:	fcb40693          	addi	a3,s0,-53
    80206812:	4601                	li	a2,0
    80206814:	4585                	li	a1,1
    80206816:	10c52503          	lw	a0,268(a0)
    8020681a:	fffff097          	auipc	ra,0xfffff
    8020681e:	2de080e7          	jalr	734(ra) # 80205af8 <rw_clus>
    80206822:	020a0a1b          	addiw	s4,s4,32
    80206826:	4601                	li	a2,0
    80206828:	85d2                	mv	a1,s4
    8020682a:	1209b503          	ld	a0,288(s3)
    8020682e:	fffff097          	auipc	ra,0xfffff
    80206832:	1c0080e7          	jalr	448(ra) # 802059ee <reloc_clus>
    80206836:	0005049b          	sext.w	s1,a0
    8020683a:	0019079b          	addiw	a5,s2,1
    8020683e:	0007891b          	sext.w	s2,a5
    80206842:	fcc42703          	lw	a4,-52(s0)
    80206846:	fd2770e3          	bgeu	a4,s2,80206806 <eremove+0x6a>
    8020684a:	57fd                	li	a5,-1
    8020684c:	10f99b23          	sh	a5,278(s3)
    80206850:	70e2                	ld	ra,56(sp)
    80206852:	7442                	ld	s0,48(sp)
    80206854:	74a2                	ld	s1,40(sp)
    80206856:	7902                	ld	s2,32(sp)
    80206858:	69e2                	ld	s3,24(sp)
    8020685a:	6a42                	ld	s4,16(sp)
    8020685c:	6121                	addi	sp,sp,64
    8020685e:	8082                	ret

0000000080206860 <etrunc>:
    80206860:	7179                	addi	sp,sp,-48
    80206862:	f406                	sd	ra,40(sp)
    80206864:	f022                	sd	s0,32(sp)
    80206866:	ec26                	sd	s1,24(sp)
    80206868:	e84a                	sd	s2,16(sp)
    8020686a:	e44e                	sd	s3,8(sp)
    8020686c:	e052                	sd	s4,0(sp)
    8020686e:	1800                	addi	s0,sp,48
    80206870:	8a2a                	mv	s4,a0
    80206872:	10452483          	lw	s1,260(a0)
    80206876:	ffe4871b          	addiw	a4,s1,-2
    8020687a:	100007b7          	lui	a5,0x10000
    8020687e:	17d5                	addi	a5,a5,-11
    80206880:	02e7e663          	bltu	a5,a4,802068ac <etrunc+0x4c>
    80206884:	89be                	mv	s3,a5
    80206886:	0004891b          	sext.w	s2,s1
    8020688a:	8526                	mv	a0,s1
    8020688c:	fffff097          	auipc	ra,0xfffff
    80206890:	f2e080e7          	jalr	-210(ra) # 802057ba <read_fat>
    80206894:	0005049b          	sext.w	s1,a0
    80206898:	4581                	li	a1,0
    8020689a:	854a                	mv	a0,s2
    8020689c:	fffff097          	auipc	ra,0xfffff
    802068a0:	0d2080e7          	jalr	210(ra) # 8020596e <write_fat>
    802068a4:	ffe4879b          	addiw	a5,s1,-2
    802068a8:	fcf9ffe3          	bgeu	s3,a5,80206886 <etrunc+0x26>
    802068ac:	100a2423          	sw	zero,264(s4)
    802068b0:	100a2223          	sw	zero,260(s4)
    802068b4:	4785                	li	a5,1
    802068b6:	10fa0aa3          	sb	a5,277(s4)
    802068ba:	70a2                	ld	ra,40(sp)
    802068bc:	7402                	ld	s0,32(sp)
    802068be:	64e2                	ld	s1,24(sp)
    802068c0:	6942                	ld	s2,16(sp)
    802068c2:	69a2                	ld	s3,8(sp)
    802068c4:	6a02                	ld	s4,0(sp)
    802068c6:	6145                	addi	sp,sp,48
    802068c8:	8082                	ret

00000000802068ca <elock>:
    802068ca:	1141                	addi	sp,sp,-16
    802068cc:	e406                	sd	ra,8(sp)
    802068ce:	e022                	sd	s0,0(sp)
    802068d0:	0800                	addi	s0,sp,16
    802068d2:	cd19                	beqz	a0,802068f0 <elock+0x26>
    802068d4:	11852783          	lw	a5,280(a0)
    802068d8:	00f05c63          	blez	a5,802068f0 <elock+0x26>
    802068dc:	13850513          	addi	a0,a0,312
    802068e0:	ffffd097          	auipc	ra,0xffffd
    802068e4:	dc6080e7          	jalr	-570(ra) # 802036a6 <acquiresleep>
    802068e8:	60a2                	ld	ra,8(sp)
    802068ea:	6402                	ld	s0,0(sp)
    802068ec:	0141                	addi	sp,sp,16
    802068ee:	8082                	ret
    802068f0:	00003517          	auipc	a0,0x3
    802068f4:	62850513          	addi	a0,a0,1576 # 80209f18 <sysnames+0x360>
    802068f8:	ffffa097          	auipc	ra,0xffffa
    802068fc:	84c080e7          	jalr	-1972(ra) # 80200144 <panic>

0000000080206900 <eunlock>:
    80206900:	1101                	addi	sp,sp,-32
    80206902:	ec06                	sd	ra,24(sp)
    80206904:	e822                	sd	s0,16(sp)
    80206906:	e426                	sd	s1,8(sp)
    80206908:	e04a                	sd	s2,0(sp)
    8020690a:	1000                	addi	s0,sp,32
    8020690c:	c90d                	beqz	a0,8020693e <eunlock+0x3e>
    8020690e:	84aa                	mv	s1,a0
    80206910:	13850913          	addi	s2,a0,312
    80206914:	854a                	mv	a0,s2
    80206916:	ffffd097          	auipc	ra,0xffffd
    8020691a:	e2a080e7          	jalr	-470(ra) # 80203740 <holdingsleep>
    8020691e:	c105                	beqz	a0,8020693e <eunlock+0x3e>
    80206920:	1184a783          	lw	a5,280(s1)
    80206924:	00f05d63          	blez	a5,8020693e <eunlock+0x3e>
    80206928:	854a                	mv	a0,s2
    8020692a:	ffffd097          	auipc	ra,0xffffd
    8020692e:	dd2080e7          	jalr	-558(ra) # 802036fc <releasesleep>
    80206932:	60e2                	ld	ra,24(sp)
    80206934:	6442                	ld	s0,16(sp)
    80206936:	64a2                	ld	s1,8(sp)
    80206938:	6902                	ld	s2,0(sp)
    8020693a:	6105                	addi	sp,sp,32
    8020693c:	8082                	ret
    8020693e:	00003517          	auipc	a0,0x3
    80206942:	5e250513          	addi	a0,a0,1506 # 80209f20 <sysnames+0x368>
    80206946:	ffff9097          	auipc	ra,0xffff9
    8020694a:	7fe080e7          	jalr	2046(ra) # 80200144 <panic>

000000008020694e <eput>:
    8020694e:	1101                	addi	sp,sp,-32
    80206950:	ec06                	sd	ra,24(sp)
    80206952:	e822                	sd	s0,16(sp)
    80206954:	e426                	sd	s1,8(sp)
    80206956:	e04a                	sd	s2,0(sp)
    80206958:	1000                	addi	s0,sp,32
    8020695a:	84aa                	mv	s1,a0
    8020695c:	00225517          	auipc	a0,0x225
    80206960:	83450513          	addi	a0,a0,-1996 # 8042b190 <ecache>
    80206964:	ffffa097          	auipc	ra,0xffffa
    80206968:	d62080e7          	jalr	-670(ra) # 802006c6 <acquire>
    8020696c:	00224797          	auipc	a5,0x224
    80206970:	6bc78793          	addi	a5,a5,1724 # 8042b028 <root>
    80206974:	00f48a63          	beq	s1,a5,80206988 <eput+0x3a>
    80206978:	11649783          	lh	a5,278(s1)
    8020697c:	c791                	beqz	a5,80206988 <eput+0x3a>
    8020697e:	1184a703          	lw	a4,280(s1)
    80206982:	4785                	li	a5,1
    80206984:	02f70563          	beq	a4,a5,802069ae <eput+0x60>
    80206988:	1184a783          	lw	a5,280(s1)
    8020698c:	37fd                	addiw	a5,a5,-1
    8020698e:	10f4ac23          	sw	a5,280(s1)
    80206992:	00224517          	auipc	a0,0x224
    80206996:	7fe50513          	addi	a0,a0,2046 # 8042b190 <ecache>
    8020699a:	ffffa097          	auipc	ra,0xffffa
    8020699e:	d80080e7          	jalr	-640(ra) # 8020071a <release>
    802069a2:	60e2                	ld	ra,24(sp)
    802069a4:	6442                	ld	s0,16(sp)
    802069a6:	64a2                	ld	s1,8(sp)
    802069a8:	6902                	ld	s2,0(sp)
    802069aa:	6105                	addi	sp,sp,32
    802069ac:	8082                	ret
    802069ae:	13848913          	addi	s2,s1,312
    802069b2:	854a                	mv	a0,s2
    802069b4:	ffffd097          	auipc	ra,0xffffd
    802069b8:	cf2080e7          	jalr	-782(ra) # 802036a6 <acquiresleep>
    802069bc:	1284b703          	ld	a4,296(s1)
    802069c0:	1304b783          	ld	a5,304(s1)
    802069c4:	12f73823          	sd	a5,304(a4)
    802069c8:	1284b703          	ld	a4,296(s1)
    802069cc:	12e7b423          	sd	a4,296(a5)
    802069d0:	00224797          	auipc	a5,0x224
    802069d4:	63078793          	addi	a5,a5,1584 # 8042b000 <fat>
    802069d8:	1507b703          	ld	a4,336(a5)
    802069dc:	12e4b423          	sd	a4,296(s1)
    802069e0:	00224697          	auipc	a3,0x224
    802069e4:	64868693          	addi	a3,a3,1608 # 8042b028 <root>
    802069e8:	12d4b823          	sd	a3,304(s1)
    802069ec:	12973823          	sd	s1,304(a4)
    802069f0:	1497b823          	sd	s1,336(a5)
    802069f4:	00224517          	auipc	a0,0x224
    802069f8:	79c50513          	addi	a0,a0,1948 # 8042b190 <ecache>
    802069fc:	ffffa097          	auipc	ra,0xffffa
    80206a00:	d1e080e7          	jalr	-738(ra) # 8020071a <release>
    80206a04:	11649703          	lh	a4,278(s1)
    80206a08:	57fd                	li	a5,-1
    80206a0a:	06f70863          	beq	a4,a5,80206a7a <eput+0x12c>
    80206a0e:	1204b503          	ld	a0,288(s1)
    80206a12:	00000097          	auipc	ra,0x0
    80206a16:	eb8080e7          	jalr	-328(ra) # 802068ca <elock>
    80206a1a:	8526                	mv	a0,s1
    80206a1c:	00000097          	auipc	ra,0x0
    80206a20:	c9e080e7          	jalr	-866(ra) # 802066ba <eupdate>
    80206a24:	1204b503          	ld	a0,288(s1)
    80206a28:	00000097          	auipc	ra,0x0
    80206a2c:	ed8080e7          	jalr	-296(ra) # 80206900 <eunlock>
    80206a30:	854a                	mv	a0,s2
    80206a32:	ffffd097          	auipc	ra,0xffffd
    80206a36:	cca080e7          	jalr	-822(ra) # 802036fc <releasesleep>
    80206a3a:	1204b903          	ld	s2,288(s1)
    80206a3e:	00224517          	auipc	a0,0x224
    80206a42:	75250513          	addi	a0,a0,1874 # 8042b190 <ecache>
    80206a46:	ffffa097          	auipc	ra,0xffffa
    80206a4a:	c80080e7          	jalr	-896(ra) # 802006c6 <acquire>
    80206a4e:	1184a783          	lw	a5,280(s1)
    80206a52:	37fd                	addiw	a5,a5,-1
    80206a54:	10f4ac23          	sw	a5,280(s1)
    80206a58:	00224517          	auipc	a0,0x224
    80206a5c:	73850513          	addi	a0,a0,1848 # 8042b190 <ecache>
    80206a60:	ffffa097          	auipc	ra,0xffffa
    80206a64:	cba080e7          	jalr	-838(ra) # 8020071a <release>
    80206a68:	1184a783          	lw	a5,280(s1)
    80206a6c:	fb9d                	bnez	a5,802069a2 <eput+0x54>
    80206a6e:	854a                	mv	a0,s2
    80206a70:	00000097          	auipc	ra,0x0
    80206a74:	ede080e7          	jalr	-290(ra) # 8020694e <eput>
    80206a78:	b72d                	j	802069a2 <eput+0x54>
    80206a7a:	8526                	mv	a0,s1
    80206a7c:	00000097          	auipc	ra,0x0
    80206a80:	de4080e7          	jalr	-540(ra) # 80206860 <etrunc>
    80206a84:	b775                	j	80206a30 <eput+0xe2>

0000000080206a86 <estat>:
    80206a86:	1101                	addi	sp,sp,-32
    80206a88:	ec06                	sd	ra,24(sp)
    80206a8a:	e822                	sd	s0,16(sp)
    80206a8c:	e426                	sd	s1,8(sp)
    80206a8e:	e04a                	sd	s2,0(sp)
    80206a90:	1000                	addi	s0,sp,32
    80206a92:	892a                	mv	s2,a0
    80206a94:	84ae                	mv	s1,a1
    80206a96:	02000613          	li	a2,32
    80206a9a:	85aa                	mv	a1,a0
    80206a9c:	8526                	mv	a0,s1
    80206a9e:	ffffa097          	auipc	ra,0xffffa
    80206aa2:	ddc080e7          	jalr	-548(ra) # 8020087a <strncpy>
    80206aa6:	10094783          	lbu	a5,256(s2)
    80206aaa:	8bc1                	andi	a5,a5,16
    80206aac:	0017b793          	seqz	a5,a5
    80206ab0:	0785                	addi	a5,a5,1
    80206ab2:	02f49423          	sh	a5,40(s1)
    80206ab6:	11494783          	lbu	a5,276(s2)
    80206aba:	d0dc                	sw	a5,36(s1)
    80206abc:	10896783          	lwu	a5,264(s2)
    80206ac0:	f89c                	sd	a5,48(s1)
    80206ac2:	60e2                	ld	ra,24(sp)
    80206ac4:	6442                	ld	s0,16(sp)
    80206ac6:	64a2                	ld	s1,8(sp)
    80206ac8:	6902                	ld	s2,0(sp)
    80206aca:	6105                	addi	sp,sp,32
    80206acc:	8082                	ret

0000000080206ace <enext>:
    80206ace:	7119                	addi	sp,sp,-128
    80206ad0:	fc86                	sd	ra,120(sp)
    80206ad2:	f8a2                	sd	s0,112(sp)
    80206ad4:	f4a6                	sd	s1,104(sp)
    80206ad6:	f0ca                	sd	s2,96(sp)
    80206ad8:	ecce                	sd	s3,88(sp)
    80206ada:	e8d2                	sd	s4,80(sp)
    80206adc:	e4d6                	sd	s5,72(sp)
    80206ade:	e0da                	sd	s6,64(sp)
    80206ae0:	fc5e                	sd	s7,56(sp)
    80206ae2:	f862                	sd	s8,48(sp)
    80206ae4:	f466                	sd	s9,40(sp)
    80206ae6:	0100                	addi	s0,sp,128
    80206ae8:	10054783          	lbu	a5,256(a0)
    80206aec:	8bc1                	andi	a5,a5,16
    80206aee:	cf95                	beqz	a5,80206b2a <enext+0x5c>
    80206af0:	892a                	mv	s2,a0
    80206af2:	8a2e                	mv	s4,a1
    80206af4:	84b2                	mv	s1,a2
    80206af6:	89b6                	mv	s3,a3
    80206af8:	11659783          	lh	a5,278(a1)
    80206afc:	ef9d                	bnez	a5,80206b3a <enext+0x6c>
    80206afe:	01f67793          	andi	a5,a2,31
    80206b02:	e7a1                	bnez	a5,80206b4a <enext+0x7c>
    80206b04:	11651703          	lh	a4,278(a0)
    80206b08:	4785                	li	a5,1
    80206b0a:	557d                	li	a0,-1
    80206b0c:	04f70763          	beq	a4,a5,80206b5a <enext+0x8c>
    80206b10:	70e6                	ld	ra,120(sp)
    80206b12:	7446                	ld	s0,112(sp)
    80206b14:	74a6                	ld	s1,104(sp)
    80206b16:	7906                	ld	s2,96(sp)
    80206b18:	69e6                	ld	s3,88(sp)
    80206b1a:	6a46                	ld	s4,80(sp)
    80206b1c:	6aa6                	ld	s5,72(sp)
    80206b1e:	6b06                	ld	s6,64(sp)
    80206b20:	7be2                	ld	s7,56(sp)
    80206b22:	7c42                	ld	s8,48(sp)
    80206b24:	7ca2                	ld	s9,40(sp)
    80206b26:	6109                	addi	sp,sp,128
    80206b28:	8082                	ret
    80206b2a:	00003517          	auipc	a0,0x3
    80206b2e:	3fe50513          	addi	a0,a0,1022 # 80209f28 <sysnames+0x370>
    80206b32:	ffff9097          	auipc	ra,0xffff9
    80206b36:	612080e7          	jalr	1554(ra) # 80200144 <panic>
    80206b3a:	00003517          	auipc	a0,0x3
    80206b3e:	3fe50513          	addi	a0,a0,1022 # 80209f38 <sysnames+0x380>
    80206b42:	ffff9097          	auipc	ra,0xffff9
    80206b46:	602080e7          	jalr	1538(ra) # 80200144 <panic>
    80206b4a:	00003517          	auipc	a0,0x3
    80206b4e:	3fe50513          	addi	a0,a0,1022 # 80209f48 <sysnames+0x390>
    80206b52:	ffff9097          	auipc	ra,0xffff9
    80206b56:	5f2080e7          	jalr	1522(ra) # 80200144 <panic>
    80206b5a:	8cae                	mv	s9,a1
    80206b5c:	10000613          	li	a2,256
    80206b60:	4581                	li	a1,0
    80206b62:	8552                	mv	a0,s4
    80206b64:	ffffa097          	auipc	ra,0xffffa
    80206b68:	bfe080e7          	jalr	-1026(ra) # 80200762 <memset>
    80206b6c:	4a81                	li	s5,0
    80206b6e:	5b7d                	li	s6,-1
    80206b70:	0e500b93          	li	s7,229
    80206b74:	4c3d                	li	s8,15
    80206b76:	a805                	j	80206ba6 <enext+0xd8>
    80206b78:	2a85                	addiw	s5,s5,1
    80206b7a:	a025                	j	80206ba2 <enext+0xd4>
    80206b7c:	0159a023          	sw	s5,0(s3)
    80206b80:	4501                	li	a0,0
    80206b82:	b779                	j	80206b10 <enext+0x42>
    80206b84:	fff5079b          	addiw	a5,a0,-1
    80206b88:	0017951b          	slliw	a0,a5,0x1
    80206b8c:	9d3d                	addw	a0,a0,a5
    80206b8e:	0025151b          	slliw	a0,a0,0x2
    80206b92:	9d3d                	addw	a0,a0,a5
    80206b94:	f8040593          	addi	a1,s0,-128
    80206b98:	9566                	add	a0,a0,s9
    80206b9a:	fffff097          	auipc	ra,0xfffff
    80206b9e:	1b8080e7          	jalr	440(ra) # 80205d52 <read_entry_name>
    80206ba2:	0204849b          	addiw	s1,s1,32
    80206ba6:	4601                	li	a2,0
    80206ba8:	85a6                	mv	a1,s1
    80206baa:	854a                	mv	a0,s2
    80206bac:	fffff097          	auipc	ra,0xfffff
    80206bb0:	e42080e7          	jalr	-446(ra) # 802059ee <reloc_clus>
    80206bb4:	f5650ee3          	beq	a0,s6,80206b10 <enext+0x42>
    80206bb8:	02000793          	li	a5,32
    80206bbc:	0005071b          	sext.w	a4,a0
    80206bc0:	f8040693          	addi	a3,s0,-128
    80206bc4:	4601                	li	a2,0
    80206bc6:	4581                	li	a1,0
    80206bc8:	10c92503          	lw	a0,268(s2)
    80206bcc:	fffff097          	auipc	ra,0xfffff
    80206bd0:	f2c080e7          	jalr	-212(ra) # 80205af8 <rw_clus>
    80206bd4:	2501                	sext.w	a0,a0
    80206bd6:	02000793          	li	a5,32
    80206bda:	06f51c63          	bne	a0,a5,80206c52 <enext+0x184>
    80206bde:	f8044783          	lbu	a5,-128(s0)
    80206be2:	cbb5                	beqz	a5,80206c56 <enext+0x188>
    80206be4:	f9778ae3          	beq	a5,s7,80206b78 <enext+0xaa>
    80206be8:	f80a9ae3          	bnez	s5,80206b7c <enext+0xae>
    80206bec:	f8b44703          	lbu	a4,-117(s0)
    80206bf0:	01871d63          	bne	a4,s8,80206c0a <enext+0x13c>
    80206bf4:	0bf7f513          	andi	a0,a5,191
    80206bf8:	0407f793          	andi	a5,a5,64
    80206bfc:	d7c1                	beqz	a5,80206b84 <enext+0xb6>
    80206bfe:	0015079b          	addiw	a5,a0,1
    80206c02:	00f9a023          	sw	a5,0(s3)
    80206c06:	4981                	li	s3,0
    80206c08:	bfb5                	j	80206b84 <enext+0xb6>
    80206c0a:	00098c63          	beqz	s3,80206c22 <enext+0x154>
    80206c0e:	4785                	li	a5,1
    80206c10:	00f9a023          	sw	a5,0(s3)
    80206c14:	f8040593          	addi	a1,s0,-128
    80206c18:	8552                	mv	a0,s4
    80206c1a:	fffff097          	auipc	ra,0xfffff
    80206c1e:	138080e7          	jalr	312(ra) # 80205d52 <read_entry_name>
    80206c22:	f8b44783          	lbu	a5,-117(s0)
    80206c26:	10fa0023          	sb	a5,256(s4)
    80206c2a:	f9445783          	lhu	a5,-108(s0)
    80206c2e:	0107979b          	slliw	a5,a5,0x10
    80206c32:	f9a45703          	lhu	a4,-102(s0)
    80206c36:	8fd9                	or	a5,a5,a4
    80206c38:	2781                	sext.w	a5,a5
    80206c3a:	10fa2223          	sw	a5,260(s4)
    80206c3e:	f9c42703          	lw	a4,-100(s0)
    80206c42:	10ea2423          	sw	a4,264(s4)
    80206c46:	10fa2623          	sw	a5,268(s4)
    80206c4a:	100a2823          	sw	zero,272(s4)
    80206c4e:	4505                	li	a0,1
    80206c50:	b5c1                	j	80206b10 <enext+0x42>
    80206c52:	557d                	li	a0,-1
    80206c54:	bd75                	j	80206b10 <enext+0x42>
    80206c56:	557d                	li	a0,-1
    80206c58:	bd65                	j	80206b10 <enext+0x42>

0000000080206c5a <dirlookup>:
    80206c5a:	715d                	addi	sp,sp,-80
    80206c5c:	e486                	sd	ra,72(sp)
    80206c5e:	e0a2                	sd	s0,64(sp)
    80206c60:	fc26                	sd	s1,56(sp)
    80206c62:	f84a                	sd	s2,48(sp)
    80206c64:	f44e                	sd	s3,40(sp)
    80206c66:	f052                	sd	s4,32(sp)
    80206c68:	ec56                	sd	s5,24(sp)
    80206c6a:	e85a                	sd	s6,16(sp)
    80206c6c:	0880                	addi	s0,sp,80
    80206c6e:	10054783          	lbu	a5,256(a0)
    80206c72:	8bc1                	andi	a5,a5,16
    80206c74:	cbb1                	beqz	a5,80206cc8 <dirlookup+0x6e>
    80206c76:	84aa                	mv	s1,a0
    80206c78:	89ae                	mv	s3,a1
    80206c7a:	8ab2                	mv	s5,a2
    80206c7c:	0ff00613          	li	a2,255
    80206c80:	00003597          	auipc	a1,0x3
    80206c84:	2f058593          	addi	a1,a1,752 # 80209f70 <sysnames+0x3b8>
    80206c88:	854e                	mv	a0,s3
    80206c8a:	ffffa097          	auipc	ra,0xffffa
    80206c8e:	bb4080e7          	jalr	-1100(ra) # 8020083e <strncmp>
    80206c92:	c139                	beqz	a0,80206cd8 <dirlookup+0x7e>
    80206c94:	0ff00613          	li	a2,255
    80206c98:	00003597          	auipc	a1,0x3
    80206c9c:	2e058593          	addi	a1,a1,736 # 80209f78 <sysnames+0x3c0>
    80206ca0:	854e                	mv	a0,s3
    80206ca2:	ffffa097          	auipc	ra,0xffffa
    80206ca6:	b9c080e7          	jalr	-1124(ra) # 8020083e <strncmp>
    80206caa:	ed39                	bnez	a0,80206d08 <dirlookup+0xae>
    80206cac:	00224797          	auipc	a5,0x224
    80206cb0:	37c78793          	addi	a5,a5,892 # 8042b028 <root>
    80206cb4:	04f48363          	beq	s1,a5,80206cfa <dirlookup+0xa0>
    80206cb8:	1204b503          	ld	a0,288(s1)
    80206cbc:	00000097          	auipc	ra,0x0
    80206cc0:	9ba080e7          	jalr	-1606(ra) # 80206676 <edup>
    80206cc4:	892a                	mv	s2,a0
    80206cc6:	a839                	j	80206ce4 <dirlookup+0x8a>
    80206cc8:	00003517          	auipc	a0,0x3
    80206ccc:	29050513          	addi	a0,a0,656 # 80209f58 <sysnames+0x3a0>
    80206cd0:	ffff9097          	auipc	ra,0xffff9
    80206cd4:	474080e7          	jalr	1140(ra) # 80200144 <panic>
    80206cd8:	8526                	mv	a0,s1
    80206cda:	00000097          	auipc	ra,0x0
    80206cde:	99c080e7          	jalr	-1636(ra) # 80206676 <edup>
    80206ce2:	892a                	mv	s2,a0
    80206ce4:	854a                	mv	a0,s2
    80206ce6:	60a6                	ld	ra,72(sp)
    80206ce8:	6406                	ld	s0,64(sp)
    80206cea:	74e2                	ld	s1,56(sp)
    80206cec:	7942                	ld	s2,48(sp)
    80206cee:	79a2                	ld	s3,40(sp)
    80206cf0:	7a02                	ld	s4,32(sp)
    80206cf2:	6ae2                	ld	s5,24(sp)
    80206cf4:	6b42                	ld	s6,16(sp)
    80206cf6:	6161                	addi	sp,sp,80
    80206cf8:	8082                	ret
    80206cfa:	853e                	mv	a0,a5
    80206cfc:	00000097          	auipc	ra,0x0
    80206d00:	97a080e7          	jalr	-1670(ra) # 80206676 <edup>
    80206d04:	892a                	mv	s2,a0
    80206d06:	bff9                	j	80206ce4 <dirlookup+0x8a>
    80206d08:	11649703          	lh	a4,278(s1)
    80206d0c:	4785                	li	a5,1
    80206d0e:	4901                	li	s2,0
    80206d10:	fcf71ae3          	bne	a4,a5,80206ce4 <dirlookup+0x8a>
    80206d14:	85ce                	mv	a1,s3
    80206d16:	8526                	mv	a0,s1
    80206d18:	fffff097          	auipc	ra,0xfffff
    80206d1c:	f2c080e7          	jalr	-212(ra) # 80205c44 <eget>
    80206d20:	892a                	mv	s2,a0
    80206d22:	11651703          	lh	a4,278(a0)
    80206d26:	4785                	li	a5,1
    80206d28:	faf70ee3          	beq	a4,a5,80206ce4 <dirlookup+0x8a>
    80206d2c:	854e                	mv	a0,s3
    80206d2e:	ffffa097          	auipc	ra,0xffffa
    80206d32:	bbc080e7          	jalr	-1092(ra) # 802008ea <strlen>
    80206d36:	fa042e23          	sw	zero,-68(s0)
    80206d3a:	4601                	li	a2,0
    80206d3c:	4581                	li	a1,0
    80206d3e:	8526                	mv	a0,s1
    80206d40:	fffff097          	auipc	ra,0xfffff
    80206d44:	cae080e7          	jalr	-850(ra) # 802059ee <reloc_clus>
    80206d48:	4a01                	li	s4,0
    80206d4a:	5b7d                	li	s6,-1
    80206d4c:	fbc40693          	addi	a3,s0,-68
    80206d50:	8652                	mv	a2,s4
    80206d52:	85ca                	mv	a1,s2
    80206d54:	8526                	mv	a0,s1
    80206d56:	00000097          	auipc	ra,0x0
    80206d5a:	d78080e7          	jalr	-648(ra) # 80206ace <enext>
    80206d5e:	03650f63          	beq	a0,s6,80206d9c <dirlookup+0x142>
    80206d62:	0ff00613          	li	a2,255
    80206d66:	85ca                	mv	a1,s2
    80206d68:	854e                	mv	a0,s3
    80206d6a:	ffffa097          	auipc	ra,0xffffa
    80206d6e:	ad4080e7          	jalr	-1324(ra) # 8020083e <strncmp>
    80206d72:	c901                	beqz	a0,80206d82 <dirlookup+0x128>
    80206d74:	fbc42783          	lw	a5,-68(s0)
    80206d78:	0057979b          	slliw	a5,a5,0x5
    80206d7c:	01478a3b          	addw	s4,a5,s4
    80206d80:	b7f1                	j	80206d4c <dirlookup+0xf2>
    80206d82:	8526                	mv	a0,s1
    80206d84:	00000097          	auipc	ra,0x0
    80206d88:	8f2080e7          	jalr	-1806(ra) # 80206676 <edup>
    80206d8c:	12a93023          	sd	a0,288(s2)
    80206d90:	11492e23          	sw	s4,284(s2)
    80206d94:	4785                	li	a5,1
    80206d96:	10f91b23          	sh	a5,278(s2)
    80206d9a:	b7a9                	j	80206ce4 <dirlookup+0x8a>
    80206d9c:	000a8463          	beqz	s5,80206da4 <dirlookup+0x14a>
    80206da0:	014aa023          	sw	s4,0(s5)
    80206da4:	854a                	mv	a0,s2
    80206da6:	00000097          	auipc	ra,0x0
    80206daa:	ba8080e7          	jalr	-1112(ra) # 8020694e <eput>
    80206dae:	4901                	li	s2,0
    80206db0:	bf15                	j	80206ce4 <dirlookup+0x8a>

0000000080206db2 <ealloc>:
    80206db2:	7139                	addi	sp,sp,-64
    80206db4:	fc06                	sd	ra,56(sp)
    80206db6:	f822                	sd	s0,48(sp)
    80206db8:	f426                	sd	s1,40(sp)
    80206dba:	f04a                	sd	s2,32(sp)
    80206dbc:	ec4e                	sd	s3,24(sp)
    80206dbe:	e852                	sd	s4,16(sp)
    80206dc0:	0080                	addi	s0,sp,64
    80206dc2:	892a                	mv	s2,a0
    80206dc4:	10054783          	lbu	a5,256(a0)
    80206dc8:	8bc1                	andi	a5,a5,16
    80206dca:	c7a9                	beqz	a5,80206e14 <ealloc+0x62>
    80206dcc:	852e                	mv	a0,a1
    80206dce:	8a32                	mv	s4,a2
    80206dd0:	11691703          	lh	a4,278(s2)
    80206dd4:	4785                	li	a5,1
    80206dd6:	4481                	li	s1,0
    80206dd8:	02f71563          	bne	a4,a5,80206e02 <ealloc+0x50>
    80206ddc:	fffff097          	auipc	ra,0xfffff
    80206de0:	448080e7          	jalr	1096(ra) # 80206224 <formatname>
    80206de4:	89aa                	mv	s3,a0
    80206de6:	10050663          	beqz	a0,80206ef2 <ealloc+0x140>
    80206dea:	fc042623          	sw	zero,-52(s0)
    80206dee:	fcc40613          	addi	a2,s0,-52
    80206df2:	85aa                	mv	a1,a0
    80206df4:	854a                	mv	a0,s2
    80206df6:	00000097          	auipc	ra,0x0
    80206dfa:	e64080e7          	jalr	-412(ra) # 80206c5a <dirlookup>
    80206dfe:	84aa                	mv	s1,a0
    80206e00:	c115                	beqz	a0,80206e24 <ealloc+0x72>
    80206e02:	8526                	mv	a0,s1
    80206e04:	70e2                	ld	ra,56(sp)
    80206e06:	7442                	ld	s0,48(sp)
    80206e08:	74a2                	ld	s1,40(sp)
    80206e0a:	7902                	ld	s2,32(sp)
    80206e0c:	69e2                	ld	s3,24(sp)
    80206e0e:	6a42                	ld	s4,16(sp)
    80206e10:	6121                	addi	sp,sp,64
    80206e12:	8082                	ret
    80206e14:	00003517          	auipc	a0,0x3
    80206e18:	16c50513          	addi	a0,a0,364 # 80209f80 <sysnames+0x3c8>
    80206e1c:	ffff9097          	auipc	ra,0xffff9
    80206e20:	328080e7          	jalr	808(ra) # 80200144 <panic>
    80206e24:	85ce                	mv	a1,s3
    80206e26:	854a                	mv	a0,s2
    80206e28:	fffff097          	auipc	ra,0xfffff
    80206e2c:	e1c080e7          	jalr	-484(ra) # 80205c44 <eget>
    80206e30:	84aa                	mv	s1,a0
    80206e32:	00000097          	auipc	ra,0x0
    80206e36:	a98080e7          	jalr	-1384(ra) # 802068ca <elock>
    80206e3a:	11448023          	sb	s4,256(s1)
    80206e3e:	1004a423          	sw	zero,264(s1)
    80206e42:	1004a223          	sw	zero,260(s1)
    80206e46:	854a                	mv	a0,s2
    80206e48:	00000097          	auipc	ra,0x0
    80206e4c:	82e080e7          	jalr	-2002(ra) # 80206676 <edup>
    80206e50:	12a4b023          	sd	a0,288(s1)
    80206e54:	fcc42783          	lw	a5,-52(s0)
    80206e58:	10f4ae23          	sw	a5,284(s1)
    80206e5c:	1004a823          	sw	zero,272(s1)
    80206e60:	1004a623          	sw	zero,268(s1)
    80206e64:	10048aa3          	sb	zero,277(s1)
    80206e68:	0ff00613          	li	a2,255
    80206e6c:	85ce                	mv	a1,s3
    80206e6e:	8526                	mv	a0,s1
    80206e70:	ffffa097          	auipc	ra,0xffffa
    80206e74:	a0a080e7          	jalr	-1526(ra) # 8020087a <strncpy>
    80206e78:	0e048fa3          	sb	zero,255(s1)
    80206e7c:	47c1                	li	a5,16
    80206e7e:	02fa0963          	beq	s4,a5,80206eb0 <ealloc+0xfe>
    80206e82:	1004c783          	lbu	a5,256(s1)
    80206e86:	0207e793          	ori	a5,a5,32
    80206e8a:	10f48023          	sb	a5,256(s1)
    80206e8e:	fcc42603          	lw	a2,-52(s0)
    80206e92:	85a6                	mv	a1,s1
    80206e94:	854a                	mv	a0,s2
    80206e96:	fffff097          	auipc	ra,0xfffff
    80206e9a:	446080e7          	jalr	1094(ra) # 802062dc <emake>
    80206e9e:	4785                	li	a5,1
    80206ea0:	10f49b23          	sh	a5,278(s1)
    80206ea4:	8526                	mv	a0,s1
    80206ea6:	00000097          	auipc	ra,0x0
    80206eaa:	a5a080e7          	jalr	-1446(ra) # 80206900 <eunlock>
    80206eae:	bf91                	j	80206e02 <ealloc+0x50>
    80206eb0:	1004c783          	lbu	a5,256(s1)
    80206eb4:	0107e793          	ori	a5,a5,16
    80206eb8:	10f48023          	sb	a5,256(s1)
    80206ebc:	11494503          	lbu	a0,276(s2)
    80206ec0:	fffff097          	auipc	ra,0xfffff
    80206ec4:	96e080e7          	jalr	-1682(ra) # 8020582e <alloc_clus>
    80206ec8:	2501                	sext.w	a0,a0
    80206eca:	10a4a223          	sw	a0,260(s1)
    80206ece:	10a4a623          	sw	a0,268(s1)
    80206ed2:	4601                	li	a2,0
    80206ed4:	85a6                	mv	a1,s1
    80206ed6:	8526                	mv	a0,s1
    80206ed8:	fffff097          	auipc	ra,0xfffff
    80206edc:	404080e7          	jalr	1028(ra) # 802062dc <emake>
    80206ee0:	02000613          	li	a2,32
    80206ee4:	85ca                	mv	a1,s2
    80206ee6:	8526                	mv	a0,s1
    80206ee8:	fffff097          	auipc	ra,0xfffff
    80206eec:	3f4080e7          	jalr	1012(ra) # 802062dc <emake>
    80206ef0:	bf79                	j	80206e8e <ealloc+0xdc>
    80206ef2:	84aa                	mv	s1,a0
    80206ef4:	b739                	j	80206e02 <ealloc+0x50>

0000000080206ef6 <lookup_path>:
    80206ef6:	715d                	addi	sp,sp,-80
    80206ef8:	e486                	sd	ra,72(sp)
    80206efa:	e0a2                	sd	s0,64(sp)
    80206efc:	fc26                	sd	s1,56(sp)
    80206efe:	f84a                	sd	s2,48(sp)
    80206f00:	f44e                	sd	s3,40(sp)
    80206f02:	f052                	sd	s4,32(sp)
    80206f04:	ec56                	sd	s5,24(sp)
    80206f06:	e85a                	sd	s6,16(sp)
    80206f08:	e45e                	sd	s7,8(sp)
    80206f0a:	e062                	sd	s8,0(sp)
    80206f0c:	0880                	addi	s0,sp,80
    80206f0e:	892a                	mv	s2,a0
    80206f10:	8b2e                	mv	s6,a1
    80206f12:	8ab2                	mv	s5,a2
    80206f14:	00054783          	lbu	a5,0(a0)
    80206f18:	02f00713          	li	a4,47
    80206f1c:	02e78663          	beq	a5,a4,80206f48 <lookup_path+0x52>
    80206f20:	4981                	li	s3,0
    80206f22:	cba1                	beqz	a5,80206f72 <lookup_path+0x7c>
    80206f24:	ffffb097          	auipc	ra,0xffffb
    80206f28:	c14080e7          	jalr	-1004(ra) # 80201b38 <myproc>
    80206f2c:	15853503          	ld	a0,344(a0)
    80206f30:	fffff097          	auipc	ra,0xfffff
    80206f34:	746080e7          	jalr	1862(ra) # 80206676 <edup>
    80206f38:	89aa                	mv	s3,a0
    80206f3a:	02f00a13          	li	s4,47
    80206f3e:	0ff00b93          	li	s7,255
    80206f42:	0ff00c13          	li	s8,255
    80206f46:	a0dd                	j	8020702c <lookup_path+0x136>
    80206f48:	00224517          	auipc	a0,0x224
    80206f4c:	0e050513          	addi	a0,a0,224 # 8042b028 <root>
    80206f50:	fffff097          	auipc	ra,0xfffff
    80206f54:	726080e7          	jalr	1830(ra) # 80206676 <edup>
    80206f58:	89aa                	mv	s3,a0
    80206f5a:	b7c5                	j	80206f3a <lookup_path+0x44>
    80206f5c:	854e                	mv	a0,s3
    80206f5e:	00000097          	auipc	ra,0x0
    80206f62:	9a2080e7          	jalr	-1630(ra) # 80206900 <eunlock>
    80206f66:	854e                	mv	a0,s3
    80206f68:	00000097          	auipc	ra,0x0
    80206f6c:	9e6080e7          	jalr	-1562(ra) # 8020694e <eput>
    80206f70:	4981                	li	s3,0
    80206f72:	854e                	mv	a0,s3
    80206f74:	60a6                	ld	ra,72(sp)
    80206f76:	6406                	ld	s0,64(sp)
    80206f78:	74e2                	ld	s1,56(sp)
    80206f7a:	7942                	ld	s2,48(sp)
    80206f7c:	79a2                	ld	s3,40(sp)
    80206f7e:	7a02                	ld	s4,32(sp)
    80206f80:	6ae2                	ld	s5,24(sp)
    80206f82:	6b42                	ld	s6,16(sp)
    80206f84:	6ba2                	ld	s7,8(sp)
    80206f86:	6c02                	ld	s8,0(sp)
    80206f88:	6161                	addi	sp,sp,80
    80206f8a:	8082                	ret
    80206f8c:	854e                	mv	a0,s3
    80206f8e:	00000097          	auipc	ra,0x0
    80206f92:	972080e7          	jalr	-1678(ra) # 80206900 <eunlock>
    80206f96:	bff1                	j	80206f72 <lookup_path+0x7c>
    80206f98:	854e                	mv	a0,s3
    80206f9a:	00000097          	auipc	ra,0x0
    80206f9e:	966080e7          	jalr	-1690(ra) # 80206900 <eunlock>
    80206fa2:	854e                	mv	a0,s3
    80206fa4:	00000097          	auipc	ra,0x0
    80206fa8:	9aa080e7          	jalr	-1622(ra) # 8020694e <eput>
    80206fac:	89ca                	mv	s3,s2
    80206fae:	b7d1                	j	80206f72 <lookup_path+0x7c>
    80206fb0:	412487bb          	subw	a5,s1,s2
    80206fb4:	863e                	mv	a2,a5
    80206fb6:	00fbd363          	bge	s7,a5,80206fbc <lookup_path+0xc6>
    80206fba:	8662                	mv	a2,s8
    80206fbc:	0006079b          	sext.w	a5,a2
    80206fc0:	97d6                	add	a5,a5,s5
    80206fc2:	00078023          	sb	zero,0(a5)
    80206fc6:	2601                	sext.w	a2,a2
    80206fc8:	85ca                	mv	a1,s2
    80206fca:	8556                	mv	a0,s5
    80206fcc:	ffff9097          	auipc	ra,0xffff9
    80206fd0:	7f6080e7          	jalr	2038(ra) # 802007c2 <memmove>
    80206fd4:	0004c783          	lbu	a5,0(s1)
    80206fd8:	01479763          	bne	a5,s4,80206fe6 <lookup_path+0xf0>
    80206fdc:	0485                	addi	s1,s1,1
    80206fde:	0004c783          	lbu	a5,0(s1)
    80206fe2:	ff478de3          	beq	a5,s4,80206fdc <lookup_path+0xe6>
    80206fe6:	854e                	mv	a0,s3
    80206fe8:	00000097          	auipc	ra,0x0
    80206fec:	8e2080e7          	jalr	-1822(ra) # 802068ca <elock>
    80206ff0:	1009c783          	lbu	a5,256(s3)
    80206ff4:	8bc1                	andi	a5,a5,16
    80206ff6:	d3bd                	beqz	a5,80206f5c <lookup_path+0x66>
    80206ff8:	000b0563          	beqz	s6,80207002 <lookup_path+0x10c>
    80206ffc:	0004c783          	lbu	a5,0(s1)
    80207000:	d7d1                	beqz	a5,80206f8c <lookup_path+0x96>
    80207002:	4601                	li	a2,0
    80207004:	85d6                	mv	a1,s5
    80207006:	854e                	mv	a0,s3
    80207008:	00000097          	auipc	ra,0x0
    8020700c:	c52080e7          	jalr	-942(ra) # 80206c5a <dirlookup>
    80207010:	892a                	mv	s2,a0
    80207012:	d159                	beqz	a0,80206f98 <lookup_path+0xa2>
    80207014:	854e                	mv	a0,s3
    80207016:	00000097          	auipc	ra,0x0
    8020701a:	8ea080e7          	jalr	-1814(ra) # 80206900 <eunlock>
    8020701e:	854e                	mv	a0,s3
    80207020:	00000097          	auipc	ra,0x0
    80207024:	92e080e7          	jalr	-1746(ra) # 8020694e <eput>
    80207028:	89ca                	mv	s3,s2
    8020702a:	8926                	mv	s2,s1
    8020702c:	00094783          	lbu	a5,0(s2)
    80207030:	03479363          	bne	a5,s4,80207056 <lookup_path+0x160>
    80207034:	0905                	addi	s2,s2,1
    80207036:	00094783          	lbu	a5,0(s2)
    8020703a:	ff478de3          	beq	a5,s4,80207034 <lookup_path+0x13e>
    8020703e:	cf89                	beqz	a5,80207058 <lookup_path+0x162>
    80207040:	84ca                	mv	s1,s2
    80207042:	f74787e3          	beq	a5,s4,80206fb0 <lookup_path+0xba>
    80207046:	84ca                	mv	s1,s2
    80207048:	d7a5                	beqz	a5,80206fb0 <lookup_path+0xba>
    8020704a:	0485                	addi	s1,s1,1
    8020704c:	0004c783          	lbu	a5,0(s1)
    80207050:	ff479ce3          	bne	a5,s4,80207048 <lookup_path+0x152>
    80207054:	bfb1                	j	80206fb0 <lookup_path+0xba>
    80207056:	fbe5                	bnez	a5,80207046 <lookup_path+0x150>
    80207058:	f00b0de3          	beqz	s6,80206f72 <lookup_path+0x7c>
    8020705c:	854e                	mv	a0,s3
    8020705e:	00000097          	auipc	ra,0x0
    80207062:	8f0080e7          	jalr	-1808(ra) # 8020694e <eput>
    80207066:	4981                	li	s3,0
    80207068:	b729                	j	80206f72 <lookup_path+0x7c>

000000008020706a <ename>:
    8020706a:	716d                	addi	sp,sp,-272
    8020706c:	e606                	sd	ra,264(sp)
    8020706e:	e222                	sd	s0,256(sp)
    80207070:	0a00                	addi	s0,sp,272
    80207072:	ef040613          	addi	a2,s0,-272
    80207076:	4581                	li	a1,0
    80207078:	00000097          	auipc	ra,0x0
    8020707c:	e7e080e7          	jalr	-386(ra) # 80206ef6 <lookup_path>
    80207080:	60b2                	ld	ra,264(sp)
    80207082:	6412                	ld	s0,256(sp)
    80207084:	6151                	addi	sp,sp,272
    80207086:	8082                	ret

0000000080207088 <enameparent>:
    80207088:	1141                	addi	sp,sp,-16
    8020708a:	e406                	sd	ra,8(sp)
    8020708c:	e022                	sd	s0,0(sp)
    8020708e:	0800                	addi	s0,sp,16
    80207090:	862e                	mv	a2,a1
    80207092:	4585                	li	a1,1
    80207094:	00000097          	auipc	ra,0x0
    80207098:	e62080e7          	jalr	-414(ra) # 80206ef6 <lookup_path>
    8020709c:	60a2                	ld	ra,8(sp)
    8020709e:	6402                	ld	s0,0(sp)
    802070a0:	0141                	addi	sp,sp,16
    802070a2:	8082                	ret

00000000802070a4 <plicinit>:
    802070a4:	1141                	addi	sp,sp,-16
    802070a6:	e422                	sd	s0,8(sp)
    802070a8:	0800                	addi	s0,sp,16
    802070aa:	00fc37b7          	lui	a5,0xfc3
    802070ae:	07ba                	slli	a5,a5,0xe
    802070b0:	4705                	li	a4,1
    802070b2:	c3d8                	sw	a4,4(a5)
    802070b4:	c3d8                	sw	a4,4(a5)
    802070b6:	d798                	sw	a4,40(a5)
    802070b8:	6422                	ld	s0,8(sp)
    802070ba:	0141                	addi	sp,sp,16
    802070bc:	8082                	ret

00000000802070be <plicinithart>:
    802070be:	1141                	addi	sp,sp,-16
    802070c0:	e406                	sd	ra,8(sp)
    802070c2:	e022                	sd	s0,0(sp)
    802070c4:	0800                	addi	s0,sp,16
    802070c6:	ffffb097          	auipc	ra,0xffffb
    802070ca:	a46080e7          	jalr	-1466(ra) # 80201b0c <cpuid>
    802070ce:	0085171b          	slliw	a4,a0,0x8
    802070d2:	01f867b7          	lui	a5,0x1f86
    802070d6:	0785                	addi	a5,a5,1
    802070d8:	07b6                	slli	a5,a5,0xd
    802070da:	97ba                	add	a5,a5,a4
    802070dc:	40200713          	li	a4,1026
    802070e0:	08e7a023          	sw	a4,128(a5) # 1f86080 <_entry-0x7e279f80>
    802070e4:	00d5179b          	slliw	a5,a0,0xd
    802070e8:	03f0c537          	lui	a0,0x3f0c
    802070ec:	20150513          	addi	a0,a0,513 # 3f0c201 <_entry-0x7c2f3dff>
    802070f0:	0532                	slli	a0,a0,0xc
    802070f2:	953e                	add	a0,a0,a5
    802070f4:	00052023          	sw	zero,0(a0)
    802070f8:	60a2                	ld	ra,8(sp)
    802070fa:	6402                	ld	s0,0(sp)
    802070fc:	0141                	addi	sp,sp,16
    802070fe:	8082                	ret

0000000080207100 <plic_claim>:
    80207100:	1141                	addi	sp,sp,-16
    80207102:	e406                	sd	ra,8(sp)
    80207104:	e022                	sd	s0,0(sp)
    80207106:	0800                	addi	s0,sp,16
    80207108:	ffffb097          	auipc	ra,0xffffb
    8020710c:	a04080e7          	jalr	-1532(ra) # 80201b0c <cpuid>
    80207110:	00d5179b          	slliw	a5,a0,0xd
    80207114:	03f0c537          	lui	a0,0x3f0c
    80207118:	20150513          	addi	a0,a0,513 # 3f0c201 <_entry-0x7c2f3dff>
    8020711c:	0532                	slli	a0,a0,0xc
    8020711e:	953e                	add	a0,a0,a5
    80207120:	4148                	lw	a0,4(a0)
    80207122:	60a2                	ld	ra,8(sp)
    80207124:	6402                	ld	s0,0(sp)
    80207126:	0141                	addi	sp,sp,16
    80207128:	8082                	ret

000000008020712a <plic_complete>:
    8020712a:	1101                	addi	sp,sp,-32
    8020712c:	ec06                	sd	ra,24(sp)
    8020712e:	e822                	sd	s0,16(sp)
    80207130:	e426                	sd	s1,8(sp)
    80207132:	1000                	addi	s0,sp,32
    80207134:	84aa                	mv	s1,a0
    80207136:	ffffb097          	auipc	ra,0xffffb
    8020713a:	9d6080e7          	jalr	-1578(ra) # 80201b0c <cpuid>
    8020713e:	00d5151b          	slliw	a0,a0,0xd
    80207142:	03f0c7b7          	lui	a5,0x3f0c
    80207146:	20178793          	addi	a5,a5,513 # 3f0c201 <_entry-0x7c2f3dff>
    8020714a:	07b2                	slli	a5,a5,0xc
    8020714c:	97aa                	add	a5,a5,a0
    8020714e:	c3c4                	sw	s1,4(a5)
    80207150:	60e2                	ld	ra,24(sp)
    80207152:	6442                	ld	s0,16(sp)
    80207154:	64a2                	ld	s1,8(sp)
    80207156:	6105                	addi	sp,sp,32
    80207158:	8082                	ret

000000008020715a <consolewrite>:
    8020715a:	715d                	addi	sp,sp,-80
    8020715c:	e486                	sd	ra,72(sp)
    8020715e:	e0a2                	sd	s0,64(sp)
    80207160:	fc26                	sd	s1,56(sp)
    80207162:	f84a                	sd	s2,48(sp)
    80207164:	f44e                	sd	s3,40(sp)
    80207166:	f052                	sd	s4,32(sp)
    80207168:	ec56                	sd	s5,24(sp)
    8020716a:	0880                	addi	s0,sp,80
    8020716c:	8a2a                	mv	s4,a0
    8020716e:	84ae                	mv	s1,a1
    80207170:	89b2                	mv	s3,a2
    80207172:	00228517          	auipc	a0,0x228
    80207176:	68650513          	addi	a0,a0,1670 # 8042f7f8 <cons>
    8020717a:	ffff9097          	auipc	ra,0xffff9
    8020717e:	54c080e7          	jalr	1356(ra) # 802006c6 <acquire>
    80207182:	05305d63          	blez	s3,802071dc <consolewrite+0x82>
    80207186:	4901                	li	s2,0
    80207188:	5afd                	li	s5,-1
    8020718a:	4685                	li	a3,1
    8020718c:	8626                	mv	a2,s1
    8020718e:	85d2                	mv	a1,s4
    80207190:	fbf40513          	addi	a0,s0,-65
    80207194:	ffffb097          	auipc	ra,0xffffb
    80207198:	4a2080e7          	jalr	1186(ra) # 80202636 <either_copyin>
    8020719c:	01550e63          	beq	a0,s5,802071b8 <consolewrite+0x5e>
    802071a0:	fbf44503          	lbu	a0,-65(s0)
    802071a4:	4581                	li	a1,0
    802071a6:	4601                	li	a2,0
    802071a8:	4681                	li	a3,0
    802071aa:	4885                	li	a7,1
    802071ac:	00000073          	ecall
    802071b0:	2905                	addiw	s2,s2,1
    802071b2:	0485                	addi	s1,s1,1
    802071b4:	fd299be3          	bne	s3,s2,8020718a <consolewrite+0x30>
    802071b8:	00228517          	auipc	a0,0x228
    802071bc:	64050513          	addi	a0,a0,1600 # 8042f7f8 <cons>
    802071c0:	ffff9097          	auipc	ra,0xffff9
    802071c4:	55a080e7          	jalr	1370(ra) # 8020071a <release>
    802071c8:	854a                	mv	a0,s2
    802071ca:	60a6                	ld	ra,72(sp)
    802071cc:	6406                	ld	s0,64(sp)
    802071ce:	74e2                	ld	s1,56(sp)
    802071d0:	7942                	ld	s2,48(sp)
    802071d2:	79a2                	ld	s3,40(sp)
    802071d4:	7a02                	ld	s4,32(sp)
    802071d6:	6ae2                	ld	s5,24(sp)
    802071d8:	6161                	addi	sp,sp,80
    802071da:	8082                	ret
    802071dc:	4901                	li	s2,0
    802071de:	bfe9                	j	802071b8 <consolewrite+0x5e>

00000000802071e0 <consoleread>:
    802071e0:	7119                	addi	sp,sp,-128
    802071e2:	fc86                	sd	ra,120(sp)
    802071e4:	f8a2                	sd	s0,112(sp)
    802071e6:	f4a6                	sd	s1,104(sp)
    802071e8:	f0ca                	sd	s2,96(sp)
    802071ea:	ecce                	sd	s3,88(sp)
    802071ec:	e8d2                	sd	s4,80(sp)
    802071ee:	e4d6                	sd	s5,72(sp)
    802071f0:	e0da                	sd	s6,64(sp)
    802071f2:	fc5e                	sd	s7,56(sp)
    802071f4:	f862                	sd	s8,48(sp)
    802071f6:	f466                	sd	s9,40(sp)
    802071f8:	f06a                	sd	s10,32(sp)
    802071fa:	ec6e                	sd	s11,24(sp)
    802071fc:	0100                	addi	s0,sp,128
    802071fe:	8b2a                	mv	s6,a0
    80207200:	8aae                	mv	s5,a1
    80207202:	8a32                	mv	s4,a2
    80207204:	00060b9b          	sext.w	s7,a2
    80207208:	00228517          	auipc	a0,0x228
    8020720c:	5f050513          	addi	a0,a0,1520 # 8042f7f8 <cons>
    80207210:	ffff9097          	auipc	ra,0xffff9
    80207214:	4b6080e7          	jalr	1206(ra) # 802006c6 <acquire>
    80207218:	00228497          	auipc	s1,0x228
    8020721c:	5e048493          	addi	s1,s1,1504 # 8042f7f8 <cons>
    80207220:	89a6                	mv	s3,s1
    80207222:	00228917          	auipc	s2,0x228
    80207226:	66e90913          	addi	s2,s2,1646 # 8042f890 <cons+0x98>
    8020722a:	4c91                	li	s9,4
    8020722c:	5d7d                	li	s10,-1
    8020722e:	4da9                	li	s11,10
    80207230:	07405863          	blez	s4,802072a0 <consoleread+0xc0>
    80207234:	0984a783          	lw	a5,152(s1)
    80207238:	09c4a703          	lw	a4,156(s1)
    8020723c:	02f71463          	bne	a4,a5,80207264 <consoleread+0x84>
    80207240:	ffffb097          	auipc	ra,0xffffb
    80207244:	8f8080e7          	jalr	-1800(ra) # 80201b38 <myproc>
    80207248:	591c                	lw	a5,48(a0)
    8020724a:	e7b5                	bnez	a5,802072b6 <consoleread+0xd6>
    8020724c:	85ce                	mv	a1,s3
    8020724e:	854a                	mv	a0,s2
    80207250:	ffffb097          	auipc	ra,0xffffb
    80207254:	152080e7          	jalr	338(ra) # 802023a2 <sleep>
    80207258:	0984a783          	lw	a5,152(s1)
    8020725c:	09c4a703          	lw	a4,156(s1)
    80207260:	fef700e3          	beq	a4,a5,80207240 <consoleread+0x60>
    80207264:	0017871b          	addiw	a4,a5,1
    80207268:	08e4ac23          	sw	a4,152(s1)
    8020726c:	07f7f713          	andi	a4,a5,127
    80207270:	9726                	add	a4,a4,s1
    80207272:	01874703          	lbu	a4,24(a4)
    80207276:	00070c1b          	sext.w	s8,a4
    8020727a:	079c0663          	beq	s8,s9,802072e6 <consoleread+0x106>
    8020727e:	f8e407a3          	sb	a4,-113(s0)
    80207282:	4685                	li	a3,1
    80207284:	f8f40613          	addi	a2,s0,-113
    80207288:	85d6                	mv	a1,s5
    8020728a:	855a                	mv	a0,s6
    8020728c:	ffffb097          	auipc	ra,0xffffb
    80207290:	374080e7          	jalr	884(ra) # 80202600 <either_copyout>
    80207294:	01a50663          	beq	a0,s10,802072a0 <consoleread+0xc0>
    80207298:	0a85                	addi	s5,s5,1
    8020729a:	3a7d                	addiw	s4,s4,-1
    8020729c:	f9bc1ae3          	bne	s8,s11,80207230 <consoleread+0x50>
    802072a0:	00228517          	auipc	a0,0x228
    802072a4:	55850513          	addi	a0,a0,1368 # 8042f7f8 <cons>
    802072a8:	ffff9097          	auipc	ra,0xffff9
    802072ac:	472080e7          	jalr	1138(ra) # 8020071a <release>
    802072b0:	414b853b          	subw	a0,s7,s4
    802072b4:	a811                	j	802072c8 <consoleread+0xe8>
    802072b6:	00228517          	auipc	a0,0x228
    802072ba:	54250513          	addi	a0,a0,1346 # 8042f7f8 <cons>
    802072be:	ffff9097          	auipc	ra,0xffff9
    802072c2:	45c080e7          	jalr	1116(ra) # 8020071a <release>
    802072c6:	557d                	li	a0,-1
    802072c8:	70e6                	ld	ra,120(sp)
    802072ca:	7446                	ld	s0,112(sp)
    802072cc:	74a6                	ld	s1,104(sp)
    802072ce:	7906                	ld	s2,96(sp)
    802072d0:	69e6                	ld	s3,88(sp)
    802072d2:	6a46                	ld	s4,80(sp)
    802072d4:	6aa6                	ld	s5,72(sp)
    802072d6:	6b06                	ld	s6,64(sp)
    802072d8:	7be2                	ld	s7,56(sp)
    802072da:	7c42                	ld	s8,48(sp)
    802072dc:	7ca2                	ld	s9,40(sp)
    802072de:	7d02                	ld	s10,32(sp)
    802072e0:	6de2                	ld	s11,24(sp)
    802072e2:	6109                	addi	sp,sp,128
    802072e4:	8082                	ret
    802072e6:	000a071b          	sext.w	a4,s4
    802072ea:	fb777be3          	bgeu	a4,s7,802072a0 <consoleread+0xc0>
    802072ee:	00228717          	auipc	a4,0x228
    802072f2:	5af72123          	sw	a5,1442(a4) # 8042f890 <cons+0x98>
    802072f6:	b76d                	j	802072a0 <consoleread+0xc0>

00000000802072f8 <consputc>:
    802072f8:	1141                	addi	sp,sp,-16
    802072fa:	e422                	sd	s0,8(sp)
    802072fc:	0800                	addi	s0,sp,16
    802072fe:	10000793          	li	a5,256
    80207302:	00f50b63          	beq	a0,a5,80207318 <consputc+0x20>
    80207306:	4581                	li	a1,0
    80207308:	4601                	li	a2,0
    8020730a:	4681                	li	a3,0
    8020730c:	4885                	li	a7,1
    8020730e:	00000073          	ecall
    80207312:	6422                	ld	s0,8(sp)
    80207314:	0141                	addi	sp,sp,16
    80207316:	8082                	ret
    80207318:	4521                	li	a0,8
    8020731a:	4581                	li	a1,0
    8020731c:	4601                	li	a2,0
    8020731e:	4681                	li	a3,0
    80207320:	4885                	li	a7,1
    80207322:	00000073          	ecall
    80207326:	02000513          	li	a0,32
    8020732a:	00000073          	ecall
    8020732e:	4521                	li	a0,8
    80207330:	00000073          	ecall
    80207334:	bff9                	j	80207312 <consputc+0x1a>

0000000080207336 <consoleintr>:
    80207336:	1101                	addi	sp,sp,-32
    80207338:	ec06                	sd	ra,24(sp)
    8020733a:	e822                	sd	s0,16(sp)
    8020733c:	e426                	sd	s1,8(sp)
    8020733e:	e04a                	sd	s2,0(sp)
    80207340:	1000                	addi	s0,sp,32
    80207342:	84aa                	mv	s1,a0
    80207344:	00228517          	auipc	a0,0x228
    80207348:	4b450513          	addi	a0,a0,1204 # 8042f7f8 <cons>
    8020734c:	ffff9097          	auipc	ra,0xffff9
    80207350:	37a080e7          	jalr	890(ra) # 802006c6 <acquire>
    80207354:	47d5                	li	a5,21
    80207356:	0af48663          	beq	s1,a5,80207402 <consoleintr+0xcc>
    8020735a:	0297ca63          	blt	a5,s1,8020738e <consoleintr+0x58>
    8020735e:	47a1                	li	a5,8
    80207360:	0ef48763          	beq	s1,a5,8020744e <consoleintr+0x118>
    80207364:	47c1                	li	a5,16
    80207366:	10f49a63          	bne	s1,a5,8020747a <consoleintr+0x144>
    8020736a:	ffffb097          	auipc	ra,0xffffb
    8020736e:	300080e7          	jalr	768(ra) # 8020266a <procdump>
    80207372:	00228517          	auipc	a0,0x228
    80207376:	48650513          	addi	a0,a0,1158 # 8042f7f8 <cons>
    8020737a:	ffff9097          	auipc	ra,0xffff9
    8020737e:	3a0080e7          	jalr	928(ra) # 8020071a <release>
    80207382:	60e2                	ld	ra,24(sp)
    80207384:	6442                	ld	s0,16(sp)
    80207386:	64a2                	ld	s1,8(sp)
    80207388:	6902                	ld	s2,0(sp)
    8020738a:	6105                	addi	sp,sp,32
    8020738c:	8082                	ret
    8020738e:	07f00793          	li	a5,127
    80207392:	0af48e63          	beq	s1,a5,8020744e <consoleintr+0x118>
    80207396:	00228717          	auipc	a4,0x228
    8020739a:	46270713          	addi	a4,a4,1122 # 8042f7f8 <cons>
    8020739e:	0a072783          	lw	a5,160(a4)
    802073a2:	09872703          	lw	a4,152(a4)
    802073a6:	9f99                	subw	a5,a5,a4
    802073a8:	07f00713          	li	a4,127
    802073ac:	fcf763e3          	bltu	a4,a5,80207372 <consoleintr+0x3c>
    802073b0:	47b5                	li	a5,13
    802073b2:	0cf48763          	beq	s1,a5,80207480 <consoleintr+0x14a>
    802073b6:	8526                	mv	a0,s1
    802073b8:	00000097          	auipc	ra,0x0
    802073bc:	f40080e7          	jalr	-192(ra) # 802072f8 <consputc>
    802073c0:	00228797          	auipc	a5,0x228
    802073c4:	43878793          	addi	a5,a5,1080 # 8042f7f8 <cons>
    802073c8:	0a07a703          	lw	a4,160(a5)
    802073cc:	0017069b          	addiw	a3,a4,1
    802073d0:	0006861b          	sext.w	a2,a3
    802073d4:	0ad7a023          	sw	a3,160(a5)
    802073d8:	07f77713          	andi	a4,a4,127
    802073dc:	97ba                	add	a5,a5,a4
    802073de:	00978c23          	sb	s1,24(a5)
    802073e2:	47a9                	li	a5,10
    802073e4:	0cf48563          	beq	s1,a5,802074ae <consoleintr+0x178>
    802073e8:	4791                	li	a5,4
    802073ea:	0cf48263          	beq	s1,a5,802074ae <consoleintr+0x178>
    802073ee:	00228797          	auipc	a5,0x228
    802073f2:	4a27a783          	lw	a5,1186(a5) # 8042f890 <cons+0x98>
    802073f6:	0807879b          	addiw	a5,a5,128
    802073fa:	f6f61ce3          	bne	a2,a5,80207372 <consoleintr+0x3c>
    802073fe:	863e                	mv	a2,a5
    80207400:	a07d                	j	802074ae <consoleintr+0x178>
    80207402:	00228717          	auipc	a4,0x228
    80207406:	3f670713          	addi	a4,a4,1014 # 8042f7f8 <cons>
    8020740a:	0a072783          	lw	a5,160(a4)
    8020740e:	09c72703          	lw	a4,156(a4)
    80207412:	00228497          	auipc	s1,0x228
    80207416:	3e648493          	addi	s1,s1,998 # 8042f7f8 <cons>
    8020741a:	4929                	li	s2,10
    8020741c:	f4f70be3          	beq	a4,a5,80207372 <consoleintr+0x3c>
    80207420:	37fd                	addiw	a5,a5,-1
    80207422:	07f7f713          	andi	a4,a5,127
    80207426:	9726                	add	a4,a4,s1
    80207428:	01874703          	lbu	a4,24(a4)
    8020742c:	f52703e3          	beq	a4,s2,80207372 <consoleintr+0x3c>
    80207430:	0af4a023          	sw	a5,160(s1)
    80207434:	10000513          	li	a0,256
    80207438:	00000097          	auipc	ra,0x0
    8020743c:	ec0080e7          	jalr	-320(ra) # 802072f8 <consputc>
    80207440:	0a04a783          	lw	a5,160(s1)
    80207444:	09c4a703          	lw	a4,156(s1)
    80207448:	fcf71ce3          	bne	a4,a5,80207420 <consoleintr+0xea>
    8020744c:	b71d                	j	80207372 <consoleintr+0x3c>
    8020744e:	00228717          	auipc	a4,0x228
    80207452:	3aa70713          	addi	a4,a4,938 # 8042f7f8 <cons>
    80207456:	0a072783          	lw	a5,160(a4)
    8020745a:	09c72703          	lw	a4,156(a4)
    8020745e:	f0f70ae3          	beq	a4,a5,80207372 <consoleintr+0x3c>
    80207462:	37fd                	addiw	a5,a5,-1
    80207464:	00228717          	auipc	a4,0x228
    80207468:	42f72a23          	sw	a5,1076(a4) # 8042f898 <cons+0xa0>
    8020746c:	10000513          	li	a0,256
    80207470:	00000097          	auipc	ra,0x0
    80207474:	e88080e7          	jalr	-376(ra) # 802072f8 <consputc>
    80207478:	bded                	j	80207372 <consoleintr+0x3c>
    8020747a:	ee048ce3          	beqz	s1,80207372 <consoleintr+0x3c>
    8020747e:	bf21                	j	80207396 <consoleintr+0x60>
    80207480:	4529                	li	a0,10
    80207482:	00000097          	auipc	ra,0x0
    80207486:	e76080e7          	jalr	-394(ra) # 802072f8 <consputc>
    8020748a:	00228797          	auipc	a5,0x228
    8020748e:	36e78793          	addi	a5,a5,878 # 8042f7f8 <cons>
    80207492:	0a07a703          	lw	a4,160(a5)
    80207496:	0017069b          	addiw	a3,a4,1
    8020749a:	0006861b          	sext.w	a2,a3
    8020749e:	0ad7a023          	sw	a3,160(a5)
    802074a2:	07f77713          	andi	a4,a4,127
    802074a6:	97ba                	add	a5,a5,a4
    802074a8:	4729                	li	a4,10
    802074aa:	00e78c23          	sb	a4,24(a5)
    802074ae:	00228797          	auipc	a5,0x228
    802074b2:	3ec7a323          	sw	a2,998(a5) # 8042f894 <cons+0x9c>
    802074b6:	00228517          	auipc	a0,0x228
    802074ba:	3da50513          	addi	a0,a0,986 # 8042f890 <cons+0x98>
    802074be:	ffffb097          	auipc	ra,0xffffb
    802074c2:	066080e7          	jalr	102(ra) # 80202524 <wakeup>
    802074c6:	b575                	j	80207372 <consoleintr+0x3c>

00000000802074c8 <consoleinit>:
    802074c8:	1101                	addi	sp,sp,-32
    802074ca:	ec06                	sd	ra,24(sp)
    802074cc:	e822                	sd	s0,16(sp)
    802074ce:	e426                	sd	s1,8(sp)
    802074d0:	1000                	addi	s0,sp,32
    802074d2:	00228497          	auipc	s1,0x228
    802074d6:	32648493          	addi	s1,s1,806 # 8042f7f8 <cons>
    802074da:	00003597          	auipc	a1,0x3
    802074de:	ab658593          	addi	a1,a1,-1354 # 80209f90 <sysnames+0x3d8>
    802074e2:	8526                	mv	a0,s1
    802074e4:	ffff9097          	auipc	ra,0xffff9
    802074e8:	19e080e7          	jalr	414(ra) # 80200682 <initlock>
    802074ec:	0804ac23          	sw	zero,152(s1)
    802074f0:	0804ae23          	sw	zero,156(s1)
    802074f4:	0a04a023          	sw	zero,160(s1)
    802074f8:	0021f797          	auipc	a5,0x21f
    802074fc:	04878793          	addi	a5,a5,72 # 80426540 <devsw>
    80207500:	00000717          	auipc	a4,0x0
    80207504:	ce070713          	addi	a4,a4,-800 # 802071e0 <consoleread>
    80207508:	eb98                	sd	a4,16(a5)
    8020750a:	00000717          	auipc	a4,0x0
    8020750e:	c5070713          	addi	a4,a4,-944 # 8020715a <consolewrite>
    80207512:	ef98                	sd	a4,24(a5)
    80207514:	60e2                	ld	ra,24(sp)
    80207516:	6442                	ld	s0,16(sp)
    80207518:	64a2                	ld	s1,8(sp)
    8020751a:	6105                	addi	sp,sp,32
    8020751c:	8082                	ret
	...

0000000080208000 <_trampoline>:
    80208000:	14051573          	csrrw	a0,sscratch,a0
    80208004:	02153423          	sd	ra,40(a0)
    80208008:	02253823          	sd	sp,48(a0)
    8020800c:	02353c23          	sd	gp,56(a0)
    80208010:	04453023          	sd	tp,64(a0)
    80208014:	04553423          	sd	t0,72(a0)
    80208018:	04653823          	sd	t1,80(a0)
    8020801c:	04753c23          	sd	t2,88(a0)
    80208020:	f120                	sd	s0,96(a0)
    80208022:	f524                	sd	s1,104(a0)
    80208024:	fd2c                	sd	a1,120(a0)
    80208026:	e150                	sd	a2,128(a0)
    80208028:	e554                	sd	a3,136(a0)
    8020802a:	e958                	sd	a4,144(a0)
    8020802c:	ed5c                	sd	a5,152(a0)
    8020802e:	0b053023          	sd	a6,160(a0)
    80208032:	0b153423          	sd	a7,168(a0)
    80208036:	0b253823          	sd	s2,176(a0)
    8020803a:	0b353c23          	sd	s3,184(a0)
    8020803e:	0d453023          	sd	s4,192(a0)
    80208042:	0d553423          	sd	s5,200(a0)
    80208046:	0d653823          	sd	s6,208(a0)
    8020804a:	0d753c23          	sd	s7,216(a0)
    8020804e:	0f853023          	sd	s8,224(a0)
    80208052:	0f953423          	sd	s9,232(a0)
    80208056:	0fa53823          	sd	s10,240(a0)
    8020805a:	0fb53c23          	sd	s11,248(a0)
    8020805e:	11c53023          	sd	t3,256(a0)
    80208062:	11d53423          	sd	t4,264(a0)
    80208066:	11e53823          	sd	t5,272(a0)
    8020806a:	11f53c23          	sd	t6,280(a0)
    8020806e:	140022f3          	csrr	t0,sscratch
    80208072:	06553823          	sd	t0,112(a0)
    80208076:	00853103          	ld	sp,8(a0)
    8020807a:	02053203          	ld	tp,32(a0)
    8020807e:	01053283          	ld	t0,16(a0)
    80208082:	00053303          	ld	t1,0(a0)
    80208086:	18031073          	csrw	satp,t1
    8020808a:	12000073          	sfence.vma
    8020808e:	8282                	jr	t0

0000000080208090 <userret>:
    80208090:	18059073          	csrw	satp,a1
    80208094:	12000073          	sfence.vma
    80208098:	07053283          	ld	t0,112(a0)
    8020809c:	14029073          	csrw	sscratch,t0
    802080a0:	02853083          	ld	ra,40(a0)
    802080a4:	03053103          	ld	sp,48(a0)
    802080a8:	03853183          	ld	gp,56(a0)
    802080ac:	04053203          	ld	tp,64(a0)
    802080b0:	04853283          	ld	t0,72(a0)
    802080b4:	05053303          	ld	t1,80(a0)
    802080b8:	05853383          	ld	t2,88(a0)
    802080bc:	7120                	ld	s0,96(a0)
    802080be:	7524                	ld	s1,104(a0)
    802080c0:	7d2c                	ld	a1,120(a0)
    802080c2:	6150                	ld	a2,128(a0)
    802080c4:	6554                	ld	a3,136(a0)
    802080c6:	6958                	ld	a4,144(a0)
    802080c8:	6d5c                	ld	a5,152(a0)
    802080ca:	0a053803          	ld	a6,160(a0)
    802080ce:	0a853883          	ld	a7,168(a0)
    802080d2:	0b053903          	ld	s2,176(a0)
    802080d6:	0b853983          	ld	s3,184(a0)
    802080da:	0c053a03          	ld	s4,192(a0)
    802080de:	0c853a83          	ld	s5,200(a0)
    802080e2:	0d053b03          	ld	s6,208(a0)
    802080e6:	0d853b83          	ld	s7,216(a0)
    802080ea:	0e053c03          	ld	s8,224(a0)
    802080ee:	0e853c83          	ld	s9,232(a0)
    802080f2:	0f053d03          	ld	s10,240(a0)
    802080f6:	0f853d83          	ld	s11,248(a0)
    802080fa:	10053e03          	ld	t3,256(a0)
    802080fe:	10853e83          	ld	t4,264(a0)
    80208102:	11053f03          	ld	t5,272(a0)
    80208106:	11853f83          	ld	t6,280(a0)
    8020810a:	14051573          	csrrw	a0,sscratch,a0
    8020810e:	10200073          	sret
	...
